aarch64-linux-gnu-gcc -g -O0 -static -o run.arm run.c -lm
aarch64-linux-gnu-gcc -g -O0 -static -o runq.arm runq.c -lm
qemu-aarch64 -d in_asm ./run.arm stories15M.bin -n 50
----------------
IN: _start
0x0000000000400580:  d503201f      nop
0x0000000000400584:  d280001d      mov x29, #0x0
0x0000000000400588:  d280001e      mov x30, #0x0
0x000000000040058c:  aa0003e5      mov x5, x0
0x0000000000400590:  f94003e1      ldr x1, [sp]
0x0000000000400594:  910023e2      add x2, sp, #0x8 (8)
0x0000000000400598:  910003e6      mov x6, sp
0x000000000040059c:  90000000      adrp x0, #+0x0 (addr 0x400000)
0x00000000004005a0:  9116d000      add x0, x0, #0x5b4 (1460)
0x00000000004005a4:  d2800003      mov x3, #0x0
0x00000000004005a8:  d2800004      mov x4, #0x0
0x00000000004005ac:  9400100d      bl #+0x4034 (addr 0x4045e0)

----------------
IN: __libc_start_main_impl
0x00000000004045e0:  a9b67bfd      stp x29, x30, [sp, #-160]!
0x00000000004045e4:  910003fd      mov x29, sp
0x00000000004045e8:  a90153f3      stp x19, x20, [sp, #16]
0x00000000004045ec:  2a0103f3      mov w19, w1
0x00000000004045f0:  aa0203f4      mov x20, x2
0x00000000004045f4:  d0000501      adrp x1, #+0xa2000 (addr 0x4a6000)
0x00000000004045f8:  b0000542      adrp x2, #+0xa9000 (addr 0x4ad000)
0x00000000004045fc:  a90683e2      stp x2, x0, [sp, #104]
0x0000000000404600:  8b33ce80      add x0, x20, w19, sxtw #3
0x0000000000404604:  91002000      add x0, x0, #0x8 (8)
0x0000000000404608:  f9038026      str x6, [x1, #1792]
0x000000000040460c:  f907ec40      str x0, [x2, #4056]
0x0000000000404610:  f9003fe5      str x5, [sp, #120]
0x0000000000404614:  d503201f      nop
0x0000000000404618:  f8408401      ldr x1, [x0], #8
0x000000000040461c:  b5ffffe1      cbnz x1, #-0x4 (addr 0x404618)

----------------
IN: __libc_start_main_impl
0x0000000000404618:  f8408401      ldr x1, [x0], #8
0x000000000040461c:  b5ffffe1      cbnz x1, #-0x4 (addr 0x404618)

----------------
IN: __libc_start_main_impl
0x0000000000404620:  9400bd50      bl #+0x2f540 (addr 0x433b60)

----------------
IN: _dl_aux_init
0x0000000000433b60:  f00003c6      adrp x6, #+0x7b000 (addr 0x4ae000)
0x0000000000433b64:  f9400001      ldr x1, [x0]
0x0000000000433b68:  f90010c0      str x0, [x6, #32]
0x0000000000433b6c:  b4001961      cbz x1, #+0x32c (addr 0x433e98)

----------------
IN: _dl_aux_init
0x0000000000433b70:  a9b97bfd      stp x29, x30, [sp, #-112]!
0x0000000000433b74:  52800005      mov w5, #0x0
0x0000000000433b78:  52800008      mov w8, #0x0
0x0000000000433b7c:  910003fd      mov x29, sp
0x0000000000433b80:  52800009      mov w9, #0x0
0x0000000000433b84:  5280000a      mov w10, #0x0
0x0000000000433b88:  5280000b      mov w11, #0x0
0x0000000000433b8c:  5280000c      mov w12, #0x0
0x0000000000433b90:  52800011      mov w17, #0x0
0x0000000000433b94:  52800010      mov w16, #0x0
0x0000000000433b98:  5280000f      mov w15, #0x0
0x0000000000433b9c:  5280000e      mov w14, #0x0
0x0000000000433ba0:  5280000d      mov w13, #0x0
0x0000000000433ba4:  52800007      mov w7, #0x0
0x0000000000433ba8:  52800004      mov w4, #0x0
0x0000000000433bac:  52800003      mov w3, #0x0
0x0000000000433bb0:  52800002      mov w2, #0x0
0x0000000000433bb4:  a90153f3      stp x19, x20, [sp, #16]
0x0000000000433bb8:  a9025bf5      stp x21, x22, [sp, #32]
0x0000000000433bbc:  a90363f7      stp x23, x24, [sp, #48]
0x0000000000433bc0:  a9046bf9      stp x25, x26, [sp, #64]
0x0000000000433bc4:  a90573fb      stp x27, x28, [sp, #80]
0x0000000000433bc8:  5280003c      mov w28, #0x1
0x0000000000433bcc:  d503201f      nop
0x0000000000433bd0:  f100403f      cmp x1, #0x10 (16)
0x0000000000433bd4:  54001240      b.eq #+0x248 (addr 0x433e1c)

----------------
IN: _dl_aux_init
0x0000000000433bd8:  54000ae8      b.hi #+0x15c (addr 0x433d34)

----------------
IN: _dl_aux_init
0x0000000000433bdc:  f100303f      cmp x1, #0xc (12)
0x0000000000433be0:  54001120      b.eq #+0x224 (addr 0x433e04)

----------------
IN: _dl_aux_init
0x0000000000433be4:  54000968      b.hi #+0x12c (addr 0x433d10)

----------------
IN: _dl_aux_init
0x0000000000433be8:  f100183f      cmp x1, #0x6 (6)
0x0000000000433bec:  54000fe0      b.eq #+0x1fc (addr 0x433de8)

----------------
IN: _dl_aux_init
0x0000000000433bf0:  540007e9      b.ls #+0xfc (addr 0x433cec)

----------------
IN: _dl_aux_init
0x0000000000433cec:  f1000c3f      cmp x1, #0x3 (3)
0x0000000000433cf0:  54000a00      b.eq #+0x140 (addr 0x433e30)

----------------
IN: _dl_aux_init
0x0000000000433e30:  f9400417      ldr x23, [x0, #8]
0x0000000000433e34:  5280002e      mov w14, #0x1
0x0000000000433e38:  f8410c01      ldr x1, [x0, #16]!
0x0000000000433e3c:  b5ffeca1      cbnz x1, #-0x26c (addr 0x433bd0)

----------------
IN: _dl_aux_init
0x0000000000433bd0:  f100403f      cmp x1, #0x10 (16)
0x0000000000433bd4:  54001240      b.eq #+0x248 (addr 0x433e1c)

----------------
IN: _dl_aux_init
0x0000000000433cf4:  f100143f      cmp x1, #0x5 (5)
0x0000000000433cf8:  54fff881      b.ne #-0xf0 (addr 0x433c08)

----------------
IN: _dl_aux_init
0x0000000000433c08:  f8410c01      ldr x1, [x0, #16]!
0x0000000000433c0c:  b5fffe21      cbnz x1, #-0x3c (addr 0x433bd0)

----------------
IN: _dl_aux_init
0x0000000000433cfc:  f9400418      ldr x24, [x0, #8]
0x0000000000433d00:  5280002f      mov w15, #0x1
0x0000000000433d04:  f8410c01      ldr x1, [x0, #16]!
0x0000000000433d08:  b5fff641      cbnz x1, #-0x138 (addr 0x433bd0)

----------------
IN: _dl_aux_init
0x0000000000433de8:  f9400401      ldr x1, [x0, #8]
0x0000000000433dec:  f100003f      cmp x1, #0x0 (0)
0x0000000000433df0:  9a810252      csel x18, x18, x1, eq
0x0000000000433df4:  1a9c00e7      csel w7, w7, w28, eq
0x0000000000433df8:  f8410c01      ldr x1, [x0, #16]!
0x0000000000433dfc:  b5ffeea1      cbnz x1, #-0x22c (addr 0x433bd0)

----------------
IN: _dl_aux_init
0x0000000000433bf4:  f1002c3f      cmp x1, #0xb (11)
0x0000000000433bf8:  54000081      b.ne #+0x10 (addr 0x433c08)

----------------
IN: _dl_aux_init
0x0000000000433bfc:  f9400401      ldr x1, [x0, #8]
0x0000000000433c00:  32000042      orr w2, w2, #0x1
0x0000000000433c04:  4a010063      eor w3, w3, w1
0x0000000000433c08:  f8410c01      ldr x1, [x0, #16]!
0x0000000000433c0c:  b5fffe21      cbnz x1, #-0x3c (addr 0x433bd0)

----------------
IN: _dl_aux_init
0x0000000000433e04:  f9400401      ldr x1, [x0, #8]
0x0000000000433e08:  321f0042      orr w2, w2, #0x2
0x0000000000433e0c:  4a010063      eor w3, w3, w1
0x0000000000433e10:  f8410c01      ldr x1, [x0, #16]!
0x0000000000433e14:  b5ffede1      cbnz x1, #-0x244 (addr 0x433bd0)

----------------
IN: _dl_aux_init
0x0000000000433d10:  f100383f      cmp x1, #0xe (14)
0x0000000000433d14:  54000b60      b.eq #+0x16c (addr 0x433e80)

----------------
IN: _dl_aux_init
0x0000000000433d18:  f1003c3f      cmp x1, #0xf (15)
0x0000000000433d1c:  54000241      b.ne #+0x48 (addr 0x433d64)

----------------
IN: _dl_aux_init
0x0000000000433d64:  f100343f      cmp x1, #0xd (13)
0x0000000000433d68:  54fff501      b.ne #-0x160 (addr 0x433c08)

----------------
IN: _dl_aux_init
0x0000000000433d6c:  f9400401      ldr x1, [x0, #8]
0x0000000000433d70:  321e0042      orr w2, w2, #0x4
0x0000000000433d74:  4a010084      eor w4, w4, w1
0x0000000000433d78:  f8410c01      ldr x1, [x0, #16]!
0x0000000000433d7c:  b5fff2a1      cbnz x1, #-0x1ac (addr 0x433bd0)

----------------
IN: _dl_aux_init
0x0000000000433e80:  f9400401      ldr x1, [x0, #8]
0x0000000000433e84:  321d0042      orr w2, w2, #0x8
0x0000000000433e88:  4a010084      eor w4, w4, w1
0x0000000000433e8c:  f8410c01      ldr x1, [x0, #16]!
0x0000000000433e90:  b5ffea01      cbnz x1, #-0x2c0 (addr 0x433bd0)

----------------
IN: _dl_aux_init
0x0000000000433e1c:  f940041a      ldr x26, [x0, #8]
0x0000000000433e20:  52800031      mov w17, #0x1
0x0000000000433e24:  f8410c01      ldr x1, [x0, #16]!
0x0000000000433e28:  b5ffed41      cbnz x1, #-0x258 (addr 0x433bd0)

----------------
IN: _dl_aux_init
0x0000000000433d34:  f100643f      cmp x1, #0x19 (25)
0x0000000000433d38:  540009a0      b.eq #+0x134 (addr 0x433e6c)

----------------
IN: _dl_aux_init
0x0000000000433d3c:  54000329      b.ls #+0x64 (addr 0x433da0)

----------------
IN: _dl_aux_init
0x0000000000433da0:  f100483f      cmp x1, #0x12 (18)
0x0000000000433da4:  54000500      b.eq #+0xa0 (addr 0x433e44)

----------------
IN: _dl_aux_init
0x0000000000433da8:  f1005c3f      cmp x1, #0x17 (23)
0x0000000000433dac:  540000e1      b.ne #+0x1c (addr 0x433dc8)

----------------
IN: _dl_aux_init
0x0000000000433dc8:  f100443f      cmp x1, #0x11 (17)
0x0000000000433dcc:  54fff1e1      b.ne #-0x1c4 (addr 0x433c08)

----------------
IN: _dl_aux_init
0x0000000000433dd0:  b9400801      ldr w1, [x0, #8]
0x0000000000433dd4:  5280002d      mov w13, #0x1
0x0000000000433dd8:  b9006fe1      str w1, [sp, #108]
0x0000000000433ddc:  f8410c01      ldr x1, [x0, #16]!
0x0000000000433de0:  b5ffef81      cbnz x1, #-0x210 (addr 0x433bd0)

----------------
IN: _dl_aux_init
0x0000000000433e6c:  f9400413      ldr x19, [x0, #8]
0x0000000000433e70:  52800028      mov w8, #0x1
0x0000000000433e74:  f8410c01      ldr x1, [x0, #16]!
0x0000000000433e78:  b5ffeac1      cbnz x1, #-0x2a8 (addr 0x433bd0)

----------------
IN: _dl_aux_init
0x0000000000433db0:  b9400814      ldr w20, [x0, #8]
0x0000000000433db4:  52800029      mov w9, #0x1
0x0000000000433db8:  f8410c01      ldr x1, [x0, #16]!
0x0000000000433dbc:  12800002      mov w2, #0xffffffff
0x0000000000433dc0:  b5fff081      cbnz x1, #-0x1f0 (addr 0x433bd0)

----------------
IN: _dl_aux_init
0x0000000000433d40:  f100843f      cmp x1, #0x21 (33)
0x0000000000433d44:  540008a0      b.eq #+0x114 (addr 0x433e58)

----------------
IN: _dl_aux_init
0x0000000000433d48:  f100cc3f      cmp x1, #0x33 (51)
0x0000000000433d4c:  540001c1      b.ne #+0x38 (addr 0x433d84)

----------------
IN: _dl_aux_init
0x0000000000433d84:  f100683f      cmp x1, #0x1a (26)
0x0000000000433d88:  54fff401      b.ne #-0x180 (addr 0x433c08)

----------------
IN: _dl_aux_init
0x0000000000433d8c:  f940041b      ldr x27, [x0, #8]
0x0000000000433d90:  5280002c      mov w12, #0x1
0x0000000000433d94:  f8410c01      ldr x1, [x0, #16]!
0x0000000000433d98:  b5fff1c1      cbnz x1, #-0x1c8 (addr 0x433bd0)

----------------
IN: _dl_aux_init
0x0000000000433d20:  f9400419      ldr x25, [x0, #8]
0x0000000000433d24:  52800030      mov w16, #0x1
0x0000000000433d28:  f8410c01      ldr x1, [x0, #16]!
0x0000000000433d2c:  b5fff521      cbnz x1, #-0x15c (addr 0x433bd0)

----------------
IN: _dl_aux_init
0x0000000000433d30:  17ffffb8      b #-0x120 (addr 0x433c10)

----------------
IN: _dl_aux_init
0x0000000000433c10:  34000065      cbz w5, #+0xc (addr 0x433c1c)

----------------
IN: _dl_aux_init
0x0000000000433c1c:  34000068      cbz w8, #+0xc (addr 0x433c28)

----------------
IN: _dl_aux_init
0x0000000000433c20:  f0000380      adrp x0, #+0x73000 (addr 0x4a6000)
0x0000000000433c24:  f9037013      str x19, [x0, #1760]
0x0000000000433c28:  340000c9      cbz w9, #+0x18 (addr 0x433c40)

----------------
IN: _dl_aux_init
0x0000000000433c2c:  f00003c0      adrp x0, #+0x7b000 (addr 0x4ae000)
0x0000000000433c30:  f0000385      adrp x5, #+0x73000 (addr 0x4a6000)
0x0000000000433c34:  52800021      mov w1, #0x1
0x0000000000433c38:  b90708b4      str w20, [x5, #1800]
0x0000000000433c3c:  b9015001      str w1, [x0, #336]
0x0000000000433c40:  3400006a      cbz w10, #+0xc (addr 0x433c4c)

----------------
IN: _dl_aux_init
0x0000000000433c4c:  3400006b      cbz w11, #+0xc (addr 0x433c58)

----------------
IN: _dl_aux_init
0x0000000000433c58:  3400006c      cbz w12, #+0xc (addr 0x433c64)

----------------
IN: _dl_aux_init
0x0000000000433c5c:  910080c0      add x0, x6, #0x20 (32)
0x0000000000433c60:  f9000c1b      str x27, [x0, #24]
0x0000000000433c64:  34000071      cbz w17, #+0xc (addr 0x433c70)

----------------
IN: _dl_aux_init
0x0000000000433c68:  910080c0      add x0, x6, #0x20 (32)
0x0000000000433c6c:  f900101a      str x26, [x0, #32]
0x0000000000433c70:  34000070      cbz w16, #+0xc (addr 0x433c7c)

----------------
IN: _dl_aux_init
0x0000000000433c74:  910080c0      add x0, x6, #0x20 (32)
0x0000000000433c78:  f9001419      str x25, [x0, #40]
0x0000000000433c7c:  3400006f      cbz w15, #+0xc (addr 0x433c88)

----------------
IN: _dl_aux_init
0x0000000000433c80:  910080c0      add x0, x6, #0x20 (32)
0x0000000000433c84:  f9001818      str x24, [x0, #48]
0x0000000000433c88:  3400006e      cbz w14, #+0xc (addr 0x433c94)

----------------
IN: _dl_aux_init
0x0000000000433c8c:  910080c0      add x0, x6, #0x20 (32)
0x0000000000433c90:  f9001c17      str x23, [x0, #56]
0x0000000000433c94:  3400008d      cbz w13, #+0x10 (addr 0x433ca4)

----------------
IN: _dl_aux_init
0x0000000000433c98:  910080c6      add x6, x6, #0x20 (32)
0x0000000000433c9c:  b9406fe0      ldr w0, [sp, #108]
0x0000000000433ca0:  b90040c0      str w0, [x6, #64]
0x0000000000433ca4:  35000fc7      cbnz w7, #+0x1f8 (addr 0x433e9c)

----------------
IN: _dl_aux_init
0x0000000000433e9c:  900003a0      adrp x0, #+0x74000 (addr 0x4a7000)
0x0000000000433ea0:  f9079412      str x18, [x0, #3880]
0x0000000000433ea4:  17ffff81      b #-0x1fc (addr 0x433ca8)

----------------
IN: _dl_aux_init
0x0000000000433ca8:  71003c5f      cmp w2, #0xf (15)
0x0000000000433cac:  54000121      b.ne #+0x24 (addr 0x433cd0)

----------------
IN: _dl_aux_init
0x0000000000433cd0:  a94153f3      ldp x19, x20, [sp, #16]
0x0000000000433cd4:  a9425bf5      ldp x21, x22, [sp, #32]
0x0000000000433cd8:  a94363f7      ldp x23, x24, [sp, #48]
0x0000000000433cdc:  a9446bf9      ldp x25, x26, [sp, #64]
0x0000000000433ce0:  a94573fb      ldp x27, x28, [sp, #80]
0x0000000000433ce4:  a8c77bfd      ldp x29, x30, [sp], #112
0x0000000000433ce8:  d65f03c0      ret

----------------
IN: __libc_start_main_impl
0x0000000000404624:  d0000541      adrp x1, #+0xaa000 (addr 0x4ae000)
0x0000000000404628:  f9402c20      ldr x0, [x1, #88]
0x000000000040462c:  b40009c0      cbz x0, #+0x138 (addr 0x404764)

----------------
IN: __libc_start_main_impl
0x0000000000404630:  a9025bf5      stp x21, x22, [sp, #32]
0x0000000000404634:  a90363f7      stp x23, x24, [sp, #48]
0x0000000000404638:  910223f8      add x24, sp, #0x88 (136)
0x000000000040463c:  a9046bf9      stp x25, x26, [sp, #64]
0x0000000000404640:  a90573fb      stp x27, x28, [sp, #80]
0x0000000000404644:  9400c0df      bl #+0x3037c (addr 0x4349c0)

----------------
IN: __libc_init_secure
0x00000000004349c0:  d00003c0      adrp x0, #+0x7a000 (addr 0x4ae000)
0x00000000004349c4:  b9415000      ldr w0, [x0, #336]
0x00000000004349c8:  34000040      cbz w0, #+0x8 (addr 0x4349d0)

----------------
IN: __libc_init_secure
0x00000000004349cc:  d65f03c0      ret

----------------
IN: __libc_start_main_impl
0x0000000000404648:  f94037e0      ldr x0, [sp, #104]
0x000000000040464c:  f947ec00      ldr x0, [x0, #4056]
0x0000000000404650:  9400babc      bl #+0x2eaf0 (addr 0x433140)

----------------
IN: __tunables_init
0x0000000000433140:  a9b57bfd      stp x29, x30, [sp, #-176]!
0x0000000000433144:  910003fd      mov x29, sp
0x0000000000433148:  a90153f3      stp x19, x20, [sp, #16]
0x000000000043314c:  f0000393      adrp x19, #+0x73000 (addr 0x4a6000)
0x0000000000433150:  a9025bf5      stp x21, x22, [sp, #32]
0x0000000000433154:  aa0003f5      mov x21, x0
0x0000000000433158:  b9470a60      ldr w0, [x19, #1800]
0x000000000043315c:  a90363f7      stp x23, x24, [sp, #48]
0x0000000000433160:  a9046bf9      stp x25, x26, [sp, #64]
0x0000000000433164:  a90573fb      stp x27, x28, [sp, #80]
0x0000000000433168:  35002560      cbnz w0, #+0x4ac (addr 0x433614)

----------------
IN: __tunables_init
0x000000000043316c:  90000216      adrp x22, #+0x40000 (addr 0x473000)
0x0000000000433170:  9125c6d6      add x22, x22, #0x971 (2417)
0x0000000000433174:  d503201f      nop
0x0000000000433178:  b4000a95      cbz x21, #+0x150 (addr 0x4332c8)

----------------
IN: __tunables_init
0x000000000043317c:  f94002b4      ldr x20, [x21]
0x0000000000433180:  b4000a54      cbz x20, #+0x148 (addr 0x4332c8)

----------------
IN: __tunables_init
0x0000000000433184:  39400280      ldrb w0, [x20]
0x0000000000433188:  910022b9      add x25, x21, #0x8 (8)
0x000000000043318c:  7100f41f      cmp w0, #0x3d (61)
0x0000000000433190:  7a401804      ccmp w0, #0, #nZcv, ne
0x0000000000433194:  54001a60      b.eq #+0x34c (addr 0x4334e0)

----------------
IN: __tunables_init
0x0000000000433198:  d2800021      mov x1, #0x1
0x000000000043319c:  d503201f      nop
0x00000000004331a0:  38616a82      ldrb w2, [x20, x1]
0x00000000004331a4:  aa0103f7      mov x23, x1
0x00000000004331a8:  91000421      add x1, x1, #0x1 (1)
0x00000000004331ac:  7100f45f      cmp w2, #0x3d (61)
0x00000000004331b0:  7a401844      ccmp w2, #0, #nZcv, ne
0x00000000004331b4:  54ffff61      b.ne #-0x14 (addr 0x4331a0)

----------------
IN: __tunables_init
0x00000000004331a0:  38616a82      ldrb w2, [x20, x1]
0x00000000004331a4:  aa0103f7      mov x23, x1
0x00000000004331a8:  91000421      add x1, x1, #0x1 (1)
0x00000000004331ac:  7100f45f      cmp w2, #0x3d (61)
0x00000000004331b0:  7a401844      ccmp w2, #0, #nZcv, ne
0x00000000004331b4:  54ffff61      b.ne #-0x14 (addr 0x4331a0)

----------------
IN: __tunables_init
0x00000000004331b8:  34000962      cbz w2, #+0x12c (addr 0x4332e4)

----------------
IN: __tunables_init
0x00000000004331bc:  910006fb      add x27, x23, #0x1 (1)
0x00000000004331c0:  2a0003e2      mov w2, w0
0x00000000004331c4:  8b1b0298      add x24, x20, x27
0x00000000004331c8:  d2800001      mov x1, #0x0
0x00000000004331cc:  528008e3      mov w3, #0x47
0x00000000004331d0:  14000005      b #+0x14 (addr 0x4331e4)

----------------
IN: __tunables_init
0x00000000004331e4:  7100005f      cmp w2, #0x0 (0)
0x00000000004331e8:  7a431040      ccmp w2, w3, #nzcv, ne
0x00000000004331ec:  54ffff40      b.eq #-0x18 (addr 0x4331d4)

----------------
IN: __tunables_init
0x00000000004331f0:  d000039a      adrp x26, #+0x72000 (addr 0x4a5000)
0x00000000004331f4:  912a8346      add x6, x26, #0xaa0 (2720)
0x00000000004331f8:  b9470a68      ldr w8, [x19, #1800]
0x00000000004331fc:  910160c6      add x6, x6, #0x58 (88)
0x0000000000433200:  d2800017      mov x23, #0x0
0x0000000000433204:  52800007      mov w7, #0x0
0x0000000000433208:  14000006      b #+0x18 (addr 0x433220)

----------------
IN: __tunables_init
0x0000000000433220:  385f80c0      ldurb w0, [x6, #-8]
0x0000000000433224:  35ffff40      cbnz w0, #-0x18 (addr 0x43320c)

----------------
IN: __tunables_init
0x0000000000433228:  394000c4      ldrb w4, [x6]
0x000000000043322c:  34ffff04      cbz w4, #-0x20 (addr 0x43320c)

----------------
IN: __tunables_init
0x000000000043320c:  110004e7      add w7, w7, #0x1 (1)
0x0000000000433210:  9101c0c6      add x6, x6, #0x70 (112)
0x0000000000433214:  9101c2f7      add x23, x23, #0x70 (112)
0x0000000000433218:  710070ff      cmp w7, #0x1c (28)
0x000000000043321c:  54000640      b.eq #+0xc8 (addr 0x4332e4)

----------------
IN: __tunables_init
0x0000000000433230:  aa0603e5      mov x5, x6
0x0000000000433234:  aa1403e1      mov x1, x20
0x0000000000433238:  2a0403e3      mov w3, w4
0x000000000043323c:  d503201f      nop
0x0000000000433240:  39400022      ldrb w2, [x1]
0x0000000000433244:  7100005f      cmp w2, #0x0 (0)
0x0000000000433248:  7a421060      ccmp w3, w2, #nzcv, ne
0x000000000043324c:  54fffe01      b.ne #-0x40 (addr 0x43320c)

----------------
IN: __tunables_init
0x0000000000433250:  38401ca3      ldrb w3, [x5, #1]!
0x0000000000433254:  91000421      add x1, x1, #0x1 (1)
0x0000000000433258:  35ffff43      cbnz w3, #-0x18 (addr 0x433240)

----------------
IN: __tunables_init
0x0000000000433240:  39400022      ldrb w2, [x1]
0x0000000000433244:  7100005f      cmp w2, #0x0 (0)
0x0000000000433248:  7a421060      ccmp w3, w2, #nzcv, ne
0x000000000043324c:  54fffe01      b.ne #-0x40 (addr 0x43320c)

----------------
IN: __tunables_init
0x00000000004332e4:  aa1903f5      mov x21, x25
0x00000000004332e8:  17ffffa4      b #-0x170 (addr 0x433178)

----------------
IN: __tunables_init
0x0000000000433178:  b4000a95      cbz x21, #+0x150 (addr 0x4332c8)

----------------
IN: __tunables_init
0x00000000004331d4:  38616ac3      ldrb w3, [x22, x1]
0x00000000004331d8:  91000421      add x1, x1, #0x1 (1)
0x00000000004331dc:  38616a82      ldrb w2, [x20, x1]
0x00000000004331e0:  34000863      cbz w3, #+0x10c (addr 0x4332ec)

----------------
IN: __tunables_init
0x00000000004332c8:  a94153f3      ldp x19, x20, [sp, #16]
0x00000000004332cc:  a9425bf5      ldp x21, x22, [sp, #32]
0x00000000004332d0:  a94363f7      ldp x23, x24, [sp, #48]
0x00000000004332d4:  a9446bf9      ldp x25, x26, [sp, #64]
0x00000000004332d8:  a94573fb      ldp x27, x28, [sp, #80]
0x00000000004332dc:  a8cb7bfd      ldp x29, x30, [sp], #176
0x00000000004332e0:  d65f03c0      ret

----------------
IN: __libc_start_main_impl
0x0000000000404654:  aa1803e1      mov x1, x24
0x0000000000404658:  d2800002      mov x2, #0x0
0x000000000040465c:  528000a0      mov w0, #0x5
0x0000000000404660:  9400bc4c      bl #+0x2f130 (addr 0x433790)

----------------
IN: __tunable_get_val
0x0000000000433790:  2a0003e5      mov w5, w0
0x0000000000433794:  d37d7c00      ubfiz x0, x0, #3, #32
0x0000000000433798:  cb050000      sub x0, x0, x5
0x000000000043379c:  d0000384      adrp x4, #+0x72000 (addr 0x4a5000)
0x00000000004337a0:  912a8083      add x3, x4, #0xaa0 (2720)
0x00000000004337a4:  8b001063      add x3, x3, x0, lsl #4
0x00000000004337a8:  b9403060      ldr w0, [x3, #48]
0x00000000004337ac:  7100081f      cmp w0, #0x2 (2)
0x00000000004337b0:  540001e8      b.hi #+0x3c (addr 0x4337ec)

----------------
IN: __tunable_get_val
0x00000000004337ec:  f9402460      ldr x0, [x3, #72]
0x00000000004337f0:  f9000020      str x0, [x1]
0x00000000004337f4:  17fffff3      b #-0x34 (addr 0x4337c0)

----------------
IN: __tunable_get_val
0x00000000004337c0:  d37df0a1      lsl x1, x5, #3
0x00000000004337c4:  912a8084      add x4, x4, #0xaa0 (2720)
0x00000000004337c8:  cb050021      sub x1, x1, x5
0x00000000004337cc:  f100005f      cmp x2, #0x0 (0)
0x00000000004337d0:  1a9f07e3      cset w3, ne
0x00000000004337d4:  d37cec21      lsl x1, x1, #4
0x00000000004337d8:  8b010080      add x0, x4, x1
0x00000000004337dc:  39414000      ldrb w0, [x0, #80]
0x00000000004337e0:  6a00007f      tst w3, w0
0x00000000004337e4:  540000a1      b.ne #+0x14 (addr 0x4337f8)

----------------
IN: __tunable_get_val
0x00000000004337e8:  d65f03c0      ret

----------------
IN: __libc_start_main_impl
0x0000000000404664:  f94047f9      ldr x25, [sp, #136]
0x0000000000404668:  b4000199      cbz x25, #+0x30 (addr 0x404698)

----------------
IN: __libc_start_main_impl
0x0000000000404698:  d0000555      adrp x21, #+0xaa000 (addr 0x4ae000)
0x000000000040469c:  f94022a0      ldr x0, [x21, #64]
0x00000000004046a0:  92750001      and x1, x0, #0x800
0x00000000004046a4:  36580040      tbz w0, #11, #+0x8 (addr 0x4046ac)

----------------
IN: __libc_start_main_impl
0x00000000004046a8:  d5380001      mrs x1, (unknown)
0x00000000004046ac:  d0000540      adrp x0, #+0xaa000 (addr 0x4ae000)
0x00000000004046b0:  91046003      add x3, x0, #0x118 (280)
0x00000000004046b4:  f9008c01      str x1, [x0, #280]
0x00000000004046b8:  d53b00e1      mrs x1, (unknown)
0x00000000004046bc:  372000a1      tbnz w1, #4, #+0x14 (addr 0x4046d0)

----------------
IN: __libc_start_main_impl
0x00000000004046c0:  12000c21      and w1, w1, #0xf
0x00000000004046c4:  52800082      mov w2, #0x4
0x00000000004046c8:  1ac12041      lsl w1, w2, w1
0x00000000004046cc:  b9000861      str w1, [x3, #8]
0x00000000004046d0:  d0000557      adrp x23, #+0xaa000 (addr 0x4ae000)
0x00000000004046d4:  91046000      add x0, x0, #0x118 (280)
0x00000000004046d8:  f94022a2      ldr x2, [x21, #64]
0x00000000004046dc:  d000051a      adrp x26, #+0xa2000 (addr 0x4a6000)
0x00000000004046e0:  f9401ee1      ldr x1, [x23, #56]
0x00000000004046e4:  3900341f      strb wzr, [x0, #13]
0x00000000004046e8:  53165842      ubfx w2, w2, #22, #1
0x00000000004046ec:  39003802      strb w2, [x0, #14]
0x00000000004046f0:  53114421      ubfx w1, w1, #17, #1
0x00000000004046f4:  39003001      strb w1, [x0, #12]
0x00000000004046f8:  97ffefb2      bl #-0x4138 (addr 0x4005c0)

----------------
IN: _dl_relocate_static_pie
0x00000000004005c0:  d65f03c0      ret

----------------
IN: __libc_start_main_impl
0x00000000004046fc:  f9466f42      ldr x2, [x26, #3288]
0x0000000000404700:  f9463356      ldr x22, [x26, #3168]
0x0000000000404704:  eb16005f      cmp x2, x22
0x0000000000404708:  540005e2      b.hs #+0xbc (addr 0x4047c4)

----------------
IN: __libc_start_main_impl
0x000000000040470c:  aa0203fb      mov x27, x2
0x0000000000404710:  d2800319      mov x25, #0x18
0x0000000000404714:  1400000d      b #+0x34 (addr 0x404748)

----------------
IN: __libc_start_main_impl
0x0000000000404748:  b9400b60      ldr w0, [x27, #8]
0x000000000040474c:  f940037c      ldr x28, [x27]
0x0000000000404750:  f110201f      cmp x0, #0x408 (1032)
0x0000000000404754:  54fffe20      b.eq #-0x3c (addr 0x404718)

----------------
IN: __libc_start_main_impl
0x0000000000404718:  f9400b64      ldr x4, [x27, #16]
0x000000000040471c:  9100637b      add x27, x27, #0x18 (24)
0x0000000000404720:  f94022a0      ldr x0, [x21, #64]
0x0000000000404724:  a90883f9      stp x25, x0, [sp, #136]
0x0000000000404728:  f9401ee1      ldr x1, [x23, #56]
0x000000000040472c:  f9004fe1      str x1, [sp, #152]
0x0000000000404730:  b2420000      orr x0, x0, #0x4000000000000000
0x0000000000404734:  aa1803e1      mov x1, x24
0x0000000000404738:  d63f0080      blr x4

----------------
IN: __libc_memmove_ifunc
0x000000000042b5d0:  f00003c1      adrp x1, #+0x7b000 (addr 0x4a6000)
0x000000000042b5d4:  f946c821      ldr x1, [x1, #3472]
0x000000000042b5d8:  f9400020      ldr x0, [x1]
0x000000000042b5dc:  d358fc02      lsr x2, x0, #24
0x000000000042b5e0:  f1010c5f      cmp x2, #0x43 (67)
0x000000000042b5e4:  540004a0      b.eq #+0x94 (addr 0x42b678)

----------------
IN: __libc_memmove_ifunc
0x000000000042b5e8:  f101445f      cmp x2, #0x51 (81)
0x000000000042b5ec:  54000140      b.eq #+0x28 (addr 0x42b614)

----------------
IN: __libc_memmove_ifunc
0x000000000042b5f0:  f101a05f      cmp x2, #0x68 (104)
0x000000000042b5f4:  54000201      b.ne #+0x40 (addr 0x42b634)

----------------
IN: __libc_memmove_ifunc
0x000000000042b634:  f101085f      cmp x2, #0x42 (66)
0x000000000042b638:  54000500      b.eq #+0xa0 (addr 0x42b6d8)

----------------
IN: __libc_memmove_ifunc
0x000000000042b63c:  f101045f      cmp x2, #0x41 (65)
0x000000000042b640:  54000300      b.eq #+0x60 (addr 0x42b6a0)

----------------
IN: __libc_memmove_ifunc
0x000000000042b644:  f101185f      cmp x2, #0x46 (70)
0x000000000042b648:  540005e1      b.ne #+0xbc (addr 0x42b704)

----------------
IN: __libc_memmove_ifunc
0x000000000042b704:  90000000      adrp x0, #+0x0 (addr 0x42b000)
0x000000000042b708:  91384000      add x0, x0, #0xe10 (3600)
0x000000000042b70c:  d65f03c0      ret

----------------
IN: __libc_start_main_impl
0x000000000040473c:  f9000380      str x0, [x28]
0x0000000000404740:  eb16037f      cmp x27, x22
0x0000000000404744:  54000402      b.hs #+0x80 (addr 0x4047c4)

----------------
IN: __libc_memcpy_ifunc
0x000000000042ba30:  f00003c1      adrp x1, #+0x7b000 (addr 0x4a6000)
0x000000000042ba34:  f946c821      ldr x1, [x1, #3472]
0x000000000042ba38:  f9400020      ldr x0, [x1]
0x000000000042ba3c:  d358fc02      lsr x2, x0, #24
0x000000000042ba40:  f1010c5f      cmp x2, #0x43 (67)
0x000000000042ba44:  540004a0      b.eq #+0x94 (addr 0x42bad8)

----------------
IN: __libc_memcpy_ifunc
0x000000000042ba48:  f101445f      cmp x2, #0x51 (81)
0x000000000042ba4c:  54000140      b.eq #+0x28 (addr 0x42ba74)

----------------
IN: __libc_memcpy_ifunc
0x000000000042ba50:  f101a05f      cmp x2, #0x68 (104)
0x000000000042ba54:  54000201      b.ne #+0x40 (addr 0x42ba94)

----------------
IN: __libc_memcpy_ifunc
0x000000000042ba94:  f101085f      cmp x2, #0x42 (66)
0x000000000042ba98:  54000500      b.eq #+0xa0 (addr 0x42bb38)

----------------
IN: __libc_memcpy_ifunc
0x000000000042ba9c:  f101045f      cmp x2, #0x41 (65)
0x000000000042baa0:  54000300      b.eq #+0x60 (addr 0x42bb00)

----------------
IN: __libc_memcpy_ifunc
0x000000000042baa4:  f101185f      cmp x2, #0x46 (70)
0x000000000042baa8:  540005e1      b.ne #+0xbc (addr 0x42bb64)

----------------
IN: __libc_memcpy_ifunc
0x000000000042bb64:  90000000      adrp x0, #+0x0 (addr 0x42b000)
0x000000000042bb68:  91320000      add x0, x0, #0xc80 (3200)
0x000000000042bb6c:  d65f03c0      ret

----------------
IN: __memchr_ifunc
0x000000000042b3a0:  f00003c1      adrp x1, #+0x7b000 (addr 0x4a6000)
0x000000000042b3a4:  d0000000      adrp x0, #+0x2000 (addr 0x42d000)
0x000000000042b3a8:  91200000      add x0, x0, #0x800 (2048)
0x000000000042b3ac:  f946c821      ldr x1, [x1, #3472]
0x000000000042b3b0:  f9400021      ldr x1, [x1]
0x000000000042b3b4:  d358fc22      lsr x2, x1, #24
0x000000000042b3b8:  f101405f      cmp x2, #0x50 (80)
0x000000000042b3bc:  54000040      b.eq #+0x8 (addr 0x42b3c4)

----------------
IN: __memchr_ifunc
0x000000000042b3c0:  d65f03c0      ret

----------------
IN: __libc_memset_ifunc
0x000000000042b710:  f00003c3      adrp x3, #+0x7b000 (addr 0x4a6000)
0x000000000042b714:  f946c860      ldr x0, [x3, #3472]
0x000000000042b718:  f9400001      ldr x1, [x0]
0x000000000042b71c:  d358fc22      lsr x2, x1, #24
0x000000000042b720:  f101205f      cmp x2, #0x48 (72)
0x000000000042b724:  54000640      b.eq #+0xc8 (addr 0x42b7ec)

----------------
IN: __libc_memset_ifunc
0x000000000042b728:  b9400805      ldr w5, [x0, #8]
0x000000000042b72c:  f101445f      cmp x2, #0x51 (81)
0x000000000042b730:  540001c0      b.eq #+0x38 (addr 0x42b768)

----------------
IN: __libc_memset_ifunc
0x000000000042b734:  f101a05f      cmp x2, #0x68 (104)
0x000000000042b738:  54000340      b.eq #+0x68 (addr 0x42b7a0)

----------------
IN: __libc_memset_ifunc
0x000000000042b73c:  f101405f      cmp x2, #0x50 (80)
0x000000000042b740:  540003a1      b.ne #+0x74 (addr 0x42b7b4)

----------------
IN: __libc_memset_ifunc
0x000000000042b7b4:  f101185f      cmp x2, #0x46 (70)
0x000000000042b7b8:  54fffee1      b.ne #-0x24 (addr 0x42b794)

----------------
IN: __libc_memset_ifunc
0x000000000042b794:  d0000000      adrp x0, #+0x2000 (addr 0x42d000)
0x000000000042b798:  91040000      add x0, x0, #0x100 (256)
0x000000000042b79c:  d65f03c0      ret

----------------
IN: __strlen_ifunc
0x000000000042a8e0:  900003e2      adrp x2, #+0x7c000 (addr 0x4a6000)
0x000000000042a8e4:  f0000001      adrp x1, #+0x3000 (addr 0x42d000)
0x000000000042a8e8:  f0000000      adrp x0, #+0x3000 (addr 0x42d000)
0x000000000042a8ec:  912a0021      add x1, x1, #0xa80 (2688)
0x000000000042a8f0:  f9470442      ldr x2, [x2, #3592]
0x000000000042a8f4:  91280000      add x0, x0, #0xa00 (2560)
0x000000000042a8f8:  f9400042      ldr x2, [x2]
0x000000000042a8fc:  f26e005f      tst x2, #0x40000
0x000000000042a900:  9a811000      csel x0, x0, x1, ne
0x000000000042a904:  d65f03c0      ret

----------------
IN: __libc_start_main_impl
0x00000000004047c4:  d0000516      adrp x22, #+0xa2000 (addr 0x4a6000)
0x00000000004047c8:  940000a6      bl #+0x298 (addr 0x404a60)

----------------
IN: __libc_setup_tls
0x0000000000404a60:  a9b87bfd      stp x29, x30, [sp, #-128]!
0x0000000000404a64:  910003fd      mov x29, sp
0x0000000000404a68:  a90153f3      stp x19, x20, [sp, #16]
0x0000000000404a6c:  d0000513      adrp x19, #+0xa2000 (addr 0x4a6000)
0x0000000000404a70:  f947f260      ldr x0, [x19, #4064]
0x0000000000404a74:  a9025bf5      stp x21, x22, [sp, #32]
0x0000000000404a78:  a90363f7      stp x23, x24, [sp, #48]
0x0000000000404a7c:  a9046bf9      stp x25, x26, [sp, #64]
0x0000000000404a80:  a90573fb      stp x27, x28, [sp, #80]
0x0000000000404a84:  f9400018      ldr x24, [x0]
0x0000000000404a88:  9400b922      bl #+0x2e488 (addr 0x432f10)

----------------
IN: __tls_pre_init_tp
0x0000000000432f10:  900003a0      adrp x0, #+0x74000 (addr 0x4a6000)
0x0000000000432f14:  f9477c02      ldr x2, [x0, #3832]
0x0000000000432f18:  f945ec01      ldr x1, [x0, #3032]
0x0000000000432f1c:  f9464c00      ldr x0, [x0, #3224]
0x0000000000432f20:  a9000842      stp x2, x2, [x2]
0x0000000000432f24:  a9000421      stp x1, x1, [x1]
0x0000000000432f28:  a9000000      stp x0, x0, [x0]
0x0000000000432f2c:  d65f03c0      ret

----------------
IN: __libc_setup_tls
0x0000000000404a8c:  f9471a60      ldr x0, [x19, #3632]
0x0000000000404a90:  f9400001      ldr x1, [x0]
0x0000000000404a94:  b4000bc1      cbz x1, #+0x178 (addr 0x404c0c)

----------------
IN: __libc_setup_tls
0x0000000000404a98:  f9478e73      ldr x19, [x19, #3864]
0x0000000000404a9c:  f9400260      ldr x0, [x19]
0x0000000000404aa0:  d37df002      lsl x2, x0, #3
0x0000000000404aa4:  cb000042      sub x2, x2, x0
0x0000000000404aa8:  8b020c22      add x2, x1, x2, lsl #3
0x0000000000404aac:  eb02003f      cmp x1, x2
0x0000000000404ab0:  540000a3      b.lo #+0x14 (addr 0x404ac4)

----------------
IN: __libc_setup_tls
0x0000000000404ac4:  b9400020      ldr w0, [x1]
0x0000000000404ac8:  71001c1f      cmp w0, #0x7 (7)
0x0000000000404acc:  54ffff61      b.ne #-0x14 (addr 0x404ab8)

----------------
IN: __libc_setup_tls
0x0000000000404ab8:  9100e021      add x1, x1, #0x38 (56)
0x0000000000404abc:  eb02003f      cmp x1, x2
0x0000000000404ac0:  54000a62      b.hs #+0x14c (addr 0x404c0c)

----------------
IN: __libc_setup_tls
0x0000000000404ad0:  f940183c      ldr x28, [x1, #48]
0x0000000000404ad4:  d2800413      mov x19, #0x20
0x0000000000404ad8:  f9400316      ldr x22, [x24]
0x0000000000404adc:  eb13039f      cmp x28, x19
0x0000000000404ae0:  f9400822      ldr x2, [x1, #16]
0x0000000000404ae4:  9a932399      csel x25, x28, x19, hs
0x0000000000404ae8:  d1000723      sub x3, x25, #0x1 (1)
0x0000000000404aec:  d2800000      mov x0, #0x0
0x0000000000404af0:  8b0202d6      add x22, x22, x2
0x0000000000404af4:  cb1903e2      neg x2, x25
0x0000000000404af8:  a9060be3      stp x3, x2, [sp, #96]
0x0000000000404afc:  a9425037      ldp x23, x20, [x1, #32]
0x0000000000404b00:  9400b67c      bl #+0x2d9f0 (addr 0x4324f0)

----------------
IN: _dl_tls_static_surplus_init
0x00000000004324f0:  a9bc7bfd      stp x29, x30, [sp, #-64]!
0x00000000004324f4:  d2800002      mov x2, #0x0
0x00000000004324f8:  910003fd      mov x29, sp
0x00000000004324fc:  f90013f5      str x21, [sp, #32]
0x0000000000432500:  9100e3f5      add x21, sp, #0x38 (56)
0x0000000000432504:  aa1503e1      mov x1, x21
0x0000000000432508:  a90153f3      stp x19, x20, [sp, #16]
0x000000000043250c:  aa0003f4      mov x20, x0
0x0000000000432510:  52800000      mov w0, #0x0
0x0000000000432514:  9400049f      bl #+0x127c (addr 0x433790)

----------------
IN: __tunable_get_val
0x00000000004337b4:  350001c0      cbnz w0, #+0x38 (addr 0x4337ec)

----------------
IN: _dl_tls_static_surplus_init
0x0000000000432518:  f9401ff3      ldr x19, [sp, #56]
0x000000000043251c:  d2800002      mov x2, #0x0
0x0000000000432520:  aa1503e1      mov x1, x21
0x0000000000432524:  52800320      mov w0, #0x19
0x0000000000432528:  9400049a      bl #+0x1268 (addr 0x433790)

----------------
IN: _dl_tls_static_surplus_init
0x000000000043252c:  f100027f      cmp x19, #0x0 (0)
0x0000000000432530:  d2800022      mov x2, #0x1
0x0000000000432534:  9a820273      csel x19, x19, x2, eq
0x0000000000432538:  cb130042      sub x2, x2, x19
0x000000000043253c:  f9401fe3      ldr x3, [sp, #56]
0x0000000000432540:  eb14005f      cmp x2, x20
0x0000000000432544:  54000223      b.lo #+0x44 (addr 0x432588)

----------------
IN: _dl_tls_static_surplus_init
0x0000000000432548:  8b140273      add x19, x19, x20
0x000000000043254c:  900003a1      adrp x1, #+0x74000 (addr 0x4a6000)
0x0000000000432550:  51000660      sub w0, w19, #0x1 (1)
0x0000000000432554:  0b130000      add w0, w0, w19
0x0000000000432558:  f9475422      ldr x2, [x1, #3752]
0x000000000043255c:  0b000c00      add w0, w0, w0, lsl #3
0x0000000000432560:  f9467021      ldr x1, [x1, #3296]
0x0000000000432564:  0b001060      add w0, w3, w0, lsl #4
0x0000000000432568:  11024000      add w0, w0, #0x90 (144)
0x000000000043256c:  a94153f3      ldp x19, x20, [sp, #16]
0x0000000000432570:  93407c00      sxtw x0, w0
0x0000000000432574:  f94013f5      ldr x21, [sp, #32]
0x0000000000432578:  f9000023      str x3, [x1]
0x000000000043257c:  f9000040      str x0, [x2]
0x0000000000432580:  a8c47bfd      ldp x29, x30, [sp], #64
0x0000000000432584:  d65f03c0      ret

----------------
IN: __libc_setup_tls
0x0000000000404b04:  f100039f      cmp x28, #0x0 (0)
0x0000000000404b08:  d2800020      mov x0, #0x1
0x0000000000404b0c:  9a801385      csel x5, x28, x0, ne
0x0000000000404b10:  540009c0      b.eq #+0x138 (addr 0x404c48)

----------------
IN: __libc_setup_tls
0x0000000000404b14:  91003f83      add x3, x28, #0xf (15)
0x0000000000404b18:  9ac50863      udiv x3, x3, x5
0x0000000000404b1c:  9b057c7a      mul x26, x3, x5
0x0000000000404b20:  aa1a03fb      mov x27, x26
0x0000000000404b24:  b0000526      adrp x6, #+0xa5000 (addr 0x4a9000)
0x0000000000404b28:  8b190281      add x1, x20, x25
0x0000000000404b2c:  910420d3      add x19, x6, #0x108 (264)
0x0000000000404b30:  a90717e6      stp x6, x5, [sp, #112]
0x0000000000404b34:  f94084c0      ldr x0, [x6, #264]
0x0000000000404b38:  911f0000      add x0, x0, #0x7c0 (1984)
0x0000000000404b3c:  8b010000      add x0, x0, x1
0x0000000000404b40:  8b1a0000      add x0, x0, x26
0x0000000000404b44:  9400ae57      bl #+0x2b95c (addr 0x4304a0)

----------------
IN: sbrk
0x00000000004304a0:  a9bd7bfd      stp x29, x30, [sp, #-48]!
0x00000000004304a4:  910003fd      mov x29, sp
0x00000000004304a8:  f90013f5      str x21, [sp, #32]
0x00000000004304ac:  b00003f5      adrp x21, #+0x7d000 (addr 0x4ad000)
0x00000000004304b0:  a90153f3      stp x19, x20, [sp, #16]
0x00000000004304b4:  aa0003f3      mov x19, x0
0x00000000004304b8:  f947f2b4      ldr x20, [x21, #4064]
0x00000000004304bc:  b40003b4      cbz x20, #+0x74 (addr 0x430530)

----------------
IN: sbrk
0x0000000000430530:  d2800000      mov x0, #0x0
0x0000000000430534:  97ffffcb      bl #-0xd4 (addr 0x430460)

----------------
IN: brk
0x0000000000430460:  aa0003e1      mov x1, x0
0x0000000000430464:  d2801ac8      mov x8, #0xd6
0x0000000000430468:  d4000001      svc #0x0

----------------
IN: brk
0x000000000043046c:  b00003e2      adrp x2, #+0x7d000 (addr 0x4ad000)
0x0000000000430470:  f907f040      str x0, [x2, #4064]
0x0000000000430474:  eb01001f      cmp x0, x1
0x0000000000430478:  54000063      b.lo #+0xc (addr 0x430484)

----------------
IN: brk
0x000000000043047c:  52800000      mov w0, #0x0
0x0000000000430480:  d65f03c0      ret

----------------
IN: sbrk
0x0000000000430538:  37ffff00      tbnz w0, #31, #-0x20 (addr 0x430518)

----------------
IN: sbrk
0x000000000043053c:  f947f2b4      ldr x20, [x21, #4064]
0x0000000000430540:  17ffffe0      b #-0x80 (addr 0x4304c0)

----------------
IN: sbrk
0x00000000004304c0:  f100027f      cmp x19, #0x0 (0)
0x00000000004304c4:  b4000153      cbz x19, #+0x28 (addr 0x4304ec)

----------------
IN: sbrk
0x00000000004304c8:  540001cd      b.le #+0x38 (addr 0x430500)

----------------
IN: sbrk
0x00000000004304cc:  ab130280      adds x0, x20, x19
0x00000000004304d0:  54000203      b.lo #+0x40 (addr 0x430510)

----------------
IN: sbrk
0x0000000000430510:  97ffffd4      bl #-0xb0 (addr 0x430460)

----------------
IN: sbrk
0x0000000000430514:  36fffec0      tbz w0, #31, #-0x28 (addr 0x4304ec)

----------------
IN: sbrk
0x00000000004304ec:  aa1403e0      mov x0, x20
0x00000000004304f0:  a94153f3      ldp x19, x20, [sp, #16]
0x00000000004304f4:  f94013f5      ldr x21, [sp, #32]
0x00000000004304f8:  a8c37bfd      ldp x29, x30, [sp], #48
0x00000000004304fc:  d65f03c0      ret

----------------
IN: __libc_setup_tls
0x0000000000404b48:  911f0015      add x21, x0, #0x7c0 (1984)
0x0000000000404b4c:  d28007c8      mov x8, #0x3e
0x0000000000404b50:  f94033e0      ldr x0, [sp, #96]
0x0000000000404b54:  f9000668      str x8, [x19, #8]
0x0000000000404b58:  f902431b      str x27, [x24, #1152]
0x0000000000404b5c:  aa1703e2      mov x2, x23
0x0000000000404b60:  8b0002b5      add x21, x21, x0
0x0000000000404b64:  aa1603e1      mov x1, x22
0x0000000000404b68:  f94037e0      ldr x0, [sp, #104]
0x0000000000404b6c:  8a0002b5      and x21, x21, x0
0x0000000000404b70:  8b1a02a0      add x0, x21, x26
0x0000000000404b74:  a902fe60      stp x0, xzr, [x19, #40]
0x0000000000404b78:  97ffedce      bl #-0x48c8 (addr 0x4002b0)

----------------
IN: 
0x00000000004002b0:  f0000530      adrp x16, #+0xa7000 (addr 0x4a7000)
0x00000000004002b4:  f9400611      ldr x17, [x16, #8]
0x00000000004002b8:  91002210      add x16, x16, #0x8 (8)
0x00000000004002bc:  d61f0220      br x17

----------------
IN: __memcpy_generic
0x000000000042bc80:  d503201f      nop
0x000000000042bc84:  8b020024      add x4, x1, x2
0x000000000042bc88:  8b020005      add x5, x0, x2
0x000000000042bc8c:  f102005f      cmp x2, #0x80 (128)
0x000000000042bc90:  54000788      b.hi #+0xf0 (addr 0x42bd80)

----------------
IN: __memcpy_generic
0x000000000042bc94:  f100805f      cmp x2, #0x20 (32)
0x000000000042bc98:  540003c8      b.hi #+0x78 (addr 0x42bd10)

----------------
IN: __memcpy_generic
0x000000000042bc9c:  f100405f      cmp x2, #0x10 (16)
0x000000000042bca0:  540000c3      b.lo #+0x18 (addr 0x42bcb8)

----------------
IN: __memcpy_generic
0x000000000042bca4:  a9401c26      ldp x6, x7, [x1]
0x000000000042bca8:  a97f348c      ldp x12, x13, [x4, #-16]
0x000000000042bcac:  a9001c06      stp x6, x7, [x0]
0x000000000042bcb0:  a93f34ac      stp x12, x13, [x5, #-16]
0x000000000042bcb4:  d65f03c0      ret

----------------
IN: __libc_setup_tls
0x0000000000404b7c:  91006260      add x0, x19, #0x18 (24)
0x0000000000404b80:  f90002a0      str x0, [x21]
0x0000000000404b84:  d51bd055      msr (unknown), x21

----------------
IN: __libc_setup_tls
0x0000000000404b88:  9400b8ea      bl #+0x2e3a8 (addr 0x432f30)

----------------
IN: __tls_init_tp
0x0000000000432f30:  a9bc7bfd      stp x29, x30, [sp, #-64]!
0x0000000000432f34:  910003fd      mov x29, sp
0x0000000000432f38:  f90013f5      str x21, [sp, #32]
0x0000000000432f3c:  900003b5      adrp x21, #+0x74000 (addr 0x4a6000)
0x0000000000432f40:  a90153f3      stp x19, x20, [sp, #16]
0x0000000000432f44:  d53bd054      mrs x20, (unknown)
0x0000000000432f48:  d1180283      sub x3, x20, #0x600 (1536)
0x0000000000432f4c:  f945eea1      ldr x1, [x21, #3032]
0x0000000000432f50:  d11c0282      sub x2, x20, #0x700 (1792)
0x0000000000432f54:  d11f0293      sub x19, x20, #0x7c0 (1984)
0x0000000000432f58:  f9400020      ldr x0, [x1]
0x0000000000432f5c:  a9300460      stp x0, x1, [x3, #-256]
0x0000000000432f60:  f9000402      str x2, [x0, #8]
0x0000000000432f64:  d5033bbf      dmb ish
0x0000000000432f68:  d2800c08      mov x8, #0x60
0x0000000000432f6c:  d11bc280      sub x0, x20, #0x6f0 (1776)
0x0000000000432f70:  f9000022      str x2, [x1]
0x0000000000432f74:  d4000001      svc #0x0

----------------
IN: __tls_init_tp
0x0000000000432f78:  900003e1      adrp x1, #+0x7c000 (addr 0x4ae000)
0x0000000000432f7c:  d11b8282      sub x2, x20, #0x6e0 (1760)
0x0000000000432f80:  aa0003e7      mov x7, x0
0x0000000000432f84:  d11ac285      sub x5, x20, #0x6b0 (1712)
0x0000000000432f88:  39406024      ldrb w4, [x1, #24]
0x0000000000432f8c:  52800023      mov w3, #0x1
0x0000000000432f90:  928003e6      mov x6, #0xffffffffffffffe0
0x0000000000432f94:  aa0203e0      mov x0, x2
0x0000000000432f98:  d2800301      mov x1, #0x18
0x0000000000432f9c:  d2800c68      mov x8, #0x63
0x0000000000432fa0:  b900d267      str w7, [x19, #208]
0x0000000000432fa4:  a90d8a62      stp x2, x2, [x19, #216]
0x0000000000432fa8:  f9007666      str x6, [x19, #232]
0x0000000000432fac:  f9018a65      str x5, [x19, #784]
0x0000000000432fb0:  39104664      strb w4, [x19, #1041]
0x0000000000432fb4:  39104a63      strb w3, [x19, #1042]
0x0000000000432fb8:  d4000001      svc #0x0

----------------
IN: __tls_init_tp
0x0000000000432fbc:  d2800002      mov x2, #0x0
0x0000000000432fc0:  9100f3e1      add x1, sp, #0x3c (60)
0x0000000000432fc4:  52800080      mov w0, #0x4
0x0000000000432fc8:  940001f2      bl #+0x7c8 (addr 0x433790)

----------------
IN: __tunable_get_val
0x00000000004337b8:  f9402460      ldr x0, [x3, #72]
0x00000000004337bc:  b9000020      str w0, [x1]
0x00000000004337c0:  d37df0a1      lsl x1, x5, #3
0x00000000004337c4:  912a8084      add x4, x4, #0xaa0 (2720)
0x00000000004337c8:  cb050021      sub x1, x1, x5
0x00000000004337cc:  f100005f      cmp x2, #0x0 (0)
0x00000000004337d0:  1a9f07e3      cset w3, ne
0x00000000004337d4:  d37cec21      lsl x1, x1, #4
0x00000000004337d8:  8b010080      add x0, x4, x1
0x00000000004337dc:  39414000      ldrb w0, [x0, #80]
0x00000000004337e0:  6a00007f      tst w3, w0
0x00000000004337e4:  540000a1      b.ne #+0x14 (addr 0x4337f8)

----------------
IN: __tls_init_tp
0x0000000000432fcc:  b9403fe1      ldr w1, [sp, #60]
0x0000000000432fd0:  34000141      cbz w1, #+0x28 (addr 0x432ff8)

----------------
IN: __tls_init_tp
0x0000000000432fd4:  d2978003      mov x3, #0xbc00
0x0000000000432fd8:  d1008280      sub x0, x20, #0x20 (32)
0x0000000000432fdc:  f2ba8503      movk x3, #0xd428, lsl #16
0x0000000000432fe0:  d2800401      mov x1, #0x20
0x0000000000432fe4:  d2800002      mov x2, #0x0
0x0000000000432fe8:  d28024a8      mov x8, #0x125
0x0000000000432fec:  d4000001      svc #0x0

----------------
IN: __tls_init_tp
0x0000000000432ff0:  3140041f      cmn w0, #0x1000 (4096)
0x0000000000432ff4:  540001e9      b.ls #+0x3c (addr 0x433030)

----------------
IN: __tls_init_tp
0x0000000000432ff8:  12800020      mov w0, #0xfffffffe
0x0000000000432ffc:  b907a660      str w0, [x19, #1956]

----------------
IN: __tls_init_tp
0x0000000000433000:  f9469aa0      ldr x0, [x21, #3376]
0x0000000000433004:  928003e1      mov x1, #0xffffffffffffffe0
0x0000000000433008:  f945dab5      ldr x21, [x21, #2992]
0x000000000043300c:  f9000001      str x1, [x0]
0x0000000000433010:  f94002a0      ldr x0, [x21]
0x0000000000433014:  391dc67f      strb wzr, [x19, #1905]
0x0000000000433018:  391dca7f      strb wzr, [x19, #1906]
0x000000000043301c:  f94013f5      ldr x21, [sp, #32]
0x0000000000433020:  f9024e60      str x0, [x19, #1176]
0x0000000000433024:  a94153f3      ldp x19, x20, [sp, #16]
0x0000000000433028:  a8c47bfd      ldp x29, x30, [sp], #64
0x000000000043302c:  d65f03c0      ret

----------------
IN: __libc_setup_tls
0x0000000000404b8c:  f9021a78      str x24, [x19, #1072]
0x0000000000404b90:  91116304      add x4, x24, #0x458 (1112)
0x0000000000404b94:  8b1c0280      add x0, x20, x28
0x0000000000404b98:  a94717e6      ldp x6, x5, [sp, #112]
0x0000000000404b9c:  f100039f      cmp x28, #0x0 (0)
0x0000000000404ba0:  d1000400      sub x0, x0, #0x1 (1)
0x0000000000404ba4:  a9017094      stp x20, x28, [x4, #16]
0x0000000000404ba8:  9a941014      csel x20, x0, x20, ne
0x0000000000404bac:  91206263      add x3, x19, #0x818 (2072)
0x0000000000404bb0:  a9005c96      stp x22, x23, [x4]
0x0000000000404bb4:  d2800021      mov x1, #0x1
0x0000000000404bb8:  9ac50a94      udiv x20, x20, x5
0x0000000000404bbc:  91102262      add x2, x19, #0x408 (1032)
0x0000000000404bc0:  f94084c0      ldr x0, [x6, #264]
0x0000000000404bc4:  d2800806      mov x6, #0x40
0x0000000000404bc8:  a9000861      stp x1, x2, [x3]
0x0000000000404bcc:  9b056a94      madd x20, x20, x5, x26
0x0000000000404bd0:  91007c00      add x0, x0, #0x1f (31)
0x0000000000404bd4:  a9020479      stp x25, x1, [x3, #32]
0x0000000000404bd8:  8b140000      add x0, x0, x20
0x0000000000404bdc:  927be800      and x0, x0, #0xffffffffffffffe0
0x0000000000404be0:  f9024701      str x1, [x24, #1160]
0x0000000000404be4:  a9425bf5      ldp x21, x22, [sp, #32]
0x0000000000404be8:  a94363f7      ldp x23, x24, [sp, #48]
0x0000000000404bec:  a9446bf9      ldp x25, x26, [sp, #64]
0x0000000000404bf0:  a94573fb      ldp x27, x28, [sp, #80]
0x0000000000404bf4:  f9020666      str x6, [x19, #1032]
0x0000000000404bf8:  f9041660      str x0, [x19, #2088]
0x0000000000404bfc:  f9041a74      str x20, [x19, #2096]
0x0000000000404c00:  a94153f3      ldp x19, x20, [sp, #16]
0x0000000000404c04:  a8c87bfd      ldp x29, x30, [sp], #128
0x0000000000404c08:  d65f03c0      ret

----------------
IN: __libc_start_main_impl
0x00000000004047cc:  b0000515      adrp x21, #+0xa1000 (addr 0x4a5000)
0x00000000004047d0:  f94372c0      ldr x0, [x22, #1760]
0x00000000004047d4:  f9400000      ldr x0, [x0]
0x00000000004047d8:  9278dc00      and x0, x0, #0xffffffffffffff00
0x00000000004047dc:  f904daa0      str x0, [x21, #2480]
0x00000000004047e0:  9400c02c      bl #+0x300b0 (addr 0x434890)

----------------
IN: _dl_discover_osversion
0x0000000000434890:  d10803ff      sub sp, sp, #0x200 (512)
0x0000000000434894:  9101e3e0      add x0, sp, #0x78 (120)
0x0000000000434898:  a9007bfd      stp x29, x30, [sp]
0x000000000043489c:  910003fd      mov x29, sp
0x00000000004348a0:  94007838      bl #+0x1e0e0 (addr 0x452980)

----------------
IN: uname
0x0000000000452980:  d503201f      nop
0x0000000000452984:  d2801408      mov x8, #0xa0
0x0000000000452988:  d4000001      svc #0x0

----------------
IN: uname
0x000000000045298c:  b13ffc1f      cmn x0, #0xfff (4095)
0x0000000000452990:  54000042      b.hs #+0x8 (addr 0x452998)

----------------
IN: uname
0x0000000000452994:  d65f03c0      ret

----------------
IN: _dl_discover_osversion
0x00000000004348a4:  9103ebe3      add x3, sp, #0xfa (250)
0x00000000004348a8:  35000500      cbnz w0, #+0xa0 (addr 0x434948)

----------------
IN: _dl_discover_osversion
0x00000000004348ac:  52800006      mov w6, #0x0
0x00000000004348b0:  52800000      mov w0, #0x0
0x00000000004348b4:  39400061      ldrb w1, [x3]
0x00000000004348b8:  5100c021      sub w1, w1, #0x30 (48)
0x00000000004348bc:  12001c22      and w2, w1, #0xff
0x00000000004348c0:  7100245f      cmp w2, #0x9 (9)
0x00000000004348c4:  54000348      b.hi #+0x68 (addr 0x43492c)

----------------
IN: _dl_discover_osversion
0x00000000004348c8:  39400464      ldrb w4, [x3, #1]
0x00000000004348cc:  91000463      add x3, x3, #0x1 (1)
0x00000000004348d0:  5100c082      sub w2, w4, #0x30 (48)
0x00000000004348d4:  12001c45      and w5, w2, #0xff
0x00000000004348d8:  710024bf      cmp w5, #0x9 (9)
0x00000000004348dc:  54000108      b.hi #+0x20 (addr 0x4348fc)

----------------
IN: _dl_discover_osversion
0x00000000004348fc:  110004c6      add w6, w6, #0x1 (1)
0x0000000000434900:  2a002020      orr w0, w1, w0, lsl #8
0x0000000000434904:  91000463      add x3, x3, #0x1 (1)
0x0000000000434908:  7100b89f      cmp w4, #0x2e (46)
0x000000000043490c:  540000c1      b.ne #+0x18 (addr 0x434924)

----------------
IN: _dl_discover_osversion
0x0000000000434910:  71000cdf      cmp w6, #0x3 (3)
0x0000000000434914:  54fffd01      b.ne #-0x60 (addr 0x4348b4)

----------------
IN: _dl_discover_osversion
0x00000000004348b4:  39400061      ldrb w1, [x3]
0x00000000004348b8:  5100c021      sub w1, w1, #0x30 (48)
0x00000000004348bc:  12001c22      and w2, w1, #0xff
0x00000000004348c0:  7100245f      cmp w2, #0x9 (9)
0x00000000004348c4:  54000348      b.hi #+0x68 (addr 0x43492c)

----------------
IN: _dl_discover_osversion
0x00000000004348e0:  38401c64      ldrb w4, [x3, #1]!
0x00000000004348e4:  0b010821      add w1, w1, w1, lsl #2
0x00000000004348e8:  0b010441      add w1, w2, w1, lsl #1
0x00000000004348ec:  5100c082      sub w2, w4, #0x30 (48)
0x00000000004348f0:  12001c45      and w5, w2, #0xff
0x00000000004348f4:  710024bf      cmp w5, #0x9 (9)
0x00000000004348f8:  54ffff49      b.ls #-0x18 (addr 0x4348e0)

----------------
IN: _dl_discover_osversion
0x0000000000434924:  71000cdf      cmp w6, #0x3 (3)
0x0000000000434928:  54ffff80      b.eq #-0x10 (addr 0x434918)

----------------
IN: _dl_discover_osversion
0x0000000000434918:  a9407bfd      ldp x29, x30, [sp]
0x000000000043491c:  910803ff      add sp, sp, #0x200 (512)
0x0000000000434920:  d65f03c0      ret

----------------
IN: __libc_start_main_impl
0x00000000004047e4:  37f80ba0      tbnz w0, #31, #+0x174 (addr 0x404958)

----------------
IN: __libc_start_main_impl
0x00000000004047e8:  d0000541      adrp x1, #+0xaa000 (addr 0x4ae000)
0x00000000004047ec:  b940a022      ldr w2, [x1, #160]
0x00000000004047f0:  35000ae2      cbnz w2, #+0x15c (addr 0x40494c)

----------------
IN: __libc_start_main_impl
0x00000000004047f4:  b900a020      str w0, [x1, #160]
0x00000000004047f8:  5280dfe1      mov w1, #0x6ff
0x00000000004047fc:  72a00061      movk w1, #0x3, lsl #16
0x0000000000404800:  6b01001f      cmp w0, w1
0x0000000000404804:  540009ed      b.le #+0x13c (addr 0x404940)

----------------
IN: __libc_start_main_impl
0x0000000000404808:  f946cf5a      ldr x26, [x26, #3480]
0x000000000040480c:  b400005a      cbz x26, #+0x8 (addr 0x404814)

----------------
IN: __libc_start_main_impl
0x0000000000404814:  f94372c0      ldr x0, [x22, #1760]
0x0000000000404818:  9126c2b5      add x21, x21, #0x9b0 (2480)
0x000000000040481c:  f9400400      ldr x0, [x0, #8]
0x0000000000404820:  f90006a0      str x0, [x21, #8]
0x0000000000404824:  f9403fe0      ldr x0, [sp, #120]
0x0000000000404828:  b4000080      cbz x0, #+0x10 (addr 0x404838)

----------------
IN: __libc_start_main_impl
0x0000000000404838:  52800020      mov w0, #0x1
0x000000000040483c:  9400c079      bl #+0x301e4 (addr 0x434a20)

----------------
IN: __libc_early_init
0x0000000000434a20:  a9bc7bfd      stp x29, x30, [sp, #-64]!
0x0000000000434a24:  910003fd      mov x29, sp
0x0000000000434a28:  a90153f3      stp x19, x20, [sp, #16]
0x0000000000434a2c:  d0000393      adrp x19, #+0x72000 (addr 0x4a6000)
0x0000000000434a30:  12001c14      and w20, w0, #0xff
0x0000000000434a34:  f945de60      ldr x0, [x19, #3000]
0x0000000000434a38:  f9400001      ldr x1, [x0]
0x0000000000434a3c:  f9001fe1      str x1, [sp, #56]
0x0000000000434a40:  d2800001      mov x1, #0x0
0x0000000000434a44:  97ff410f      bl #-0x2fbc4 (addr 0x404e80)

----------------
IN: __ctype_init
0x0000000000404e80:  d0000501      adrp x1, #+0xa2000 (addr 0x4a6000)
0x0000000000404e84:  f946bc21      ldr x1, [x1, #3448]
0x0000000000404e88:  d53bd040      mrs x0, (unknown)
0x0000000000404e8c:  d2a00005      movz x5, #0x0
0x0000000000404e90:  f2800705      movk x5, #0x38
0x0000000000404e94:  8b050004      add x4, x0, x5
0x0000000000404e98:  f8616801      ldr x1, [x0, x1]
0x0000000000404e9c:  f9400021      ldr x1, [x1]
0x0000000000404ea0:  a9440823      ldp x3, x2, [x1, #64]
0x0000000000404ea4:  f9402c21      ldr x1, [x1, #88]
0x0000000000404ea8:  91040063      add x3, x3, #0x100 (256)
0x0000000000404eac:  91080042      add x2, x2, #0x200 (512)
0x0000000000404eb0:  f8256803      str x3, [x0, x5]
0x0000000000404eb4:  91080020      add x0, x1, #0x200 (512)
0x0000000000404eb8:  a9008082      stp x2, x0, [x4, #8]
0x0000000000404ebc:  d65f03c0      ret

----------------
IN: __libc_early_init
0x0000000000434a48:  f945f662      ldr x2, [x19, #3048]
0x0000000000434a4c:  9100a3e1      add x1, sp, #0x28 (40)
0x0000000000434a50:  52800060      mov w0, #0x3
0x0000000000434a54:  39000054      strb w20, [x2]
0x0000000000434a58:  97ffee72      bl #-0x4638 (addr 0x430420)

----------------
IN: __GI_getrlimit
0x0000000000430420:  aa0103e3      mov x3, x1
0x0000000000430424:  d2800002      mov x2, #0x0
0x0000000000430428:  2a0003e1      mov w1, w0
0x000000000043042c:  d28020a8      mov x8, #0x105
0x0000000000430430:  d2800000      mov x0, #0x0
0x0000000000430434:  d4000001      svc #0x0

----------------
IN: __GI_getrlimit
0x0000000000430438:  b140041f      cmn x0, #0x1000 (4096)
0x000000000043043c:  54000048      b.hi #+0x8 (addr 0x430444)

----------------
IN: __GI_getrlimit
0x0000000000430440:  d65f03c0      ret

----------------
IN: __libc_early_init
0x0000000000434a5c:  d2a00404      mov x4, #0x200000
0x0000000000434a60:  350000e0      cbnz w0, #+0x1c (addr 0x434a7c)

----------------
IN: __libc_early_init
0x0000000000434a64:  f94017e0      ldr x0, [sp, #40]
0x0000000000434a68:  b100041f      cmn x0, #0x1 (1)
0x0000000000434a6c:  54000080      b.eq #+0x10 (addr 0x434a7c)

----------------
IN: __libc_early_init
0x0000000000434a70:  f140801f      cmp x0, #0x20000 (131072)
0x0000000000434a74:  d2a00044      mov x4, #0x20000
0x0000000000434a78:  9a848004      csel x4, x0, x4, hi
0x0000000000434a7c:  f9467e61      ldr x1, [x19, #3320]
0x0000000000434a80:  d00003c2      adrp x2, #+0x7a000 (addr 0x4ae000)
0x0000000000434a84:  f946b260      ldr x0, [x19, #3424]
0x0000000000434a88:  910d8042      add x2, x2, #0x360 (864)
0x0000000000434a8c:  f9400023      ldr x3, [x1]
0x0000000000434a90:  f9400000      ldr x0, [x0]
0x0000000000434a94:  f947da61      ldr x1, [x19, #4016]
0x0000000000434a98:  8b000060      add x0, x3, x0
0x0000000000434a9c:  d1000400      sub x0, x0, #0x1 (1)
0x0000000000434aa0:  f9400021      ldr x1, [x1]
0x0000000000434aa4:  f9000841      str x1, [x2, #16]
0x0000000000434aa8:  9ac30800      udiv x0, x0, x3
0x0000000000434aac:  91200026      add x6, x1, #0x800 (2048)
0x0000000000434ab0:  d1000425      sub x5, x1, #0x1 (1)
0x0000000000434ab4:  cb0103e1      neg x1, x1
0x0000000000434ab8:  9b031800      madd x0, x0, x3, x6
0x0000000000434abc:  eb04001f      cmp x0, x4
0x0000000000434ac0:  9a842000      csel x0, x0, x4, hs
0x0000000000434ac4:  8b050000      add x0, x0, x5
0x0000000000434ac8:  8a010000      and x0, x0, x1
0x0000000000434acc:  f9001040      str x0, [x2, #32]
0x0000000000434ad0:  f90017e0      str x0, [sp, #40]
0x0000000000434ad4:  94006cb7      bl #+0x1b2dc (addr 0x44fdb0)

----------------
IN: __pthread_tunables_init
0x000000000044fdb0:  a9bd7bfd      stp x29, x30, [sp, #-48]!
0x000000000044fdb4:  52800300      mov w0, #0x18
0x000000000044fdb8:  90000002      adrp x2, #+0x0 (addr 0x44f000)
0x000000000044fdbc:  910003fd      mov x29, sp
0x000000000044fdc0:  a90153f3      stp x19, x20, [sp, #16]
0x000000000044fdc4:  f00002b3      adrp x19, #+0x57000 (addr 0x4a6000)
0x000000000044fdc8:  910083f4      add x20, sp, #0x20 (32)
0x000000000044fdcc:  f945de63      ldr x3, [x19, #3000]
0x000000000044fdd0:  aa1403e1      mov x1, x20
0x000000000044fdd4:  91364042      add x2, x2, #0xd90 (3472)
0x000000000044fdd8:  f9400064      ldr x4, [x3]
0x000000000044fddc:  f90017e4      str x4, [sp, #40]
0x000000000044fde0:  d2800004      mov x4, #0x0
0x000000000044fde4:  97ff8e6b      bl #-0x1c654 (addr 0x433790)

----------------
IN: __pthread_tunables_init
0x000000000044fde8:  aa1403e1      mov x1, x20
0x000000000044fdec:  528001c0      mov w0, #0xe
0x000000000044fdf0:  90000002      adrp x2, #+0x0 (addr 0x44f000)
0x000000000044fdf4:  91368042      add x2, x2, #0xda0 (3488)
0x000000000044fdf8:  97ff8e66      bl #-0x1c668 (addr 0x433790)

----------------
IN: __pthread_tunables_init
0x000000000044fdfc:  f945de73      ldr x19, [x19, #3000]
0x000000000044fe00:  f94017e0      ldr x0, [sp, #40]
0x000000000044fe04:  f9400261      ldr x1, [x19]
0x000000000044fe08:  eb010000      subs x0, x0, x1
0x000000000044fe0c:  d2800001      mov x1, #0x0
0x000000000044fe10:  54000081      b.ne #+0x10 (addr 0x44fe20)

----------------
IN: __pthread_tunables_init
0x000000000044fe14:  a94153f3      ldp x19, x20, [sp, #16]
0x000000000044fe18:  a8c37bfd      ldp x29, x30, [sp], #48
0x000000000044fe1c:  d65f03c0      ret

----------------
IN: __libc_early_init
0x0000000000434ad8:  f945de73      ldr x19, [x19, #3000]
0x0000000000434adc:  f9401fe0      ldr x0, [sp, #56]
0x0000000000434ae0:  f9400261      ldr x1, [x19]
0x0000000000434ae4:  eb010000      subs x0, x0, x1
0x0000000000434ae8:  d2800001      mov x1, #0x0
0x0000000000434aec:  54000081      b.ne #+0x10 (addr 0x434afc)

----------------
IN: __libc_early_init
0x0000000000434af0:  a94153f3      ldp x19, x20, [sp, #16]
0x0000000000434af4:  a8c47bfd      ldp x29, x30, [sp], #64
0x0000000000434af8:  d65f03c0      ret

----------------
IN: __libc_start_main_impl
0x0000000000404840:  f94037e0      ldr x0, [sp, #104]
0x0000000000404844:  aa1403e1      mov x1, x20
0x0000000000404848:  f947ec02      ldr x2, [x0, #4056]
0x000000000040484c:  2a1303e0      mov w0, w19
0x0000000000404850:  9400c0ac      bl #+0x302b0 (addr 0x434b00)

----------------
IN: __libc_init_first
0x0000000000434b00:  a9bd7bfd      stp x29, x30, [sp, #-48]!
0x0000000000434b04:  d0000383      adrp x3, #+0x72000 (addr 0x4a6000)
0x0000000000434b08:  d00003c4      adrp x4, #+0x7a000 (addr 0x4ae000)
0x0000000000434b0c:  910003fd      mov x29, sp
0x0000000000434b10:  f9468063      ldr x3, [x3, #3328]
0x0000000000434b14:  91056085      add x5, x4, #0x158 (344)
0x0000000000434b18:  a90153f3      stp x19, x20, [sp, #16]
0x0000000000434b1c:  2a0003f3      mov w19, w0
0x0000000000434b20:  aa0103f4      mov x20, x1
0x0000000000434b24:  f90013f5      str x21, [sp, #32]
0x0000000000434b28:  aa0203f5      mov x21, x2
0x0000000000434b2c:  b9015880      str w0, [x4, #344]
0x0000000000434b30:  f9000062      str x2, [x3]
0x0000000000434b34:  f90004a1      str x1, [x5, #8]
0x0000000000434b38:  97fffcde      bl #-0xc88 (addr 0x433eb0)

----------------
IN: _dl_non_dynamic_init
0x0000000000433eb0:  a9b67bfd      stp x29, x30, [sp, #-160]!
0x0000000000433eb4:  910003fd      mov x29, sp
0x0000000000433eb8:  a90153f3      stp x19, x20, [sp, #16]
0x0000000000433ebc:  f00003d4      adrp x20, #+0x7b000 (addr 0x4ae000)
0x0000000000433ec0:  a9025bf5      stp x21, x22, [sp, #32]
0x0000000000433ec4:  b00003b5      adrp x21, #+0x75000 (addr 0x4a8000)
0x0000000000433ec8:  a9046bf9      stp x25, x26, [sp, #64]
0x0000000000433ecc:  a90573fb      stp x27, x28, [sp, #80]
0x0000000000433ed0:  940092d0      bl #+0x24b40 (addr 0x458a10)

----------------
IN: _dl_get_origin
0x0000000000458a10:  d282060c      mov x12, #0x1030
0x0000000000458a14:  cb2c63ff      sub sp, sp, x12
0x0000000000458a18:  90000161      adrp x1, #+0x2c000 (addr 0x484000)
0x0000000000458a1c:  92800c60      mov x0, #0xffffffffffffff9c
0x0000000000458a20:  91142021      add x1, x1, #0x508 (1288)
0x0000000000458a24:  d2820003      mov x3, #0x1000
0x0000000000458a28:  a9007bfd      stp x29, x30, [sp]
0x0000000000458a2c:  910003fd      mov x29, sp
0x0000000000458a30:  d28009c8      mov x8, #0x4e
0x0000000000458a34:  a90153f3      stp x19, x20, [sp, #16]
0x0000000000458a38:  9100c3f3      add x19, sp, #0x30 (48)
0x0000000000458a3c:  aa1303e2      mov x2, x19
0x0000000000458a40:  f90013f5      str x21, [sp, #32]
0x0000000000458a44:  d4000001      svc #0x0

----------------
IN: _dl_get_origin
0x0000000000458a48:  7100001f      cmp w0, #0x0 (0)
0x0000000000458a4c:  1281ffe1      mov w1, #0xfffff000
0x0000000000458a50:  7a41c002      ccmp w0, w1, #nzCv, gt
0x0000000000458a54:  540003a8      b.hi #+0x74 (addr 0x458ac8)

----------------
IN: _dl_get_origin
0x0000000000458a58:  3940c3e2      ldrb w2, [sp, #48]
0x0000000000458a5c:  71016c5f      cmp w2, #0x5b (91)
0x0000000000458a60:  54000340      b.eq #+0x68 (addr 0x458ac8)

----------------
IN: _dl_get_origin
0x0000000000458a64:  93407c01      sxtw x1, w0
0x0000000000458a68:  7100bc5f      cmp w2, #0x2f (47)
0x0000000000458a6c:  540000e0      b.eq #+0x1c (addr 0x458a88)

----------------
IN: _dl_get_origin
0x0000000000458a88:  2a0103e0      mov w0, w1
0x0000000000458a8c:  7100043f      cmp w1, #0x1 (1)
0x0000000000458a90:  54ffff21      b.ne #-0x1c (addr 0x458a74)

----------------
IN: _dl_get_origin
0x0000000000458a74:  51000435      sub w21, w1, #0x1 (1)
0x0000000000458a78:  d1000421      sub x1, x1, #0x1 (1)
0x0000000000458a7c:  38616a63      ldrb w3, [x19, x1]
0x0000000000458a80:  7100bc7f      cmp w3, #0x2f (47)
0x0000000000458a84:  54000740      b.eq #+0xe8 (addr 0x458b6c)

----------------
IN: _dl_get_origin
0x0000000000458b6c:  11000400      add w0, w0, #0x1 (1)
0x0000000000458b70:  93407c00      sxtw x0, w0
0x0000000000458b74:  97ff3edb      bl #-0x30494 (addr 0x4286e0)

----------------
IN: __malloc
0x00000000004286e0:  a9bd7bfd      stp x29, x30, [sp, #-48]!
0x00000000004286e4:  b0000421      adrp x1, #+0x85000 (addr 0x4ad000)
0x00000000004286e8:  910003fd      mov x29, sp
0x00000000004286ec:  a90153f3      stp x19, x20, [sp, #16]
0x00000000004286f0:  aa0003f4      mov x20, x0
0x00000000004286f4:  397da020      ldrb w0, [x1, #3944]
0x00000000004286f8:  a9025bf5      stp x21, x22, [sp, #32]
0x00000000004286fc:  34000740      cbz w0, #+0xe8 (addr 0x4287e4)

----------------
IN: __malloc
0x00000000004287e4:  97fff238      bl #-0x3720 (addr 0x4250c4)

----------------
IN: ptmalloc_init.part.0
0x00000000004250c4:  a9ba7bfd      stp x29, x30, [sp, #-96]!
0x00000000004250c8:  52800023      mov w3, #0x1
0x00000000004250cc:  52800022      mov w2, #0x1
0x00000000004250d0:  910003fd      mov x29, sp
0x00000000004250d4:  a90153f3      stp x19, x20, [sp, #16]
0x00000000004250d8:  b0000414      adrp x20, #+0x81000 (addr 0x4a6000)
0x00000000004250dc:  910123f3      add x19, sp, #0x48 (72)
0x00000000004250e0:  f945de84      ldr x4, [x20, #3000]
0x00000000004250e4:  a9025bf5      stp x21, x22, [sp, #32]
0x00000000004250e8:  90000455      adrp x21, #+0x88000 (addr 0x4ad000)
0x00000000004250ec:  f9001bf7      str x23, [sp, #48]
0x00000000004250f0:  913d62b7      add x23, x21, #0xf58 (3928)
0x00000000004250f4:  910062e0      add x0, x23, #0x18 (24)
0x00000000004250f8:  d2800101      mov x1, #0x8
0x00000000004250fc:  f9400085      ldr x5, [x4]
0x0000000000425100:  f9002fe5      str x5, [sp, #88]
0x0000000000425104:  d2800005      mov x5, #0x0
0x0000000000425108:  390042e3      strb w3, [x23, #16]
0x000000000042510c:  94006fa1      bl #+0x1be84 (addr 0x440f90)

----------------
IN: getrandom
0x0000000000440f90:  a9bd7bfd      stp x29, x30, [sp, #-48]!
0x0000000000440f94:  910003fd      mov x29, sp
0x0000000000440f98:  a9025bf5      stp x21, x22, [sp, #32]
0x0000000000440f9c:  d53bd056      mrs x22, (unknown)
0x0000000000440fa0:  d11f02c3      sub x3, x22, #0x7c0 (1984)
0x0000000000440fa4:  a90153f3      stp x19, x20, [sp, #16]
0x0000000000440fa8:  2a0203f3      mov w19, w2
0x0000000000440fac:  b9400062      ldr w2, [x3]
0x0000000000440fb0:  35000182      cbnz w2, #+0x30 (addr 0x440fe0)

----------------
IN: getrandom
0x0000000000440fb4:  aa1303e2      mov x2, x19
0x0000000000440fb8:  d28022c8      mov x8, #0x116
0x0000000000440fbc:  d4000001      svc #0x0

----------------
IN: getrandom
0x0000000000440fc0:  aa0003f3      mov x19, x0
0x0000000000440fc4:  b140041f      cmn x0, #0x1000 (4096)
0x0000000000440fc8:  54000328      b.hi #+0x64 (addr 0x44102c)

----------------
IN: getrandom
0x0000000000440fcc:  aa1303e0      mov x0, x19
0x0000000000440fd0:  a94153f3      ldp x19, x20, [sp, #16]
0x0000000000440fd4:  a9425bf5      ldp x21, x22, [sp, #32]
0x0000000000440fd8:  a8c37bfd      ldp x29, x30, [sp], #48
0x0000000000440fdc:  d65f03c0      ret

----------------
IN: ptmalloc_init.part.0
0x0000000000425110:  f100201f      cmp x0, #0x8 (8)
0x0000000000425114:  54000200      b.eq #+0x40 (addr 0x425154)

----------------
IN: ptmalloc_init.part.0
0x0000000000425154:  d2a00001      movz x1, #0x0
0x0000000000425158:  f2800a01      movk x1, #0x50
0x000000000042515c:  d53bd044      mrs x4, (unknown)
0x0000000000425160:  d0000403      adrp x3, #+0x82000 (addr 0x4a7000)
0x0000000000425164:  9119e065      add x5, x3, #0x678 (1656)
0x0000000000425168:  910180a0      add x0, x5, #0x60 (96)
0x000000000042516c:  912140a2      add x2, x5, #0x850 (2128)
0x0000000000425170:  f8216885      str x5, [x4, x1]
0x0000000000425174:  d503201f      nop
0x0000000000425178:  a9010000      stp x0, x0, [x0, #16]
0x000000000042517c:  91004000      add x0, x0, #0x10 (16)
0x0000000000425180:  eb00005f      cmp x2, x0
0x0000000000425184:  54ffffa1      b.ne #-0xc (addr 0x425178)

----------------
IN: ptmalloc_init.part.0
0x0000000000425178:  a9010000      stp x0, x0, [x0, #16]
0x000000000042517c:  91004000      add x0, x0, #0x10 (16)
0x0000000000425180:  eb00005f      cmp x2, x0
0x0000000000425184:  54ffffa1      b.ne #-0xc (addr 0x425178)

----------------
IN: ptmalloc_init.part.0
0x0000000000425188:  913d62b5      add x21, x21, #0xf58 (3928)
0x000000000042518c:  d2801001      mov x1, #0x80
0x0000000000425190:  9119e063      add x3, x3, #0x678 (1656)
0x0000000000425194:  91002060      add x0, x3, #0x8 (8)
0x0000000000425198:  f90006a1      str x1, [x21, #8]
0x000000000042519c:  b900001f      str wzr, [x0]
0x00000000004251a0:  91018064      add x4, x3, #0x60 (96)
0x00000000004251a4:  aa1303e1      mov x1, x19
0x00000000004251a8:  528001a0      mov w0, #0xd
0x00000000004251ac:  f0ffffe2      adrp x2, #-0x1000 (addr 0x424000)
0x00000000004251b0:  91158042      add x2, x2, #0x560 (1376)
0x00000000004251b4:  f9003064      str x4, [x3, #96]
0x00000000004251b8:  94003976      bl #+0xe5d8 (addr 0x433790)

----------------
IN: ptmalloc_init.part.0
0x00000000004251bc:  aa1303e1      mov x1, x19
0x00000000004251c0:  52800060      mov w0, #0x3
0x00000000004251c4:  f0ffffe2      adrp x2, #-0x1000 (addr 0x424000)
0x00000000004251c8:  91160042      add x2, x2, #0x580 (1408)
0x00000000004251cc:  94003971      bl #+0xe5c4 (addr 0x433790)

----------------
IN: ptmalloc_init.part.0
0x00000000004251d0:  aa1303e1      mov x1, x19
0x00000000004251d4:  528002a0      mov w0, #0x15
0x00000000004251d8:  f0ffffe2      adrp x2, #-0x1000 (addr 0x424000)
0x00000000004251dc:  91148042      add x2, x2, #0x520 (1312)
0x00000000004251e0:  9400396c      bl #+0xe5b0 (addr 0x433790)

----------------
IN: ptmalloc_init.part.0
0x00000000004251e4:  aa1303e1      mov x1, x19
0x00000000004251e8:  52800040      mov w0, #0x2
0x00000000004251ec:  f0ffffe2      adrp x2, #-0x1000 (addr 0x424000)
0x00000000004251f0:  91164042      add x2, x2, #0x590 (1424)
0x00000000004251f4:  94003967      bl #+0xe59c (addr 0x433790)

----------------
IN: ptmalloc_init.part.0
0x00000000004251f8:  aa1303e1      mov x1, x19
0x00000000004251fc:  52800200      mov w0, #0x10
0x0000000000425200:  f0ffffe2      adrp x2, #-0x1000 (addr 0x424000)
0x0000000000425204:  91150042      add x2, x2, #0x540 (1344)
0x0000000000425208:  94003962      bl #+0xe588 (addr 0x433790)

----------------
IN: ptmalloc_init.part.0
0x000000000042520c:  aa1303e1      mov x1, x19
0x0000000000425210:  52800280      mov w0, #0x14
0x0000000000425214:  f0ffffe2      adrp x2, #-0x1000 (addr 0x424000)
0x0000000000425218:  9116c042      add x2, x2, #0x5b0 (1456)
0x000000000042521c:  9400395d      bl #+0xe574 (addr 0x433790)

----------------
IN: ptmalloc_init.part.0
0x0000000000425220:  aa1303e1      mov x1, x19
0x0000000000425224:  528002e0      mov w0, #0x17
0x0000000000425228:  f0ffffe2      adrp x2, #-0x1000 (addr 0x424000)
0x000000000042522c:  91170042      add x2, x2, #0x5c0 (1472)
0x0000000000425230:  94003958      bl #+0xe560 (addr 0x433790)

----------------
IN: ptmalloc_init.part.0
0x0000000000425234:  aa1303e1      mov x1, x19
0x0000000000425238:  52800340      mov w0, #0x1a
0x000000000042523c:  f0ffffe2      adrp x2, #-0x1000 (addr 0x424000)
0x0000000000425240:  91174042      add x2, x2, #0x5d0 (1488)
0x0000000000425244:  94003953      bl #+0xe54c (addr 0x433790)

----------------
IN: ptmalloc_init.part.0
0x0000000000425248:  aa1303e1      mov x1, x19
0x000000000042524c:  528002c0      mov w0, #0x16
0x0000000000425250:  f0ffffe2      adrp x2, #-0x1000 (addr 0x424000)
0x0000000000425254:  91184042      add x2, x2, #0x610 (1552)
0x0000000000425258:  9400394e      bl #+0xe538 (addr 0x433790)

----------------
IN: ptmalloc_init.part.0
0x000000000042525c:  aa1303e1      mov x1, x19
0x0000000000425260:  52800240      mov w0, #0x12
0x0000000000425264:  f0ffffe2      adrp x2, #-0x1000 (addr 0x424000)
0x0000000000425268:  9118c042      add x2, x2, #0x630 (1584)
0x000000000042526c:  94003949      bl #+0xe524 (addr 0x433790)

----------------
IN: ptmalloc_init.part.0
0x0000000000425270:  aa1303e1      mov x1, x19
0x0000000000425274:  52800140      mov w0, #0xa
0x0000000000425278:  f0ffffe2      adrp x2, #-0x1000 (addr 0x424000)
0x000000000042527c:  91190042      add x2, x2, #0x640 (1600)
0x0000000000425280:  94003944      bl #+0xe510 (addr 0x433790)

----------------
IN: ptmalloc_init.part.0
0x0000000000425284:  52800120      mov w0, #0x9
0x0000000000425288:  aa1303e1      mov x1, x19
0x000000000042528c:  f0ffffe2      adrp x2, #-0x1000 (addr 0x424000)
0x0000000000425290:  91248042      add x2, x2, #0x920 (2336)
0x0000000000425294:  9400393f      bl #+0xe4fc (addr 0x433790)

----------------
IN: ptmalloc_init.part.0
0x0000000000425298:  d0000400      adrp x0, #+0x82000 (addr 0x4a7000)
0x000000000042529c:  f9430800      ldr x0, [x0, #1552]
0x00000000004252a0:  b4000060      cbz x0, #+0xc (addr 0x4252ac)

----------------
IN: ptmalloc_init.part.0
0x00000000004252ac:  f945de94      ldr x20, [x20, #3000]
0x00000000004252b0:  f9402fe0      ldr x0, [sp, #88]
0x00000000004252b4:  f9400281      ldr x1, [x20]
0x00000000004252b8:  eb010000      subs x0, x0, x1
0x00000000004252bc:  d2800001      mov x1, #0x0
0x00000000004252c0:  540000c1      b.ne #+0x18 (addr 0x4252d8)

----------------
IN: ptmalloc_init.part.0
0x00000000004252c4:  a94153f3      ldp x19, x20, [sp, #16]
0x00000000004252c8:  a9425bf5      ldp x21, x22, [sp, #32]
0x00000000004252cc:  f9401bf7      ldr x23, [sp, #48]
0x00000000004252d0:  a8c67bfd      ldp x29, x30, [sp], #96
0x00000000004252d4:  d65f03c0      ret

----------------
IN: __malloc
0x00000000004287e8:  b6fff8f4      tbz x20, #63, #-0xe4 (addr 0x428704)

----------------
IN: __malloc
0x0000000000428704:  d53bd055      mrs x21, (unknown)
0x0000000000428708:  91005e80      add x0, x20, #0x17 (23)
0x000000000042870c:  914002b6      add x22, x21, #0x0 (0)
0x0000000000428710:  910142d6      add x22, x22, #0x50 (80)
0x0000000000428714:  927cec13      and x19, x0, #0xfffffffffffffff0
0x0000000000428718:  f1007c1f      cmp x0, #0x1f (31)
0x000000000042871c:  d1004673      sub x19, x19, #0x11 (17)
0x0000000000428720:  f94006c0      ldr x0, [x22, #8]
0x0000000000428724:  d344fe73      lsr x19, x19, #4
0x0000000000428728:  9a9f8273      csel x19, x19, xzr, hi
0x000000000042872c:  b4000760      cbz x0, #+0xec (addr 0x428818)

----------------
IN: __malloc
0x0000000000428818:  394042c0      ldrb w0, [x22, #16]
0x000000000042881c:  35fff920      cbnz w0, #-0xdc (addr 0x428740)

----------------
IN: __malloc
0x0000000000428820:  97fffdd8      bl #-0x8a0 (addr 0x427f80)

----------------
IN: tcache_init.part.0
0x0000000000427f80:  a9bd7bfd      stp x29, x30, [sp, #-48]!
0x0000000000427f84:  d2a00000      movz x0, #0x0
0x0000000000427f88:  f2800a00      movk x0, #0x50
0x0000000000427f8c:  910003fd      mov x29, sp
0x0000000000427f90:  f90013f5      str x21, [sp, #32]
0x0000000000427f94:  d53bd055      mrs x21, (unknown)
0x0000000000427f98:  a90153f3      stp x19, x20, [sp, #16]
0x0000000000427f9c:  f8606ab3      ldr x19, [x21, x0]
0x0000000000427fa0:  b4000353      cbz x19, #+0x68 (addr 0x428008)

----------------
IN: tcache_init.part.0
0x0000000000427fa4:  aa1303e2      mov x2, x19
0x0000000000427fa8:  52800021      mov w1, #0x1
0x0000000000427fac:  52800000      mov w0, #0x0
0x0000000000427fb0:  9400f0bc      bl #+0x3c2f0 (addr 0x4642a0)

----------------
IN: __aarch64_cas4_acq
0x00000000004642a0:  d503245f      unallocated (Unallocated)
0x00000000004642a4:  d0000250      adrp x16, #+0x4a000 (addr 0x4ae000)
0x00000000004642a8:  39546210      ldrb w16, [x16, #1304]
0x00000000004642ac:  34000070      cbz w16, #+0xc (addr 0x4642b8)

----------------
IN: __aarch64_cas4_acq
0x00000000004642b8:  2a0003f0      mov w16, w0
0x00000000004642bc:  885ffc40      ldaxr w0, [x2]
0x00000000004642c0:  6b10001f      cmp w0, w16
0x00000000004642c4:  54000061      b.ne #+0xc (addr 0x4642d0)

----------------
IN: __aarch64_cas4_acq
0x00000000004642c8:  88117c41      stxr w17, w1, [x2]
0x00000000004642cc:  35ffff91      cbnz w17, #-0x10 (addr 0x4642bc)

----------------
IN: __aarch64_cas4_acq
0x00000000004642d0:  d65f03c0      ret

----------------
IN: tcache_init.part.0
0x0000000000427fb4:  35000680      cbnz w0, #+0xd0 (addr 0x428084)

----------------
IN: tcache_init.part.0
0x0000000000427fb8:  aa1303e0      mov x0, x19
0x0000000000427fbc:  d2805001      mov x1, #0x280
0x0000000000427fc0:  97fffc44      bl #-0xef0 (addr 0x4270d0)

----------------
IN: _int_malloc
0x00000000004270d0:  a9b47bfd      stp x29, x30, [sp, #-192]!
0x00000000004270d4:  910003fd      mov x29, sp
0x00000000004270d8:  a9025bf5      stp x21, x22, [sp, #32]
0x00000000004270dc:  b7f83101      tbnz x1, #63, #+0x620 (addr 0x4276fc)

----------------
IN: _int_malloc
0x00000000004270e0:  a90153f3      stp x19, x20, [sp, #16]
0x00000000004270e4:  91005c33      add x19, x1, #0x17 (23)
0x00000000004270e8:  aa0003f4      mov x20, x0
0x00000000004270ec:  a90363f7      stp x23, x24, [sp, #48]
0x00000000004270f0:  aa0103f6      mov x22, x1
0x00000000004270f4:  a9046bf9      stp x25, x26, [sp, #64]
0x00000000004270f8:  f1007e7f      cmp x19, #0x1f (31)
0x00000000004270fc:  540008e8      b.hi #+0x11c (addr 0x427218)

----------------
IN: _int_malloc
0x0000000000427218:  927cee73      and x19, x19, #0xfffffffffffffff0
0x000000000042721c:  b4002860      cbz x0, #+0x50c (addr 0x427728)

----------------
IN: _int_malloc
0x0000000000427220:  d0000438      adrp x24, #+0x86000 (addr 0x4ad000)
0x0000000000427224:  913d6300      add x0, x24, #0xf58 (3928)
0x0000000000427228:  53047e79      lsr w25, w19, #4
0x000000000042722c:  f9400400      ldr x0, [x0, #8]
0x0000000000427230:  eb00027f      cmp x19, x0
0x0000000000427234:  540013e9      b.ls #+0x27c (addr 0x4274b0)

----------------
IN: _int_malloc
0x0000000000427238:  f10ffe7f      cmp x19, #0x3ff (1023)
0x000000000042723c:  540045c9      b.ls #+0x8b8 (addr 0x427af4)

----------------
IN: _int_malloc
0x0000000000427af4:  51000720      sub w0, w25, #0x1 (1)
0x0000000000427af8:  d37c7800      ubfiz x0, x0, #4, #31
0x0000000000427afc:  9101c000      add x0, x0, #0x70 (112)
0x0000000000427b00:  17fffd89      b #-0x9dc (addr 0x427124)

----------------
IN: _int_malloc
0x0000000000427124:  8b000280      add x0, x20, x0
0x0000000000427128:  d1004000      sub x0, x0, #0x10 (16)
0x000000000042712c:  f9400c15      ldr x21, [x0, #24]
0x0000000000427130:  eb15001f      cmp x0, x21
0x0000000000427134:  54001d60      b.eq #+0x3ac (addr 0x4274e0)

----------------
IN: _int_malloc
0x00000000004274e0:  d346fe66      lsr x6, x19, #6
0x00000000004274e4:  d349fe67      lsr x7, x19, #9
0x00000000004274e8:  1100c0c0      add w0, w6, #0x30 (48)
0x00000000004274ec:  b90083e0      str w0, [sp, #128]
0x00000000004274f0:  11016ce0      add w0, w7, #0x5b (91)
0x00000000004274f4:  b900afe0      str w0, [sp, #172]
0x00000000004274f8:  52800dc0      mov w0, #0x6e
0x00000000004274fc:  b900abe0      str w0, [sp, #168]
0x0000000000427500:  52800ee0      mov w0, #0x77
0x0000000000427504:  d280000d      mov x13, #0x0
0x0000000000427508:  d280000f      mov x15, #0x0
0x000000000042750c:  a90573fb      stp x27, x28, [sp, #80]
0x0000000000427510:  b9006bf9      str w25, [sp, #104]
0x0000000000427514:  b900a7e0      str w0, [sp, #164]
0x0000000000427518:  52800f80      mov w0, #0x7c
0x000000000042751c:  b900a3e0      str w0, [sp, #160]
0x0000000000427520:  d53bd057      mrs x23, (unknown)
0x0000000000427524:  d100467a      sub x26, x19, #0x11 (17)
0x0000000000427528:  914002e0      add x0, x23, #0x0 (0)
0x000000000042752c:  91014000      add x0, x0, #0x50 (80)
0x0000000000427530:  d280000e      mov x14, #0x0
0x0000000000427534:  d344ff5a      lsr x26, x26, #4
0x0000000000427538:  f9400400      ldr x0, [x0, #8]
0x000000000042753c:  b40000a0      cbz x0, #+0x14 (addr 0x427550)

----------------
IN: _int_malloc
0x0000000000427550:  9000041c      adrp x28, #+0x80000 (addr 0x4a7000)
0x0000000000427554:  9101829b      add x27, x20, #0x60 (96)
0x0000000000427558:  9117839c      add x28, x28, #0x5e0 (1504)
0x000000000042755c:  90000400      adrp x0, #+0x80000 (addr 0x4a7000)
0x0000000000427560:  d2800012      mov x18, #0x0
0x0000000000427564:  9119e000      add x0, x0, #0x678 (1656)
0x0000000000427568:  a9071be0      stp x0, x6, [sp, #112]
0x000000000042756c:  a908b7e7      stp x7, x13, [sp, #136]
0x0000000000427570:  f9004fef      str x15, [sp, #152]
0x0000000000427574:  f9400f62      ldr x2, [x27, #24]
0x0000000000427578:  eb1b005f      cmp x2, x27
0x000000000042757c:  54001640      b.eq #+0x2c8 (addr 0x427844)

----------------
IN: _int_malloc
0x0000000000427844:  f10ffe7f      cmp x19, #0x3ff (1023)
0x0000000000427848:  54000169      b.ls #+0x2c (addr 0x427874)

----------------
IN: _int_malloc
0x0000000000427874:  b9406be0      ldr w0, [sp, #104]
0x0000000000427878:  928001e8      mov x8, #0xfffffffffffffff0
0x000000000042787c:  11000402      add w2, w0, #0x1 (1)
0x0000000000427880:  531f7801      lsl w1, w0, #1
0x0000000000427884:  52800020      mov w0, #0x1
0x0000000000427888:  53057c44      lsr w4, w2, #5
0x000000000042788c:  11003821      add w1, w1, #0xe (14)
0x0000000000427890:  91086085      add x5, x4, #0x218 (536)
0x0000000000427894:  53057c43      lsr w3, w2, #5
0x0000000000427898:  8b214d01      add x1, x8, w1, uxtw #3
0x000000000042789c:  1ac22000      lsl w0, w0, w2
0x00000000004278a0:  8b010281      add x1, x20, x1
0x00000000004278a4:  b8657a82      ldr w2, [x20, x5, lsl #2]
0x00000000004278a8:  7100001f      cmp w0, #0x0 (0)
0x00000000004278ac:  7a421002      ccmp w0, w2, #nzCv, ne
0x00000000004278b0:  540000a9      b.ls #+0x14 (addr 0x4278c4)

----------------
IN: _int_malloc
0x00000000004278b4:  14000023      b #+0x8c (addr 0x427940)

----------------
IN: _int_malloc
0x0000000000427940:  11000463      add w3, w3, #0x1 (1)
0x0000000000427944:  7100107f      cmp w3, #0x4 (4)
0x0000000000427948:  54ffff41      b.ne #-0x18 (addr 0x427930)

----------------
IN: _int_malloc
0x0000000000427930:  2a0303e4      mov w4, w3
0x0000000000427934:  91086080      add x0, x4, #0x218 (536)
0x0000000000427938:  b8607a82      ldr w2, [x20, x0, lsl #2]
0x000000000042793c:  35001922      cbnz w2, #+0x324 (addr 0x427c60)

----------------
IN: _int_malloc
0x000000000042794c:  f9403281      ldr x1, [x20, #96]
0x0000000000427950:  f9444682      ldr x2, [x20, #2184]
0x0000000000427954:  f9400420      ldr x0, [x1, #8]
0x0000000000427958:  927df000      and x0, x0, #0xfffffffffffffff8
0x000000000042795c:  eb00005f      cmp x2, x0
0x0000000000427960:  54001a63      b.lo #+0x34c (addr 0x427cac)

----------------
IN: _int_malloc
0x0000000000427964:  91008262      add x2, x19, #0x20 (32)
0x0000000000427968:  eb00005f      cmp x2, x0
0x000000000042796c:  540021a9      b.ls #+0x434 (addr 0x427da0)

----------------
IN: _int_malloc
0x0000000000427970:  91002280      add x0, x20, #0x8 (8)
0x0000000000427974:  a90b3bf2      stp x18, x14, [sp, #176]
0x0000000000427978:  b9400000      ldr w0, [x0]
0x000000000042797c:  34002320      cbz w0, #+0x464 (addr 0x427de0)

----------------
IN: _int_malloc
0x0000000000427de0:  aa1403e1      mov x1, x20
0x0000000000427de4:  aa1303e0      mov x0, x19
0x0000000000427de8:  97fffab7      bl #-0x1524 (addr 0x4268c4)

----------------
IN: sysmalloc
0x00000000004268c4:  a9b77bfd      stp x29, x30, [sp, #-144]!
0x00000000004268c8:  910003fd      mov x29, sp
0x00000000004268cc:  a90153f3      stp x19, x20, [sp, #16]
0x00000000004268d0:  90000414      adrp x20, #+0x80000 (addr 0x4a6000)
0x00000000004268d4:  aa0103f3      mov x19, x1
0x00000000004268d8:  f945de82      ldr x2, [x20, #3000]
0x00000000004268dc:  a9025bf5      stp x21, x22, [sp, #32]
0x00000000004268e0:  aa0003f5      mov x21, x0
0x00000000004268e4:  a9046bf9      stp x25, x26, [sp, #64]
0x00000000004268e8:  a90573fb      stp x27, x28, [sp, #80]
0x00000000004268ec:  b000041b      adrp x27, #+0x81000 (addr 0x4a7000)
0x00000000004268f0:  f947da80      ldr x0, [x20, #4016]
0x00000000004268f4:  f9400041      ldr x1, [x2]
0x00000000004268f8:  f90047e1      str x1, [sp, #136]
0x00000000004268fc:  d2800001      mov x1, #0x0
0x0000000000426900:  f940001a      ldr x26, [x0]
0x0000000000426904:  b4000a73      cbz x19, #+0x14c (addr 0x426a50)

----------------
IN: sysmalloc
0x0000000000426908:  91178360      add x0, x27, #0x5e0 (1504)
0x000000000042690c:  f9400801      ldr x1, [x0, #16]
0x0000000000426910:  eb15003f      cmp x1, x21
0x0000000000426914:  54000989      b.ls #+0x130 (addr 0x426a44)

----------------
IN: sysmalloc
0x0000000000426918:  a90363f7      stp x23, x24, [sp, #48]
0x000000000042691c:  b90063ff      str wzr, [sp, #96]
0x0000000000426920:  aa1303e0      mov x0, x19
0x0000000000426924:  f8460c17      ldr x23, [x0, #96]!
0x0000000000426928:  f94006e1      ldr x1, [x23, #8]
0x000000000042692c:  f27df036      ands x22, x1, #0xfffffffffffffff8
0x0000000000426930:  8b1602f9      add x25, x23, x22
0x0000000000426934:  fa570000      ccmp x0, x23, #nzcv, eq
0x0000000000426938:  540000e0      b.eq #+0x1c (addr 0x426954)

----------------
IN: sysmalloc
0x0000000000426954:  910082a6      add x6, x21, #0x20 (32)
0x0000000000426958:  eb1600df      cmp x6, x22
0x000000000042695c:  54003789      b.ls #+0x6f0 (addr 0x42704c)

----------------
IN: sysmalloc
0x0000000000426960:  b000041c      adrp x28, #+0x81000 (addr 0x4a7000)
0x0000000000426964:  9119e380      add x0, x28, #0x678 (1656)
0x0000000000426968:  eb00027f      cmp x19, x0
0x000000000042696c:  54000f60      b.eq #+0x1ec (addr 0x426b58)

----------------
IN: sysmalloc
0x0000000000426b58:  91178360      add x0, x27, #0x5e0 (1504)
0x0000000000426b5c:  b9400662      ldr w2, [x19, #4]
0x0000000000426b60:  f9400401      ldr x1, [x0, #8]
0x0000000000426b64:  f27f005f      tst x2, #0x2
0x0000000000426b68:  f9401400      ldr x0, [x0, #40]
0x0000000000426b6c:  91008021      add x1, x1, #0x20 (32)
0x0000000000426b70:  8b150021      add x1, x1, x21
0x0000000000426b74:  cb160022      sub x2, x1, x22
0x0000000000426b78:  d1000404      sub x4, x0, #0x1 (1)
0x0000000000426b7c:  9a810041      csel x1, x2, x1, eq
0x0000000000426b80:  b5001c80      cbnz x0, #+0x390 (addr 0x426f10)

----------------
IN: sysmalloc
0x0000000000426b84:  f947da80      ldr x0, [x20, #4016]
0x0000000000426b88:  f9400002      ldr x2, [x0]
0x0000000000426b8c:  d1000440      sub x0, x2, #0x1 (1)
0x0000000000426b90:  cb0203e2      neg x2, x2
0x0000000000426b94:  8b010000      add x0, x0, x1
0x0000000000426b98:  8a020000      and x0, x0, x2
0x0000000000426b9c:  f90043e0      str x0, [sp, #128]
0x0000000000426ba0:  f100001f      cmp x0, #0x0 (0)
0x0000000000426ba4:  54000a8c      b.gt #+0x150 (addr 0x426cf4)

----------------
IN: sysmalloc
0x0000000000426cf4:  f0000421      adrp x1, #+0x87000 (addr 0x4ad000)
0x0000000000426cf8:  397de021      ldrb w1, [x1, #3960]
0x0000000000426cfc:  35fff561      cbnz w1, #-0x154 (addr 0x426ba8)

----------------
IN: sysmalloc
0x0000000000426d00:  f90033e6      str x6, [sp, #96]
0x0000000000426d04:  940025e7      bl #+0x979c (addr 0x4304a0)

----------------
IN: sysmalloc
0x0000000000426d08:  aa0003f8      mov x24, x0
0x0000000000426d0c:  d1000400      sub x0, x0, #0x1 (1)
0x0000000000426d10:  b1000c1f      cmn x0, #0x3 (3)
0x0000000000426d14:  f94033e6      ldr x6, [sp, #96]
0x0000000000426d18:  54fff488      b.hi #-0x170 (addr 0x426ba8)

----------------
IN: sysmalloc
0x0000000000426d1c:  91178360      add x0, x27, #0x5e0 (1504)
0x0000000000426d20:  52800023      mov w3, #0x1
0x0000000000426d24:  f94043e1      ldr x1, [sp, #128]
0x0000000000426d28:  d2800005      mov x5, #0x0
0x0000000000426d2c:  f9401400      ldr x0, [x0, #40]
0x0000000000426d30:  d1000400      sub x0, x0, #0x1 (1)
0x0000000000426d34:  eb00003f      cmp x1, x0
0x0000000000426d38:  54fff609      b.ls #-0x140 (addr 0x426bf8)

----------------
IN: sysmalloc
0x0000000000426bf8:  91178362      add x2, x27, #0x5e0 (1504)
0x0000000000426bfc:  f9403044      ldr x4, [x2, #96]
0x0000000000426c00:  b4001724      cbz x4, #+0x2e4 (addr 0x426ee4)

----------------
IN: sysmalloc
0x0000000000426ee4:  f9003058      str x24, [x2, #96]
0x0000000000426ee8:  17ffff47      b #-0x2e4 (addr 0x426c04)

----------------
IN: sysmalloc
0x0000000000426c04:  9119e382      add x2, x28, #0x678 (1656)
0x0000000000426c08:  7100007f      cmp w3, #0x0 (0)
0x0000000000426c0c:  fa581320      ccmp x25, x24, #nzcv, ne
0x0000000000426c10:  f9444443      ldr x3, [x2, #2184]
0x0000000000426c14:  8b030023      add x3, x1, x3
0x0000000000426c18:  f9044443      str x3, [x2, #2184]
0x0000000000426c1c:  54000c61      b.ne #+0x18c (addr 0x426da8)

----------------
IN: sysmalloc
0x0000000000426da8:  b9400440      ldr w0, [x2, #4]
0x0000000000426dac:  370805e0      tbnz w0, #1, #+0xbc (addr 0x426e68)

----------------
IN: sysmalloc
0x0000000000426db0:  f10002df      cmp x22, #0x0 (0)
0x0000000000426db4:  fa581320      ccmp x25, x24, #nzcv, ne
0x0000000000426db8:  540015a8      b.hi #+0x2b4 (addr 0x42706c)

----------------
IN: sysmalloc
0x0000000000426dbc:  b4000096      cbz x22, #+0x10 (addr 0x426dcc)

----------------
IN: sysmalloc
0x0000000000426dcc:  f2400f02      ands x2, x24, #0xf
0x0000000000426dd0:  54000b00      b.eq #+0x160 (addr 0x426f30)

----------------
IN: sysmalloc
0x0000000000426dd4:  d2800200      mov x0, #0x10
0x0000000000426dd8:  cb020000      sub x0, x0, x2
0x0000000000426ddc:  8b000319      add x25, x24, x0
0x0000000000426de0:  8b160000      add x0, x0, x22
0x0000000000426de4:  8b010001      add x1, x0, x1
0x0000000000426de8:  d1000744      sub x4, x26, #0x1 (1)
0x0000000000426dec:  8b010301      add x1, x24, x1
0x0000000000426df0:  cb1a03e7      neg x7, x26
0x0000000000426df4:  8b010084      add x4, x4, x1
0x0000000000426df8:  cb010000      sub x0, x0, x1
0x0000000000426dfc:  8a070084      and x4, x4, x7
0x0000000000426e00:  ab00009a      adds x26, x4, x0
0x0000000000426e04:  540013a4      b.mi #+0x274 (addr 0x427078)

----------------
IN: sysmalloc
0x0000000000426e08:  f0000438      adrp x24, #+0x87000 (addr 0x4ad000)
0x0000000000426e0c:  913d6318      add x24, x24, #0xf58 (3928)
0x0000000000426e10:  39408300      ldrb w0, [x24, #32]
0x0000000000426e14:  35fff480      cbnz w0, #-0x170 (addr 0x426ca4)

----------------
IN: sysmalloc
0x0000000000426e18:  aa1a03e0      mov x0, x26
0x0000000000426e1c:  f90033e6      str x6, [sp, #96]
0x0000000000426e20:  940025a0      bl #+0x9680 (addr 0x4304a0)

----------------
IN: sysmalloc
0x0000000000426e24:  aa0003e5      mov x5, x0
0x0000000000426e28:  d1000400      sub x0, x0, #0x1 (1)
0x0000000000426e2c:  b1000c1f      cmn x0, #0x3 (3)
0x0000000000426e30:  f94033e6      ldr x6, [sp, #96]
0x0000000000426e34:  54000ac8      b.hi #+0x158 (addr 0x426f8c)

----------------
IN: sysmalloc
0x0000000000426e38:  9117837b      add x27, x27, #0x5e0 (1504)
0x0000000000426e3c:  f9401760      ldr x0, [x27, #40]
0x0000000000426e40:  d1000400      sub x0, x0, #0x1 (1)
0x0000000000426e44:  eb00035f      cmp x26, x0
0x0000000000426e48:  54000828      b.hi #+0x104 (addr 0x426f4c)

----------------
IN: sysmalloc
0x0000000000426e4c:  9119e380      add x0, x28, #0x678 (1656)
0x0000000000426e50:  aa1903f8      mov x24, x25
0x0000000000426e54:  f9444403      ldr x3, [x0, #2184]
0x0000000000426e58:  8b030343      add x3, x26, x3
0x0000000000426e5c:  14000007      b #+0x1c (addr 0x426e78)

----------------
IN: sysmalloc
0x0000000000426e78:  9119e399      add x25, x28, #0x678 (1656)
0x0000000000426e7c:  cb1800a1      sub x1, x5, x24
0x0000000000426e80:  8b1a0021      add x1, x1, x26
0x0000000000426e84:  b2400021      orr x1, x1, #0x1
0x0000000000426e88:  f9003338      str x24, [x25, #96]
0x0000000000426e8c:  f9000701      str x1, [x24, #8]
0x0000000000426e90:  f9044723      str x3, [x25, #2184]
0x0000000000426e94:  b4ffdad6      cbz x22, #-0x4a8 (addr 0x4269ec)

----------------
IN: sysmalloc
0x00000000004269ec:  f9444a60      ldr x0, [x19, #2192]
0x00000000004269f0:  eb03001f      cmp x0, x3
0x00000000004269f4:  54000042      b.hs #+0x8 (addr 0x4269fc)

----------------
IN: sysmalloc
0x00000000004269f8:  f9044a63      str x3, [x19, #2192]
0x00000000004269fc:  f9400700      ldr x0, [x24, #8]
0x0000000000426a00:  927df000      and x0, x0, #0xfffffffffffffff8
0x0000000000426a04:  eb0000df      cmp x6, x0
0x0000000000426a08:  54000988      b.hi #+0x130 (addr 0x426b38)

----------------
IN: sysmalloc
0x0000000000426a0c:  9119e39c      add x28, x28, #0x678 (1656)
0x0000000000426a10:  8b150303      add x3, x24, x21
0x0000000000426a14:  eb1c027f      cmp x19, x28
0x0000000000426a18:  f9003263      str x3, [x19, #96]
0x0000000000426a1c:  9a9f07e2      cset x2, ne
0x0000000000426a20:  cb150000      sub x0, x0, x21
0x0000000000426a24:  b2400001      orr x1, x0, #0x1
0x0000000000426a28:  91004300      add x0, x24, #0x10 (16)
0x0000000000426a2c:  aa020aa2      orr x2, x21, x2, lsl #2
0x0000000000426a30:  b2400042      orr x2, x2, #0x1
0x0000000000426a34:  f9000702      str x2, [x24, #8]
0x0000000000426a38:  a94363f7      ldp x23, x24, [sp, #48]
0x0000000000426a3c:  f9000461      str x1, [x3, #8]
0x0000000000426a40:  1400000f      b #+0x3c (addr 0x426a7c)

----------------
IN: sysmalloc
0x0000000000426a7c:  f945de94      ldr x20, [x20, #3000]
0x0000000000426a80:  f94047e1      ldr x1, [sp, #136]
0x0000000000426a84:  f9400282      ldr x2, [x20]
0x0000000000426a88:  eb020021      subs x1, x1, x2
0x0000000000426a8c:  d2800002      mov x2, #0x0
0x0000000000426a90:  54002da1      b.ne #+0x5b4 (addr 0x427044)

----------------
IN: sysmalloc
0x0000000000426a94:  a94153f3      ldp x19, x20, [sp, #16]
0x0000000000426a98:  a9425bf5      ldp x21, x22, [sp, #32]
0x0000000000426a9c:  a9446bf9      ldp x25, x26, [sp, #64]
0x0000000000426aa0:  a94573fb      ldp x27, x28, [sp, #80]
0x0000000000426aa4:  a8c97bfd      ldp x29, x30, [sp], #144
0x0000000000426aa8:  d65f03c0      ret

----------------
IN: _int_malloc
0x0000000000427dec:  aa0003f5      mov x21, x0
0x0000000000427df0:  b4ffc760      cbz x0, #-0x714 (addr 0x4276dc)

----------------
IN: _int_malloc
0x0000000000427df4:  aa1603e1      mov x1, x22
0x0000000000427df8:  17ffff1b      b #-0x394 (addr 0x427a64)

----------------
IN: _int_malloc
0x0000000000427a64:  97fff377      bl #-0x3224 (addr 0x424840)

----------------
IN: alloc_perturb
0x0000000000424840:  b0000442      adrp x2, #+0x89000 (addr 0x4ad000)
0x0000000000424844:  b94f5843      ldr w3, [x2, #3928]
0x0000000000424848:  35000043      cbnz w3, #+0x8 (addr 0x424850)

----------------
IN: alloc_perturb
0x000000000042484c:  d65f03c0      ret

----------------
IN: _int_malloc
0x0000000000427a68:  a94153f3      ldp x19, x20, [sp, #16]
0x0000000000427a6c:  a94363f7      ldp x23, x24, [sp, #48]
0x0000000000427a70:  a9446bf9      ldp x25, x26, [sp, #64]
0x0000000000427a74:  a94573fb      ldp x27, x28, [sp, #80]
0x0000000000427a78:  17fffde4      b #-0x870 (addr 0x427208)

----------------
IN: _int_malloc
0x0000000000427208:  aa1503e0      mov x0, x21
0x000000000042720c:  a9425bf5      ldp x21, x22, [sp, #32]
0x0000000000427210:  a8cc7bfd      ldp x29, x30, [sp], #192
0x0000000000427214:  d65f03c0      ret

----------------
IN: tcache_init.part.0
0x0000000000427fc4:  aa0003f4      mov x20, x0
0x0000000000427fc8:  b4000340      cbz x0, #+0x68 (addr 0x428030)

----------------
IN: tcache_init.part.0
0x0000000000427fcc:  aa1303e1      mov x1, x19
0x0000000000427fd0:  52800000      mov w0, #0x0
0x0000000000427fd4:  9400f147      bl #+0x3c51c (addr 0x4644f0)

----------------
IN: __aarch64_swp4_rel
0x00000000004644f0:  d503245f      unallocated (Unallocated)
0x00000000004644f4:  d0000250      adrp x16, #+0x4a000 (addr 0x4ae000)
0x00000000004644f8:  39546210      ldrb w16, [x16, #1304]
0x00000000004644fc:  34000070      cbz w16, #+0xc (addr 0x464508)

----------------
IN: __aarch64_swp4_rel
0x0000000000464508:  2a0003f0      mov w16, w0
0x000000000046450c:  885f7c20      ldxr w0, [x1]
0x0000000000464510:  8811fc30      stlxr w17, w16, [x1]
0x0000000000464514:  35ffffd1      cbnz w17, #-0x8 (addr 0x46450c)

----------------
IN: __aarch64_swp4_rel
0x0000000000464518:  d65f03c0      ret

----------------
IN: tcache_init.part.0
0x0000000000427fd8:  7100041f      cmp w0, #0x1 (1)
0x0000000000427fdc:  540004ec      b.gt #+0x9c (addr 0x428078)

----------------
IN: tcache_init.part.0
0x0000000000427fe0:  914002b5      add x21, x21, #0x0 (0)
0x0000000000427fe4:  910142b5      add x21, x21, #0x50 (80)
0x0000000000427fe8:  aa1403e0      mov x0, x20
0x0000000000427fec:  d2805002      mov x2, #0x280
0x0000000000427ff0:  52800001      mov w1, #0x0
0x0000000000427ff4:  f90006b4      str x20, [x21, #8]
0x0000000000427ff8:  a94153f3      ldp x19, x20, [sp, #16]
0x0000000000427ffc:  f94013f5      ldr x21, [sp, #32]

----------------
IN: tcache_init.part.0
0x0000000000428000:  a8c37bfd      ldp x29, x30, [sp], #48
0x0000000000428004:  17ff60b3      b #-0x27d34 (addr 0x4002d0)

----------------
IN: 
0x00000000004002d0:  f0000530      adrp x16, #+0xa7000 (addr 0x4a7000)
0x00000000004002d4:  f9400e11      ldr x17, [x16, #24]
0x00000000004002d8:  91006210      add x16, x16, #0x18 (24)
0x00000000004002dc:  d61f0220      br x17

----------------
IN: __memset_generic
0x000000000042d100:  d503201f      nop
0x000000000042d104:  4e010c20      dup v0.16b, w1
0x000000000042d108:  8b020004      add x4, x0, x2
0x000000000042d10c:  f101805f      cmp x2, #0x60 (96)
0x000000000042d110:  54000428      b.hi #+0x84 (addr 0x42d194)

----------------
IN: __memset_generic
0x000000000042d194:  12001c21      and w1, w1, #0xff
0x000000000042d198:  927cec03      and x3, x0, #0xfffffffffffffff0
0x000000000042d19c:  3d800000      str q0, [x0]
0x000000000042d1a0:  f104005f      cmp x2, #0x100 (256)
0x000000000042d1a4:  7a402820      ccmp w1, #0, #nzcv, hs
0x000000000042d1a8:  54000160      b.eq #+0x2c (addr 0x42d1d4)

----------------
IN: __memset_generic
0x000000000042d1d4:  d503201f      nop
0x000000000042d1d8:  d53b00e5      mrs x5, (unknown)
0x000000000042d1dc:  3727fe85      tbnz w5, #4, #-0x30 (addr 0x42d1ac)

----------------
IN: __memset_generic
0x000000000042d1e0:  12000ca5      and w5, w5, #0xf
0x000000000042d1e4:  710010bf      cmp w5, #0x4 (4)
0x000000000042d1e8:  54000281      b.ne #+0x50 (addr 0x42d238)

----------------
IN: __memset_generic
0x000000000042d238:  710014bf      cmp w5, #0x5 (5)
0x000000000042d23c:  54000241      b.ne #+0x48 (addr 0x42d284)

----------------
IN: __memset_generic
0x000000000042d284:  52800086      mov w6, #0x4
0x000000000042d288:  1ac520c7      lsl w7, w6, w5
0x000000000042d28c:  910100e5      add x5, x7, #0x40 (64)
0x000000000042d290:  eb05005f      cmp x2, x5
0x000000000042d294:  54fff8c3      b.lo #-0xe8 (addr 0x42d1ac)

----------------
IN: __memset_generic
0x000000000042d298:  d10004e6      sub x6, x7, #0x1 (1)
0x000000000042d29c:  8b070065      add x5, x3, x7
0x000000000042d2a0:  91004063      add x3, x3, #0x10 (16)
0x000000000042d2a4:  eb0300a2      subs x2, x5, x3
0x000000000042d2a8:  8a2600a5      bic x5, x5, x6
0x000000000042d2ac:  540000a0      b.eq #+0x14 (addr 0x42d2c0)

----------------
IN: __memset_generic
0x000000000042d2b0:  ac820060      stp q0, q0, [x3], #64
0x000000000042d2b4:  ad3f0060      stp q0, q0, [x3, #-32]
0x000000000042d2b8:  f1010042      subs x2, x2, #0x40 (64)
0x000000000042d2bc:  54ffffa8      b.hi #-0xc (addr 0x42d2b0)

----------------
IN: __memset_generic
0x000000000042d2c0:  aa0503e3      mov x3, x5
0x000000000042d2c4:  cb050082      sub x2, x4, x5
0x000000000042d2c8:  eb070042      subs x2, x2, x7
0x000000000042d2cc:  540000a3      b.lo #+0x14 (addr 0x42d2e0)

----------------
IN: __memset_generic
0x000000000042d2d0:  d50b7423      dc zva, x3
0x000000000042d2d4:  8b070063      add x3, x3, x7
0x000000000042d2d8:  eb070042      subs x2, x2, x7
0x000000000042d2dc:  54ffffa2      b.hs #-0xc (addr 0x42d2d0)

----------------
IN: __memset_generic
0x000000000042d2e0:  8b070042      add x2, x2, x7
0x000000000042d2e4:  d1008063      sub x3, x3, #0x20 (32)
0x000000000042d2e8:  17ffffb6      b #-0x128 (addr 0x42d1c0)

----------------
IN: __memset_generic
0x000000000042d1c0:  f1010042      subs x2, x2, #0x40 (64)
0x000000000042d1c4:  54ffffa8      b.hi #-0xc (addr 0x42d1b8)

----------------
IN: __memset_generic
0x000000000042d1c8:  ad3e0080      stp q0, q0, [x4, #-64]
0x000000000042d1cc:  ad3f0080      stp q0, q0, [x4, #-32]
0x000000000042d1d0:  d65f03c0      ret

----------------
IN: __malloc
0x0000000000428824:  f00003e0      adrp x0, #+0x7f000 (addr 0x4a7000)
0x0000000000428828:  f9432400      ldr x0, [x0, #1608]
0x000000000042882c:  eb13001f      cmp x0, x19
0x0000000000428830:  54fff889      b.ls #-0xf0 (addr 0x428740)

----------------
IN: __malloc
0x0000000000428834:  f94006c0      ldr x0, [x22, #8]
0x0000000000428838:  b4fff840      cbz x0, #-0xf8 (addr 0x428740)

----------------
IN: __malloc
0x000000000042883c:  d503201f      nop
0x0000000000428840:  d37ffa61      lsl x1, x19, #1
0x0000000000428844:  8b010002      add x2, x0, x1
0x0000000000428848:  78616801      ldrh w1, [x0, x1]
0x000000000042884c:  34fff7a1      cbz w1, #-0x10c (addr 0x428740)

----------------
IN: __malloc
0x0000000000428740:  d11f02a0      sub x0, x21, #0x7c0 (1984)
0x0000000000428744:  b9400000      ldr w0, [x0]
0x0000000000428748:  34000a20      cbz w0, #+0x144 (addr 0x42888c)

----------------
IN: __malloc
0x000000000042888c:  f00003f3      adrp x19, #+0x7f000 (addr 0x4a7000)
0x0000000000428890:  9119e273      add x19, x19, #0x678 (1656)
0x0000000000428894:  aa1403e1      mov x1, x20
0x0000000000428898:  aa1303e0      mov x0, x19
0x000000000042889c:  97fffa0d      bl #-0x17cc (addr 0x4270d0)

----------------
IN: _int_malloc
0x00000000004274b0:  51000b3a      sub w26, w25, #0x2 (2)
0x00000000004274b4:  a90573fb      stp x27, x28, [sp, #80]
0x00000000004274b8:  91000b42      add x2, x26, #0x2 (2)
0x00000000004274bc:  8b1a0e9a      add x26, x20, x26, lsl #3
0x00000000004274c0:  d37df042      lsl x2, x2, #3
0x00000000004274c4:  f9400b5c      ldr x28, [x26, #16]
0x00000000004274c8:  b5fff19c      cbnz x28, #-0x1d0 (addr 0x4272f8)

----------------
IN: _int_malloc
0x00000000004274cc:  531f7b20      lsl w0, w25, #1
0x00000000004274d0:  11003000      add w0, w0, #0xc (12)
0x00000000004274d4:  a94573fb      ldp x27, x28, [sp, #80]
0x00000000004274d8:  d37df000      lsl x0, x0, #3
0x00000000004274dc:  17ffff12      b #-0x3b8 (addr 0x427124)

----------------
IN: _int_malloc
0x0000000000427540:  90000400      adrp x0, #+0x80000 (addr 0x4a7000)
0x0000000000427544:  f9432400      ldr x0, [x0, #1608]
0x0000000000427548:  eb1a001f      cmp x0, x26
0x000000000042754c:  9a9f826e      csel x14, x19, xzr, hi
0x0000000000427550:  9000041c      adrp x28, #+0x80000 (addr 0x4a7000)
0x0000000000427554:  9101829b      add x27, x20, #0x60 (96)
0x0000000000427558:  9117839c      add x28, x28, #0x5e0 (1504)
0x000000000042755c:  90000400      adrp x0, #+0x80000 (addr 0x4a7000)
0x0000000000427560:  d2800012      mov x18, #0x0
0x0000000000427564:  9119e000      add x0, x0, #0x678 (1656)
0x0000000000427568:  a9071be0      stp x0, x6, [sp, #112]
0x000000000042756c:  a908b7e7      stp x7, x13, [sp, #136]
0x0000000000427570:  f9004fef      str x15, [sp, #152]
0x0000000000427574:  f9400f62      ldr x2, [x27, #24]
0x0000000000427578:  eb1b005f      cmp x2, x27
0x000000000042757c:  54001640      b.eq #+0x2c8 (addr 0x427844)

----------------
IN: _int_malloc
0x0000000000427da0:  90000402      adrp x2, #+0x80000 (addr 0x4a7000)
0x0000000000427da4:  9119e042      add x2, x2, #0x678 (1656)
0x0000000000427da8:  eb02029f      cmp x20, x2
0x0000000000427dac:  8b130023      add x3, x1, x19
0x0000000000427db0:  9a9f07e2      cset x2, ne
0x0000000000427db4:  cb130000      sub x0, x0, x19
0x0000000000427db8:  f9003283      str x3, [x20, #96]
0x0000000000427dbc:  91004035      add x21, x1, #0x10 (16)
0x0000000000427dc0:  aa020a62      orr x2, x19, x2, lsl #2
0x0000000000427dc4:  b2400000      orr x0, x0, #0x1
0x0000000000427dc8:  b2400042      orr x2, x2, #0x1
0x0000000000427dcc:  f9000422      str x2, [x1, #8]
0x0000000000427dd0:  aa1603e1      mov x1, x22
0x0000000000427dd4:  f9000460      str x0, [x3, #8]
0x0000000000427dd8:  aa1503e0      mov x0, x21
0x0000000000427ddc:  17ffff22      b #-0x378 (addr 0x427a64)

----------------
IN: __malloc
0x00000000004288a0:  aa0003f5      mov x21, x0
0x00000000004288a4:  b4000540      cbz x0, #+0xa8 (addr 0x42894c)

----------------
IN: __malloc
0x00000000004288a8:  f85f82a1      ldur x1, [x21, #-8]
0x00000000004288ac:  d1004000      sub x0, x0, #0x10 (16)
0x00000000004288b0:  370ff901      tbnz w1, #1, #-0xe0 (addr 0x4287d0)

----------------
IN: __malloc
0x00000000004288b4:  3617f8e1      tbz w1, #2, #-0xe4 (addr 0x4287d0)

----------------
IN: __malloc
0x00000000004287d0:  aa1503e0      mov x0, x21
0x00000000004287d4:  a94153f3      ldp x19, x20, [sp, #16]
0x00000000004287d8:  a9425bf5      ldp x21, x22, [sp, #32]
0x00000000004287dc:  a8c37bfd      ldp x29, x30, [sp], #48
0x00000000004287e0:  d65f03c0      ret

----------------
IN: _dl_get_origin
0x0000000000458b78:  aa0003f4      mov x20, x0
0x0000000000458b7c:  b4fffe80      cbz x0, #-0x30 (addr 0x458b4c)

----------------
IN: _dl_get_origin
0x0000000000458b80:  aa1303e1      mov x1, x19
0x0000000000458b84:  93407ea2      sxtw x2, w21
0x0000000000458b88:  97fe9dca      bl #-0x588d8 (addr 0x4002b0)

----------------
IN: __memcpy_generic
0x000000000042bd10:  a9401c26      ldp x6, x7, [x1]
0x000000000042bd14:  a9412428      ldp x8, x9, [x1, #16]
0x000000000042bd18:  a97e2c8a      ldp x10, x11, [x4, #-32]
0x000000000042bd1c:  a97f348c      ldp x12, x13, [x4, #-16]
0x000000000042bd20:  f101005f      cmp x2, #0x40 (64)
0x000000000042bd24:  540000e8      b.hi #+0x1c (addr 0x42bd40)

----------------
IN: __memcpy_generic
0x000000000042bd28:  a9001c06      stp x6, x7, [x0]
0x000000000042bd2c:  a9012408      stp x8, x9, [x0, #16]
0x000000000042bd30:  a93e2caa      stp x10, x11, [x5, #-32]
0x000000000042bd34:  a93f34ac      stp x12, x13, [x5, #-16]
0x000000000042bd38:  d65f03c0      ret

----------------
IN: _dl_get_origin
0x0000000000458b8c:  3835c81f      strb wzr, [x0, w21, sxtw]
0x0000000000458b90:  d282060c      mov x12, #0x1030
0x0000000000458b94:  aa1403e0      mov x0, x20
0x0000000000458b98:  a9407bfd      ldp x29, x30, [sp]
0x0000000000458b9c:  a94153f3      ldp x19, x20, [sp, #16]
0x0000000000458ba0:  f94013f5      ldr x21, [sp, #32]
0x0000000000458ba4:  8b2c63ff      add sp, sp, x12
0x0000000000458ba8:  d65f03c0      ret

----------------
IN: _dl_non_dynamic_init
0x0000000000433ed4:  91008282      add x2, x20, #0x20 (32)
0x0000000000433ed8:  910002a1      add x1, x21, #0x0 (0)
0x0000000000433edc:  aa0003e3      mov x3, x0
0x0000000000433ee0:  90000200      adrp x0, #+0x40000 (addr 0x473000)
0x0000000000433ee4:  912a2000      add x0, x0, #0xa88 (2696)
0x0000000000433ee8:  a9430844      ldp x4, x2, [x2, #48]
0x0000000000433eec:  f9016c22      str x2, [x1, #728]
0x0000000000433ef0:  7905d024      strh w4, [x1, #744]
0x0000000000433ef4:  f901bc23      str x3, [x1, #888]
0x0000000000433ef8:  97ff56be      bl #-0x2a508 (addr 0x4099f0)

----------------
IN: getenv
0x00000000004099f0:  a9bc7bfd      stp x29, x30, [sp, #-64]!
0x00000000004099f4:  b00004e1      adrp x1, #+0x9d000 (addr 0x4a6000)
0x00000000004099f8:  910003fd      mov x29, sp
0x00000000004099fc:  f9468021      ldr x1, [x1, #3328]
0x0000000000409a00:  a90153f3      stp x19, x20, [sp, #16]
0x0000000000409a04:  f9400034      ldr x20, [x1]
0x0000000000409a08:  b40007b4      cbz x20, #+0xf4 (addr 0x409afc)

----------------
IN: getenv
0x0000000000409a0c:  a9025bf5      stp x21, x22, [sp, #32]
0x0000000000409a10:  aa0003f5      mov x21, x0
0x0000000000409a14:  39400001      ldrb w1, [x0]
0x0000000000409a18:  340005a1      cbz w1, #+0xb4 (addr 0x409acc)

----------------
IN: getenv
0x0000000000409a1c:  39400402      ldrb w2, [x0, #1]
0x0000000000409a20:  35000222      cbnz w2, #+0x44 (addr 0x409a64)

----------------
IN: getenv
0x0000000000409a64:  a90363f7      stp x23, x24, [sp, #48]
0x0000000000409a68:  97ffda26      bl #-0x9768 (addr 0x400300)

----------------
IN: 
0x0000000000400300:  f0000530      adrp x16, #+0xa7000 (addr 0x4a7000)
0x0000000000400304:  f9401a11      ldr x17, [x16, #48]
0x0000000000400308:  9100c210      add x16, x16, #0x30 (48)
0x000000000040030c:  d61f0220      br x17

----------------
IN: __strlen_mte
0x000000000042da00:  d503201f      nop
0x000000000042da04:  927cec01      and x1, x0, #0xfffffffffffffff0
0x000000000042da08:  529e01e3      mov w3, #0xf00f
0x000000000042da0c:  4c407020      ld1 {v0.16b}, [x1]
0x000000000042da10:  4e020c62      dup v2.8h, w3
0x000000000042da14:  4e209801      cmeq v1.16b, v0.16b, #0
0x000000000042da18:  d37ef404      lsl x4, x0, #2
0x000000000042da1c:  4e221c21      and v1.16b, v1.16b, v2.16b
0x000000000042da20:  4e21bc23      addp v3.16b, v1.16b, v1.16b
0x000000000042da24:  9e660062      fmov x2, d3
0x000000000042da28:  9ac42442      lsr x2, x2, x4
0x000000000042da2c:  b40000a2      cbz x2, #+0x14 (addr 0x42da40)

----------------
IN: __strlen_mte
0x000000000042da30:  dac00042      rbit x2, x2
0x000000000042da34:  dac01040      clz x0, x2
0x000000000042da38:  d342fc00      lsr x0, x0, #2
0x000000000042da3c:  d65f03c0      ret

----------------
IN: getenv
0x0000000000409a6c:  784026b6      ldrh w22, [x21], #2
0x0000000000409a70:  f9400293      ldr x19, [x20]
0x0000000000409a74:  aa0003f7      mov x23, x0
0x0000000000409a78:  d1000818      sub x24, x0, #0x2 (2)
0x0000000000409a7c:  b5000093      cbnz x19, #+0x10 (addr 0x409a8c)

----------------
IN: getenv
0x0000000000409a8c:  79400263      ldrh w3, [x19]
0x0000000000409a90:  6b16007f      cmp w3, w22
0x0000000000409a94:  54ffff81      b.ne #-0x10 (addr 0x409a84)

----------------
IN: getenv
0x0000000000409a84:  f8408e93      ldr x19, [x20, #8]!
0x0000000000409a88:  b40002f3      cbz x19, #+0x5c (addr 0x409ae4)

----------------
IN: getenv
0x0000000000409ae4:  aa1303e0      mov x0, x19
0x0000000000409ae8:  a94153f3      ldp x19, x20, [sp, #16]
0x0000000000409aec:  a9425bf5      ldp x21, x22, [sp, #32]
0x0000000000409af0:  a94363f7      ldp x23, x24, [sp, #48]
0x0000000000409af4:  a8c47bfd      ldp x29, x30, [sp], #64
0x0000000000409af8:  d65f03c0      ret

----------------
IN: _dl_non_dynamic_init
0x0000000000433efc:  52800001      mov w1, #0x0
0x0000000000433f00:  b4000080      cbz x0, #+0x10 (addr 0x433f10)

----------------
IN: _dl_non_dynamic_init
0x0000000000433f10:  91008299      add x25, x20, #0x20 (32)
0x0000000000433f14:  f9400720      ldr x0, [x25, #8]
0x0000000000433f18:  b9004721      str w1, [x25, #68]
0x0000000000433f1c:  b4004120      cbz x0, #+0x824 (addr 0x434740)

----------------
IN: _dl_non_dynamic_init
0x0000000000434740:  91008280      add x0, x20, #0x20 (32)
0x0000000000434744:  f9402813      ldr x19, [x0, #80]
0x0000000000434748:  b4000133      cbz x19, #+0x24 (addr 0x43476c)

----------------
IN: _dl_non_dynamic_init
0x000000000043476c:  d0000393      adrp x19, #+0x72000 (addr 0x4a6000)
0x0000000000434770:  911b8260      add x0, x19, #0x6e0 (1760)
0x0000000000434774:  f900041f      str xzr, [x0, #8]
0x0000000000434778:  911b8260      add x0, x19, #0x6e0 (1760)
0x000000000043477c:  f900081f      str xzr, [x0, #16]
0x0000000000434780:  d2800001      mov x1, #0x0
0x0000000000434784:  17ffff1d      b #-0x38c (addr 0x4343f8)

----------------
IN: _dl_non_dynamic_init
0x00000000004343f8:  911b8262      add x2, x19, #0x6e0 (1760)
0x00000000004343fc:  f00001f3      adrp x19, #+0x3f000 (addr 0x473000)
0x0000000000434400:  912ee273      add x19, x19, #0xbb8 (3000)
0x0000000000434404:  aa1303e0      mov x0, x19
0x0000000000434408:  f9000c41      str x1, [x2, #24]
0x000000000043440c:  97ff5579      bl #-0x2aa1c (addr 0x4099f0)

----------------
IN: __strlen_mte
0x000000000042da40:  3cc10c20      ldr q0, [x1, #16]!
0x000000000042da44:  4e209801      cmeq v1.16b, v0.16b, #0
0x000000000042da48:  6e21a423      umaxp v3.16b, v1.16b, v1.16b
0x000000000042da4c:  9e660062      fmov x2, d3
0x000000000042da50:  b4ffff82      cbz x2, #-0x10 (addr 0x42da40)

----------------
IN: __strlen_mte
0x000000000042da54:  4e221c21      and v1.16b, v1.16b, v2.16b
0x000000000042da58:  4e21bc23      addp v3.16b, v1.16b, v1.16b
0x000000000042da5c:  cb000020      sub x0, x1, x0
0x000000000042da60:  9e660062      fmov x2, d3
0x000000000042da64:  dac00042      rbit x2, x2
0x000000000042da68:  dac01043      clz x3, x2
0x000000000042da6c:  8b430800      add x0, x0, x3, lsr #2
0x000000000042da70:  d65f03c0      ret

----------------
IN: _dl_non_dynamic_init
0x0000000000434410:  aa1303e1      mov x1, x19
0x0000000000434414:  d2800003      mov x3, #0x0
0x0000000000434418:  d2800002      mov x2, #0x0
0x000000000043441c:  94008209      bl #+0x20824 (addr 0x454c40)

----------------
IN: _dl_init_paths
0x0000000000454c40:  a9bc7bfd      stp x29, x30, [sp, #-64]!
0x0000000000454c44:  910003fd      mov x29, sp
0x0000000000454c48:  a9025bf5      stp x21, x22, [sp, #32]
0x0000000000454c4c:  d0000295      adrp x21, #+0x52000 (addr 0x4a6000)
0x0000000000454c50:  aa0103f6      mov x22, x1
0x0000000000454c54:  f9001bf7      str x23, [sp, #48]
0x0000000000454c58:  912ac2b7      add x23, x21, #0xab0 (2736)
0x0000000000454c5c:  a90153f3      stp x19, x20, [sp, #16]
0x0000000000454c60:  aa0003f4      mov x20, x0
0x0000000000454c64:  d10043ff      sub sp, sp, #0x10 (16)
0x0000000000454c68:  d2800500      mov x0, #0x28
0x0000000000454c6c:  97ff4e9d      bl #-0x2c58c (addr 0x4286e0)

----------------
IN: __malloc
0x0000000000428700:  b7f80774      tbnz x20, #63, #+0xec (addr 0x4287ec)

----------------
IN: __malloc
0x0000000000428730:  f00003e1      adrp x1, #+0x7f000 (addr 0x4a7000)
0x0000000000428734:  f9432421      ldr x1, [x1, #1608]
0x0000000000428738:  eb13003f      cmp x1, x19
0x000000000042873c:  54000828      b.hi #+0x104 (addr 0x428840)

----------------
IN: __malloc
0x0000000000428840:  d37ffa61      lsl x1, x19, #1
0x0000000000428844:  8b010002      add x2, x0, x1
0x0000000000428848:  78616801      ldrh w1, [x0, x1]
0x000000000042884c:  34fff7a1      cbz w1, #-0x10c (addr 0x428740)

----------------
IN: _dl_init_paths
0x0000000000454c70:  f9000ae0      str x0, [x23, #16]
0x0000000000454c74:  b40014a0      cbz x0, #+0x294 (addr 0x454f08)

----------------
IN: _dl_init_paths
0x0000000000454c78:  aa0003f3      mov x19, x0
0x0000000000454c7c:  d2802800      mov x0, #0x140
0x0000000000454c80:  97ff4e98      bl #-0x2c5a0 (addr 0x4286e0)

----------------
IN: _dl_init_paths
0x0000000000454c84:  f9000260      str x0, [x19]
0x0000000000454c88:  b40015c0      cbz x0, #+0x2b8 (addr 0x454f40)

----------------
IN: _dl_init_paths
0x0000000000454c8c:  aa0003e2      mov x2, x0
0x0000000000454c90:  d28002e1      mov x1, #0x17
0x0000000000454c94:  d0000286      adrp x6, #+0x52000 (addr 0x4a6000)
0x0000000000454c98:  f0000165      adrp x5, #+0x2f000 (addr 0x483000)
0x0000000000454c9c:  90000184      adrp x4, #+0x30000 (addr 0x484000)
0x0000000000454ca0:  912d00a5      add x5, x5, #0xb40 (2880)
0x0000000000454ca4:  91020084      add x4, x4, #0x80 (128)
0x0000000000454ca8:  a900fc05      stp x5, xzr, [x0, #8]
0x0000000000454cac:  91014003      add x3, x0, #0x50 (80)
0x0000000000454cb0:  a9018404      stp x4, x1, [x0, #24]
0x0000000000454cb4:  91006088      add x8, x4, #0x18 (24)
0x0000000000454cb8:  d2800367      mov x7, #0x1b
0x0000000000454cbc:  b900281f      str wzr, [x0, #40]
0x0000000000454cc0:  d00002c9      adrp x9, #+0x5a000 (addr 0x4ae000)
0x0000000000454cc4:  f80a0443      str x3, [x2], #160
0x0000000000454cc8:  9100d08c      add x12, x4, #0x34 (52)
0x0000000000454ccc:  a906201f      stp xzr, x8, [x0, #96]
0x0000000000454cd0:  d28000ab      mov x11, #0x5
0x0000000000454cd4:  9103c001      add x1, x0, #0xf0 (240)
0x0000000000454cd8:  f947b4c8      ldr x8, [x6, #3944]
0x0000000000454cdc:  a9051402      stp x2, x5, [x0, #80]
0x0000000000454ce0:  9100e884      add x4, x4, #0x3a (58)
0x0000000000454ce4:  f9003807      str x7, [x0, #112]
0x0000000000454ce8:  d280012a      mov x10, #0x9
0x0000000000454cec:  b900781f      str wzr, [x0, #120]
0x0000000000454cf0:  a900fc45      stp x5, xzr, [x2, #8]
0x0000000000454cf4:  a901ac4c      stp x12, x11, [x2, #24]
0x0000000000454cf8:  b900285f      str wzr, [x2, #40]
0x0000000000454cfc:  f901d127      str x7, [x9, #928]
0x0000000000454d00:  f9000100      str x0, [x8]
0x0000000000454d04:  a9008a63      stp x3, x2, [x19, #8]
0x0000000000454d08:  a901fe61      stp x1, xzr, [x19, #24]
0x0000000000454d0c:  b9001aff      str wzr, [x23, #24]
0x0000000000454d10:  f9005001      str x1, [x0, #160]
0x0000000000454d14:  a90f141f      stp xzr, x5, [x0, #240]
0x0000000000454d18:  a910101f      stp xzr, x4, [x0, #256]
0x0000000000454d1c:  f900880a      str x10, [x0, #272]
0x0000000000454d20:  b901181f      str wzr, [x0, #280]
0x0000000000454d24:  f947f0c6      ldr x6, [x6, #4064]
0x0000000000454d28:  f94000d3      ldr x19, [x6]
0x0000000000454d2c:  79469a60      ldrh w0, [x19, #844]
0x0000000000454d30:  12000400      and w0, w0, #0x3
0x0000000000454d34:  7100081f      cmp w0, #0x2 (2)
0x0000000000454d38:  54000f40      b.eq #+0x1e8 (addr 0x454f20)

----------------
IN: _dl_init_paths
0x0000000000454d3c:  f9409662      ldr x2, [x19, #296]
0x0000000000454d40:  b4000522      cbz x2, #+0xa4 (addr 0x454de4)

----------------
IN: _dl_init_paths
0x0000000000454de4:  f9405e62      ldr x2, [x19, #184]
0x0000000000454de8:  92800000      mov x0, #0xffffffffffffffff
0x0000000000454dec:  f901f660      str x0, [x19, #1000]
0x0000000000454df0:  b4000782      cbz x2, #+0xf0 (addr 0x454ee0)

----------------
IN: _dl_init_paths
0x0000000000454ee0:  f901ae60      str x0, [x19, #856]
0x0000000000454ee4:  17ffffa9      b #-0x15c (addr 0x454d88)

----------------
IN: _dl_init_paths
0x0000000000454d88:  b4000074      cbz x20, #+0xc (addr 0x454d94)

----------------
IN: _dl_init_paths
0x0000000000454d94:  92800000      mov x0, #0xffffffffffffffff
0x0000000000454d98:  f9055aa0      str x0, [x21, #2736]
0x0000000000454d9c:  910003bf      mov sp, x29
0x0000000000454da0:  a94153f3      ldp x19, x20, [sp, #16]
0x0000000000454da4:  a9425bf5      ldp x21, x22, [sp, #32]
0x0000000000454da8:  f9401bf7      ldr x23, [sp, #48]
0x0000000000454dac:  a8c47bfd      ldp x29, x30, [sp], #64
0x0000000000454db0:  d65f03c0      ret

----------------
IN: _dl_non_dynamic_init
0x0000000000434420:  91008281      add x1, x20, #0x20 (32)
0x0000000000434424:  f00001e0      adrp x0, #+0x3f000 (addr 0x473000)
0x0000000000434428:  912f2000      add x0, x0, #0xbc8 (3016)
0x000000000043442c:  f9403022      ldr x2, [x1, #96]
0x0000000000434430:  f9002c22      str x2, [x1, #88]
0x0000000000434434:  97ff556f      bl #-0x2aa44 (addr 0x4099f0)

----------------
IN: _dl_non_dynamic_init
0x0000000000434438:  52800022      mov w2, #0x1
0x000000000043443c:  b4000080      cbz x0, #+0x10 (addr 0x43444c)

----------------
IN: _dl_non_dynamic_init
0x000000000043444c:  91008281      add x1, x20, #0x20 (32)
0x0000000000434450:  f00001e0      adrp x0, #+0x3f000 (addr 0x473000)
0x0000000000434454:  912f6000      add x0, x0, #0xbd8 (3032)
0x0000000000434458:  b9006822      str w2, [x1, #104]
0x000000000043445c:  97ff5565      bl #-0x2aa6c (addr 0x4099f0)

----------------
IN: _dl_non_dynamic_init
0x0000000000434460:  52800002      mov w2, #0x0
0x0000000000434464:  b4000080      cbz x0, #+0x10 (addr 0x434474)

----------------
IN: _dl_non_dynamic_init
0x0000000000434474:  91008281      add x1, x20, #0x20 (32)
0x0000000000434478:  f00001e0      adrp x0, #+0x3f000 (addr 0x473000)
0x000000000043447c:  912fa000      add x0, x0, #0xbe8 (3048)
0x0000000000434480:  b9006c22      str w2, [x1, #108]
0x0000000000434484:  97ff555b      bl #-0x2aa94 (addr 0x4099f0)

----------------
IN: _dl_non_dynamic_init
0x0000000000434488:  52800021      mov w1, #0x1
0x000000000043448c:  b4000080      cbz x0, #+0x10 (addr 0x43449c)

----------------
IN: _dl_non_dynamic_init
0x000000000043449c:  91008293      add x19, x20, #0x20 (32)
0x00000000004344a0:  f00001e0      adrp x0, #+0x3f000 (addr 0x473000)
0x00000000004344a4:  912fe000      add x0, x0, #0xbf8 (3064)
0x00000000004344a8:  b9007261      str w1, [x19, #112]
0x00000000004344ac:  97ff5551      bl #-0x2aabc (addr 0x4099f0)

----------------
IN: _dl_non_dynamic_init
0x00000000004344b0:  f9003e60      str x0, [x19, #120]
0x00000000004344b4:  b4000060      cbz x0, #+0xc (addr 0x4344c0)

----------------
IN: _dl_non_dynamic_init
0x00000000004344c0:  d0000381      adrp x1, #+0x72000 (addr 0x4a6000)
0x00000000004344c4:  91008282      add x2, x20, #0x20 (32)
0x00000000004344c8:  f00001e0      adrp x0, #+0x3f000 (addr 0x473000)
0x00000000004344cc:  91318000      add x0, x0, #0xc60 (3168)
0x00000000004344d0:  b9470821      ldr w1, [x1, #1800]
0x00000000004344d4:  91002403      add x3, x0, #0x9 (9)
0x00000000004344d8:  7100003f      cmp w1, #0x0 (0)
0x00000000004344dc:  9a830000      csel x0, x0, x3, eq
0x00000000004344e0:  f9003c40      str x0, [x2, #120]
0x00000000004344e4:  340001a1      cbz w1, #+0x34 (addr 0x434518)

----------------
IN: _dl_non_dynamic_init
0x0000000000434518:  91008281      add x1, x20, #0x20 (32)
0x000000000043451c:  f9401420      ldr x0, [x1, #40]
0x0000000000434520:  b4000060      cbz x0, #+0xc (addr 0x43452c)

----------------
IN: _dl_non_dynamic_init
0x0000000000434524:  39400000      ldrb w0, [x0]
0x0000000000434528:  34000f20      cbz w0, #+0x1e4 (addr 0x43470c)

----------------
IN: _dl_non_dynamic_init
0x000000000043452c:  f00001e0      adrp x0, #+0x3f000 (addr 0x473000)
0x0000000000434530:  91304000      add x0, x0, #0xc10 (3088)
0x0000000000434534:  97ff552f      bl #-0x2ab44 (addr 0x4099f0)

----------------
IN: _dl_non_dynamic_init
0x0000000000434538:  aa0003f3      mov x19, x0
0x000000000043453c:  b40003e0      cbz x0, #+0x7c (addr 0x4345b8)

----------------
IN: _dl_non_dynamic_init
0x00000000004345b8:  91008293      add x19, x20, #0x20 (32)
0x00000000004345bc:  f9401660      ldr x0, [x19, #40]
0x00000000004345c0:  b4000060      cbz x0, #+0xc (addr 0x4345cc)

----------------
IN: _dl_non_dynamic_init
0x00000000004345c4:  97ff2f4f      bl #-0x342c4 (addr 0x400300)

----------------
IN: _dl_non_dynamic_init
0x00000000004345c8:  f9004660      str x0, [x19, #136]
0x00000000004345cc:  91008294      add x20, x20, #0x20 (32)
0x00000000004345d0:  f9401e80      ldr x0, [x20, #56]
0x00000000004345d4:  b40004e0      cbz x0, #+0x9c (addr 0x434670)

----------------
IN: _dl_non_dynamic_init
0x00000000004345d8:  f9401a81      ldr x1, [x20, #48]
0x00000000004345dc:  d37df022      lsl x2, x1, #3
0x00000000004345e0:  cb010042      sub x2, x2, x1
0x00000000004345e4:  8b020c02      add x2, x0, x2, lsl #3
0x00000000004345e8:  eb02001f      cmp x0, x2
0x00000000004345ec:  54000422      b.hs #+0x84 (addr 0x434670)

----------------
IN: _dl_non_dynamic_init
0x00000000004345f0:  529caa24      mov w4, #0xe551
0x00000000004345f4:  529caa43      mov w3, #0xe552
0x00000000004345f8:  52800005      mov w5, #0x0
0x00000000004345fc:  52800006      mov w6, #0x0
0x0000000000434600:  72ac8e84      movk w4, #0x6474, lsl #16
0x0000000000434604:  72ac8e83      movk w3, #0x6474, lsl #16
0x0000000000434608:  a90363f7      stp x23, x24, [sp, #48]
0x000000000043460c:  14000009      b #+0x24 (addr 0x434630)

----------------
IN: _dl_non_dynamic_init
0x0000000000434630:  b9400001      ldr w1, [x0]
0x0000000000434634:  6b04003f      cmp w1, w4
0x0000000000434638:  54fffec1      b.ne #-0x28 (addr 0x434610)

----------------
IN: _dl_non_dynamic_init
0x0000000000434610:  6b03003f      cmp w1, w3
0x0000000000434614:  54000081      b.ne #+0x10 (addr 0x434624)

----------------
IN: _dl_non_dynamic_init
0x0000000000434624:  9100e000      add x0, x0, #0x38 (56)
0x0000000000434628:  eb02001f      cmp x0, x2
0x000000000043462c:  54000122      b.hs #+0x24 (addr 0x434650)

----------------
IN: _dl_non_dynamic_init
0x000000000043463c:  b9400418      ldr w24, [x0, #4]
0x0000000000434640:  9100e000      add x0, x0, #0x38 (56)
0x0000000000434644:  52800026      mov w6, #0x1
0x0000000000434648:  eb02001f      cmp x0, x2
0x000000000043464c:  54ffff23      b.lo #-0x1c (addr 0x434630)

----------------
IN: _dl_non_dynamic_init
0x0000000000434618:  f9400816      ldr x22, [x0, #16]
0x000000000043461c:  52800025      mov w5, #0x1
0x0000000000434620:  f9401417      ldr x23, [x0, #40]
0x0000000000434624:  9100e000      add x0, x0, #0x38 (56)
0x0000000000434628:  eb02001f      cmp x0, x2
0x000000000043462c:  54000122      b.hs #+0x24 (addr 0x434650)

----------------
IN: _dl_non_dynamic_init
0x0000000000434650:  34000085      cbz w5, #+0x10 (addr 0x434660)

----------------
IN: _dl_non_dynamic_init
0x0000000000434654:  910002a0      add x0, x21, #0x0 (0)
0x0000000000434658:  f9024c16      str x22, [x0, #1176]
0x000000000043465c:  f9025017      str x23, [x0, #1184]
0x0000000000434660:  34000a86      cbz w6, #+0x150 (addr 0x4347b0)

----------------
IN: _dl_non_dynamic_init
0x0000000000434664:  f0000380      adrp x0, #+0x73000 (addr 0x4a7000)
0x0000000000434668:  b90f5018      str w24, [x0, #3920]
0x000000000043466c:  a94363f7      ldp x23, x24, [sp, #48]
0x0000000000434670:  d0000380      adrp x0, #+0x72000 (addr 0x4a6000)
0x0000000000434674:  f946f800      ldr x0, [x0, #3568]
0x0000000000434678:  b4000040      cbz x0, #+0x8 (addr 0x434680)

----------------
IN: _dl_non_dynamic_init
0x000000000043467c:  9400aa31      bl #+0x2a8c4 (addr 0x45ef40)

----------------
IN: _dl_find_object_init
0x000000000045ef40:  a9bd7bfd      stp x29, x30, [sp, #-48]!
0x000000000045ef44:  90000240      adrp x0, #+0x48000 (addr 0x4a6000)
0x000000000045ef48:  910003fd      mov x29, sp
0x000000000045ef4c:  f947f000      ldr x0, [x0, #4064]
0x000000000045ef50:  a90153f3      stp x19, x20, [sp, #16]
0x000000000045ef54:  a9025bf5      stp x21, x22, [sp, #32]
0x000000000045ef58:  90000256      adrp x22, #+0x48000 (addr 0x4a6000)
0x000000000045ef5c:  f9400000      ldr x0, [x0]
0x000000000045ef60:  394d3801      ldrb w1, [x0, #846]
0x000000000045ef64:  37100801      tbnz w1, #2, #+0x100 (addr 0x45f064)

----------------
IN: _dl_find_object_init
0x000000000045ef68:  912b62c0      add x0, x22, #0xad8 (2776)
0x000000000045ef6c:  92800001      mov x1, #0xffffffffffffffff
0x000000000045ef70:  a9010401      stp x1, x1, [x0, #16]
0x000000000045ef74:  912b62d5      add x21, x22, #0xad8 (2776)
0x000000000045ef78:  97fffe9e      bl #-0x588 (addr 0x45e9f0)

----------------
IN: _dlfo_process_initial
0x000000000045e9f0:  a9bd7bfd      stp x29, x30, [sp, #-48]!
0x000000000045e9f4:  90000246      adrp x6, #+0x48000 (addr 0x4a6000)
0x000000000045e9f8:  910003fd      mov x29, sp
0x000000000045e9fc:  f947f0c0      ldr x0, [x6, #4064]
0x000000000045ea00:  f9400007      ldr x7, [x0]
0x000000000045ea04:  394d38e0      ldrb w0, [x7, #846]
0x000000000045ea08:  361005c0      tbz w0, #2, #+0xb8 (addr 0x45eac0)

----------------
IN: _dlfo_process_initial
0x000000000045eac0:  910043eb      add x11, sp, #0x10 (16)
0x000000000045eac4:  aa0703e0      mov x0, x7
0x000000000045eac8:  aa0b03e1      mov x1, x11
0x000000000045eacc:  97ffffa9      bl #-0x15c (addr 0x45e970)

----------------
IN: _dl_find_object_from_map
0x000000000045e970:  f941c002      ldr x2, [x0, #896]
0x000000000045e974:  f9000022      str x2, [x1]
0x000000000045e978:  91002022      add x2, x1, #0x8 (8)
0x000000000045e97c:  f941c403      ldr x3, [x0, #904]
0x000000000045e980:  f9000043      str x3, [x2]
0x000000000045e984:  91004022      add x2, x1, #0x10 (16)
0x000000000045e988:  f9000040      str x0, [x2]
0x000000000045e98c:  7945d004      ldrh w4, [x0, #744]
0x000000000045e990:  52800703      mov w3, #0x38
0x000000000045e994:  f9416c02      ldr x2, [x0, #728]
0x000000000045e998:  9ba30884      umaddl x4, w4, w3, x2
0x000000000045e99c:  eb04005f      cmp x2, x4
0x000000000045e9a0:  54000202      b.hs #+0x40 (addr 0x45e9e0)

----------------
IN: _dl_find_object_from_map
0x000000000045e9a4:  529caa05      mov w5, #0xe550
0x000000000045e9a8:  72ac8e85      movk w5, #0x6474, lsl #16
0x000000000045e9ac:  14000004      b #+0x10 (addr 0x45e9bc)

----------------
IN: _dl_find_object_from_map
0x000000000045e9bc:  b9400043      ldr w3, [x2]
0x000000000045e9c0:  6b05007f      cmp w3, w5
0x000000000045e9c4:  54ffff61      b.ne #-0x14 (addr 0x45e9b0)

----------------
IN: _dl_find_object_from_map
0x000000000045e9b0:  9100e042      add x2, x2, #0x38 (56)
0x000000000045e9b4:  eb02009f      cmp x4, x2
0x000000000045e9b8:  54000149      b.ls #+0x28 (addr 0x45e9e0)

----------------
IN: _dl_find_object_from_map
0x000000000045e9e0:  91006021      add x1, x1, #0x18 (24)
0x000000000045e9e4:  f900003f      str xzr, [x1]
0x000000000045e9e8:  d65f03c0      ret

----------------
IN: _dlfo_process_initial
0x000000000045ead0:  7945d0e3      ldrh w3, [x7, #744]
0x000000000045ead4:  52800701      mov w1, #0x38
0x000000000045ead8:  f9416ce0      ldr x0, [x7, #728]
0x000000000045eadc:  d2800008      mov x8, #0x0
0x000000000045eae0:  90000249      adrp x9, #+0x48000 (addr 0x4a6000)
0x000000000045eae4:  9ba10063      umaddl x3, w3, w1, x0
0x000000000045eae8:  eb03001f      cmp x0, x3
0x000000000045eaec:  540000a3      b.lo #+0x14 (addr 0x45eb00)

----------------
IN: _dlfo_process_initial
0x000000000045eb00:  b9400002      ldr w2, [x0]
0x000000000045eb04:  7100045f      cmp w2, #0x1 (1)
0x000000000045eb08:  54ffff61      b.ne #-0x14 (addr 0x45eaf4)

----------------
IN: _dlfo_process_initial
0x000000000045eb0c:  f9456d22      ldr x2, [x9, #2776]
0x000000000045eb10:  d37be90a      lsl x10, x8, #5
0x000000000045eb14:  91000508      add x8, x8, #0x1 (1)
0x000000000045eb18:  8b0a0045      add x5, x2, x10
0x000000000045eb1c:  b4fffec2      cbz x2, #-0x28 (addr 0x45eaf4)

----------------
IN: _dlfo_process_initial
0x000000000045eaf4:  9100e000      add x0, x0, #0x38 (56)
0x000000000045eaf8:  eb00007f      cmp x3, x0
0x000000000045eafc:  540002a9      b.ls #+0x54 (addr 0x45eb50)

----------------
IN: _dlfo_process_initial
0x000000000045eb50:  f94728c1      ldr x1, [x6, #3664]
0x000000000045eb54:  f940002a      ldr x10, [x1]
0x000000000045eb58:  b4fff9ca      cbz x10, #-0xc8 (addr 0x45ea90)

----------------
IN: _dlfo_process_initial
0x000000000045eb5c:  f947f0c6      ldr x6, [x6, #4064]
0x000000000045eb60:  f94000c6      ldr x6, [x6]
0x000000000045eb64:  b5fff606      cbnz x6, #-0x140 (addr 0x45ea24)

----------------
IN: _dlfo_process_initial
0x000000000045ea24:  d280000a      mov x10, #0x0
0x000000000045ea28:  9000028b      adrp x11, #+0x50000 (addr 0x4ae000)
0x000000000045ea2c:  14000003      b #+0xc (addr 0x45ea38)

----------------
IN: _dlfo_process_initial
0x000000000045ea38:  eb0600ff      cmp x7, x6
0x000000000045ea3c:  54ffffa0      b.eq #-0xc (addr 0x45ea30)

----------------
IN: _dlfo_process_initial
0x000000000045ea30:  f9400cc6      ldr x6, [x6, #24]
0x000000000045ea34:  b40002e6      cbz x6, #+0x5c (addr 0x45ea90)

----------------
IN: _dlfo_process_initial
0x000000000045ea90:  912b6129      add x9, x9, #0xad8 (2776)
0x000000000045ea94:  aa0a03e0      mov x0, x10
0x000000000045ea98:  f9000528      str x8, [x9, #8]
0x000000000045ea9c:  a8c37bfd      ldp x29, x30, [sp], #48
0x000000000045eaa0:  d65f03c0      ret

----------------
IN: _dl_find_object_init
0x000000000045ef7c:  aa0003f3      mov x19, x0
0x000000000045ef80:  f94006a0      ldr x0, [x21, #8]
0x000000000045ef84:  d37be800      lsl x0, x0, #5
0x000000000045ef88:  97ff25d6      bl #-0x368a8 (addr 0x4286e0)

----------------
IN: _dl_find_object_init
0x000000000045ef8c:  f9056ec0      str x0, [x22, #2776]
0x000000000045ef90:  aa0003f4      mov x20, x0
0x000000000045ef94:  b5000293      cbnz x19, #+0x50 (addr 0x45efe4)

----------------
IN: _dl_find_object_init
0x000000000045ef98:  b5000080      cbnz x0, #+0x10 (addr 0x45efa8)

----------------
IN: _dl_find_object_init
0x000000000045efa8:  f90006bf      str xzr, [x21, #8]
0x000000000045efac:  97fffe91      bl #-0x5bc (addr 0x45e9f0)

----------------
IN: _dlfo_process_initial
0x000000000045eb20:  ad400560      ldp q0, q1, [x11]
0x000000000045eb24:  9100e000      add x0, x0, #0x38 (56)
0x000000000045eb28:  f94000e1      ldr x1, [x7]
0x000000000045eb2c:  ad0004a0      stp q0, q1, [x5]
0x000000000045eb30:  f85d8004      ldur x4, [x0, #-40]
0x000000000045eb34:  8b010084      add x4, x4, x1
0x000000000045eb38:  f82a6844      str x4, [x2, x10]
0x000000000045eb3c:  f85f0002      ldur x2, [x0, #-16]
0x000000000045eb40:  8b040042      add x2, x2, x4
0x000000000045eb44:  f90004a2      str x2, [x5, #8]
0x000000000045eb48:  eb00007f      cmp x3, x0
0x000000000045eb4c:  54fffda8      b.hi #-0x4c (addr 0x45eb00)

----------------
IN: _dl_find_object_init
0x000000000045efb0:  f94006a1      ldr x1, [x21, #8]
0x000000000045efb4:  b4000101      cbz x1, #+0x20 (addr 0x45efd4)

----------------
IN: _dl_find_object_init
0x000000000045efb8:  f100043f      cmp x1, #0x1 (1)
0x000000000045efbc:  54000620      b.eq #+0xc4 (addr 0x45f080)

----------------
IN: _dl_find_object_init
0x000000000045efc0:  aa1403e0      mov x0, x20
0x000000000045efc4:  97fffeef      bl #-0x444 (addr 0x45eb80)

----------------
IN: _dlfo_sort_mappings.part.0
0x000000000045eb80:  d10083ff      sub sp, sp, #0x20 (32)
0x000000000045eb84:  d1000429      sub x9, x1, #0x1 (1)
0x000000000045eb88:  aa0003e6      mov x6, x0
0x000000000045eb8c:  910003e8      mov x8, sp
0x000000000045eb90:  d2800007      mov x7, #0x0
0x000000000045eb94:  d503201f      nop
0x000000000045eb98:  aa0703e5      mov x5, x7
0x000000000045eb9c:  910004e7      add x7, x7, #0x1 (1)
0x000000000045eba0:  f94000c3      ldr x3, [x6]
0x000000000045eba4:  eb0100ff      cmp x7, x1
0x000000000045eba8:  540002a2      b.hs #+0x54 (addr 0x45ebfc)

----------------
IN: _dlfo_sort_mappings.part.0
0x000000000045ebac:  aa0703e2      mov x2, x7
0x000000000045ebb0:  d37be844      lsl x4, x2, #5
0x000000000045ebb4:  f8646804      ldr x4, [x0, x4]
0x000000000045ebb8:  eb03009f      cmp x4, x3
0x000000000045ebbc:  9a8220a5      csel x5, x5, x2, hs
0x000000000045ebc0:  91000442      add x2, x2, #0x1 (1)
0x000000000045ebc4:  9a842063      csel x3, x3, x4, hs
0x000000000045ebc8:  eb01005f      cmp x2, x1
0x000000000045ebcc:  54ffff21      b.ne #-0x1c (addr 0x45ebb0)

----------------
IN: _dlfo_sort_mappings.part.0
0x000000000045ebd0:  8b051405      add x5, x0, x5, lsl #5
0x000000000045ebd4:  ad400cc2      ldp q2, q3, [x6]
0x000000000045ebd8:  ad4004a0      ldp q0, q1, [x5]
0x000000000045ebdc:  ad000ca2      stp q2, q3, [x5]
0x000000000045ebe0:  ad0004c0      stp q0, q1, [x6]
0x000000000045ebe4:  910080c6      add x6, x6, #0x20 (32)
0x000000000045ebe8:  ad000500      stp q0, q1, [x8]
0x000000000045ebec:  eb0900ff      cmp x7, x9
0x000000000045ebf0:  54fffd43      b.lo #-0x58 (addr 0x45eb98)

----------------
IN: _dlfo_sort_mappings.part.0
0x000000000045ebf4:  910083ff      add sp, sp, #0x20 (32)
0x000000000045ebf8:  d65f03c0      ret

----------------
IN: _dl_find_object_init
0x000000000045efc8:  8b011680      add x0, x20, x1, lsl #5
0x000000000045efcc:  f85e8000      ldur x0, [x0, #-24]
0x000000000045efd0:  f9001aa0      str x0, [x21, #48]
0x000000000045efd4:  a94153f3      ldp x19, x20, [sp, #16]
0x000000000045efd8:  a9425bf5      ldp x21, x22, [sp, #32]
0x000000000045efdc:  a8c37bfd      ldp x29, x30, [sp], #48
0x000000000045efe0:  d65f03c0      ret

----------------
IN: _dl_non_dynamic_init
0x0000000000434680:  910002a0      add x0, x21, #0x0 (0)
0x0000000000434684:  f9425001      ldr x1, [x0, #1184]
0x0000000000434688:  b5000661      cbnz x1, #+0xcc (addr 0x434754)

----------------
IN: _dl_non_dynamic_init
0x0000000000434754:  a94153f3      ldp x19, x20, [sp, #16]
0x0000000000434758:  a9425bf5      ldp x21, x22, [sp, #32]
0x000000000043475c:  a9446bf9      ldp x25, x26, [sp, #64]
0x0000000000434760:  a94573fb      ldp x27, x28, [sp, #80]
0x0000000000434764:  a8ca7bfd      ldp x29, x30, [sp], #160
0x0000000000434768:  14009697      b #+0x25a5c (addr 0x45a1c4)

----------------
IN: _dl_protect_relro
0x000000000045a1c4:  a9be7bfd      stp x29, x30, [sp, #-32]!
0x000000000045a1c8:  90000261      adrp x1, #+0x4c000 (addr 0x4a6000)
0x000000000045a1cc:  910003fd      mov x29, sp
0x000000000045a1d0:  f9000bf3      str x19, [sp, #16]
0x000000000045a1d4:  aa0003f3      mov x19, x0
0x000000000045a1d8:  f947d820      ldr x0, [x1, #4016]
0x000000000045a1dc:  f9400261      ldr x1, [x19]
0x000000000045a1e0:  f9424e63      ldr x3, [x19, #1176]
0x000000000045a1e4:  f9400002      ldr x2, [x0]
0x000000000045a1e8:  8b030021      add x1, x1, x3
0x000000000045a1ec:  f9425263      ldr x3, [x19, #1184]
0x000000000045a1f0:  cb0203e2      neg x2, x2
0x000000000045a1f4:  8a020020      and x0, x1, x2
0x000000000045a1f8:  8b030021      add x1, x1, x3
0x000000000045a1fc:  8a020021      and x1, x1, x2
0x000000000045a200:  eb01001f      cmp x0, x1
0x000000000045a204:  54000081      b.ne #+0x10 (addr 0x45a214)

----------------
IN: _dl_protect_relro
0x000000000045a214:  cb000021      sub x1, x1, x0
0x000000000045a218:  52800022      mov w2, #0x1
0x000000000045a21c:  97ff5929      bl #-0x29b5c (addr 0x4306c0)

----------------
IN: __mprotect
0x00000000004306c0:  d503201f      nop
0x00000000004306c4:  d2801c48      mov x8, #0xe2
0x00000000004306c8:  d4000001      svc #0x0

----------------
IN: __mprotect
0x00000000004306cc:  b13ffc1f      cmn x0, #0xfff (4095)
0x00000000004306d0:  54000042      b.hs #+0x8 (addr 0x4306d8)

----------------
IN: __mprotect
0x00000000004306d4:  d65f03c0      ret

----------------
IN: _dl_protect_relro
0x000000000045a220:  36ffff40      tbz w0, #31, #-0x18 (addr 0x45a208)

----------------
IN: _dl_protect_relro
0x000000000045a208:  f9400bf3      ldr x19, [sp, #16]
0x000000000045a20c:  a8c27bfd      ldp x29, x30, [sp], #32
0x000000000045a210:  d65f03c0      ret

----------------
IN: __libc_init_first
0x0000000000434b3c:  aa1503e2      mov x2, x21
0x0000000000434b40:  aa1403e1      mov x1, x20
0x0000000000434b44:  2a1303e0      mov w0, w19
0x0000000000434b48:  a94153f3      ldp x19, x20, [sp, #16]
0x0000000000434b4c:  f94013f5      ldr x21, [sp, #32]
0x0000000000434b50:  a8c37bfd      ldp x29, x30, [sp], #48
0x0000000000434b54:  17fff3cf      b #-0x30c4 (addr 0x431a90)

----------------
IN: __init_misc
0x0000000000431a90:  b4000281      cbz x1, #+0x50 (addr 0x431ae0)

----------------
IN: __init_misc
0x0000000000431a94:  a9be7bfd      stp x29, x30, [sp, #-32]!
0x0000000000431a98:  910003fd      mov x29, sp
0x0000000000431a9c:  a90153f3      stp x19, x20, [sp, #16]
0x0000000000431aa0:  aa0103f3      mov x19, x1
0x0000000000431aa4:  f9400034      ldr x20, [x1]
0x0000000000431aa8:  b4000174      cbz x20, #+0x2c (addr 0x431ad4)

----------------
IN: __init_misc
0x0000000000431aac:  aa1403e0      mov x0, x20
0x0000000000431ab0:  528005e1      mov w1, #0x2f
0x0000000000431ab4:  94007ee3      bl #+0x1fb8c (addr 0x451640)

----------------
IN: strrchr
0x0000000000451640:  d503201f      nop
0x0000000000451644:  927cec02      and x2, x0, #0xfffffffffffffff0
0x0000000000451648:  4e010c20      dup v0.16b, w1
0x000000000045164c:  52860063      mov w3, #0x3003
0x0000000000451650:  4e020c64      dup v4.8h, w3
0x0000000000451654:  f2400c1f      tst x0, #0xf
0x0000000000451658:  54000240      b.eq #+0x48 (addr 0x4516a0)

----------------
IN: strrchr
0x000000000045165c:  4cdf7041      ld1 {v1.16b}, [x2], #16
0x0000000000451660:  4e209822      cmeq v2.16b, v1.16b, #0
0x0000000000451664:  6e208c23      cmeq v3.16b, v1.16b, v0.16b
0x0000000000451668:  529e01e3      mov w3, #0xf00f
0x000000000045166c:  4e020c65      dup v5.8h, w3
0x0000000000451670:  6ea41c62      bit v2.16b, v3.16b, v4.16b
0x0000000000451674:  4e251c42      and v2.16b, v2.16b, v5.16b
0x0000000000451678:  4e22bc45      addp v5.16b, v2.16b, v2.16b
0x000000000045167c:  d37ef404      lsl x4, x0, #2
0x0000000000451680:  9e6600a3      fmov x3, d5
0x0000000000451684:  9ac42463      lsr x3, x3, x4
0x0000000000451688:  9ac42063      lsl x3, x3, x4
0x000000000045168c:  f202e465      ands x5, x3, #0xcccccccccccccccc
0x0000000000451690:  54000221      b.ne #+0x44 (addr 0x4516d4)

----------------
IN: strrchr
0x00000000004516d4:  d10004a5      sub x5, x5, #0x1 (1)
0x00000000004516d8:  9200e466      and x6, x3, #0x3333333333333333
0x00000000004516dc:  ea0500c6      ands x6, x6, x5
0x00000000004516e0:  d1000440      sub x0, x2, #0x1 (1)
0x00000000004516e4:  dac010c3      clz x3, x6
0x00000000004516e8:  cb430800      sub x0, x0, x3, lsr #2
0x00000000004516ec:  9a9f1000      csel x0, x0, xzr, ne
0x00000000004516f0:  d65f03c0      ret

----------------
IN: __init_misc
0x0000000000431ab8:  f100001f      cmp x0, #0x0 (0)
0x0000000000431abc:  d00003a1      adrp x1, #+0x76000 (addr 0x4a7000)
0x0000000000431ac0:  9a800694      csinc x20, x20, x0, eq
0x0000000000431ac4:  913c4022      add x2, x1, #0xf10 (3856)
0x0000000000431ac8:  f9078834      str x20, [x1, #3856]
0x0000000000431acc:  f9400260      ldr x0, [x19]
0x0000000000431ad0:  f9000440      str x0, [x2, #8]
0x0000000000431ad4:  a94153f3      ldp x19, x20, [sp, #16]
0x0000000000431ad8:  a8c27bfd      ldp x29, x30, [sp], #32
0x0000000000431adc:  d65f03c0      ret

----------------
IN: __libc_start_main_impl
0x0000000000404854:  90000000      adrp x0, #+0x0 (addr 0x404000)
0x0000000000404858:  d2800002      mov x2, #0x0
0x000000000040485c:  91140000      add x0, x0, #0x500 (1280)
0x0000000000404860:  d2800001      mov x1, #0x0
0x0000000000404864:  940015c3      bl #+0x570c (addr 0x409f70)

----------------
IN: __cxa_atexit
0x0000000000409f70:  d00004e3      adrp x3, #+0x9e000 (addr 0x4a7000)
0x0000000000409f74:  91014063      add x3, x3, #0x50 (80)
0x0000000000409f78:  17ffffbe      b #-0x108 (addr 0x409e70)

----------------
IN: __internal_atexit
0x0000000000409e70:  a9bc7bfd      stp x29, x30, [sp, #-64]!
0x0000000000409e74:  910003fd      mov x29, sp
0x0000000000409e78:  a90153f3      stp x19, x20, [sp, #16]
0x0000000000409e7c:  a9025bf5      stp x21, x22, [sp, #32]
0x0000000000409e80:  a90363f7      stp x23, x24, [sp, #48]
0x0000000000409e84:  b4000640      cbz x0, #+0xc8 (addr 0x409f4c)

----------------
IN: __internal_atexit
0x0000000000409e88:  90000513      adrp x19, #+0xa0000 (addr 0x4a9000)
0x0000000000409e8c:  912b6275      add x21, x19, #0xad8 (2776)
0x0000000000409e90:  910022b5      add x21, x21, #0x8 (8)
0x0000000000409e94:  aa0003f4      mov x20, x0
0x0000000000409e98:  aa0103f7      mov x23, x1
0x0000000000409e9c:  aa0203f6      mov x22, x2
0x0000000000409ea0:  aa0303f8      mov x24, x3
0x0000000000409ea4:  aa1503e2      mov x2, x21
0x0000000000409ea8:  52800021      mov w1, #0x1
0x0000000000409eac:  52800000      mov w0, #0x0
0x0000000000409eb0:  940168fc      bl #+0x5a3f0 (addr 0x4642a0)

----------------
IN: __internal_atexit
0x0000000000409eb4:  35000300      cbnz w0, #+0x60 (addr 0x409f14)

----------------
IN: __internal_atexit
0x0000000000409eb8:  aa1803e0      mov x0, x24
0x0000000000409ebc:  97ffffa9      bl #-0x15c (addr 0x409d60)

----------------
IN: __new_exitfn
0x0000000000409d60:  a9be7bfd      stp x29, x30, [sp, #-32]!
0x0000000000409d64:  90000501      adrp x1, #+0xa0000 (addr 0x4a9000)
0x0000000000409d68:  910003fd      mov x29, sp
0x0000000000409d6c:  a90153f3      stp x19, x20, [sp, #16]
0x0000000000409d70:  aa0003f3      mov x19, x0
0x0000000000409d74:  396b4020      ldrb w0, [x1, #2768]
0x0000000000409d78:  35000640      cbnz w0, #+0xc8 (addr 0x409e40)

----------------
IN: __new_exitfn
0x0000000000409d7c:  f9400274      ldr x20, [x19]
0x0000000000409d80:  b4000694      cbz x20, #+0xd0 (addr 0x409e50)

----------------
IN: __new_exitfn
0x0000000000409d84:  aa1403e5      mov x5, x20
0x0000000000409d88:  d2800006      mov x6, #0x0
0x0000000000409d8c:  d503201f      nop
0x0000000000409d90:  f94004a1      ldr x1, [x5, #8]
0x0000000000409d94:  910040a4      add x4, x5, #0x10 (16)
0x0000000000409d98:  b4000101      cbz x1, #+0x20 (addr 0x409db8)

----------------
IN: __new_exitfn
0x0000000000409db8:  f94000a1      ldr x1, [x5]
0x0000000000409dbc:  f90004bf      str xzr, [x5, #8]
0x0000000000409dc0:  aa0503e6      mov x6, x5
0x0000000000409dc4:  b4000361      cbz x1, #+0x6c (addr 0x409e30)

----------------
IN: __new_exitfn
0x0000000000409e30:  d2800021      mov x1, #0x1
0x0000000000409e34:  910040a0      add x0, x5, #0x10 (16)
0x0000000000409e38:  f90004a1      str x1, [x5, #8]
0x0000000000409e3c:  17ffffeb      b #-0x54 (addr 0x409de8)

----------------
IN: __new_exitfn
0x0000000000409de8:  90000502      adrp x2, #+0xa0000 (addr 0x4a9000)
0x0000000000409dec:  d2800021      mov x1, #0x1
0x0000000000409df0:  f9000001      str x1, [x0]
0x0000000000409df4:  f9456c41      ldr x1, [x2, #2776]
0x0000000000409df8:  a94153f3      ldp x19, x20, [sp, #16]
0x0000000000409dfc:  91000421      add x1, x1, #0x1 (1)
0x0000000000409e00:  a8c27bfd      ldp x29, x30, [sp], #32
0x0000000000409e04:  f9056c41      str x1, [x2, #2776]
0x0000000000409e08:  d65f03c0      ret

----------------
IN: __internal_atexit
0x0000000000409ec0:  b4000300      cbz x0, #+0x60 (addr 0x409f20)

----------------
IN: __internal_atexit
0x0000000000409ec4:  900004e1      adrp x1, #+0x9c000 (addr 0x4a5000)
0x0000000000409ec8:  d2800082      mov x2, #0x4
0x0000000000409ecc:  912b6273      add x19, x19, #0xad8 (2776)
0x0000000000409ed0:  a9015817      stp x23, x22, [x0, #16]
0x0000000000409ed4:  91002273      add x19, x19, #0x8 (8)
0x0000000000409ed8:  f944dc21      ldr x1, [x1, #2488]
0x0000000000409edc:  ca010294      eor x20, x20, x1
0x0000000000409ee0:  a9005002      stp x2, x20, [x0]
0x0000000000409ee4:  aa1303e1      mov x1, x19
0x0000000000409ee8:  52800000      mov w0, #0x0
0x0000000000409eec:  52800014      mov w20, #0x0
0x0000000000409ef0:  94016980      bl #+0x5a600 (addr 0x4644f0)

----------------
IN: __internal_atexit
0x0000000000409ef4:  7100041f      cmp w0, #0x1 (1)
0x0000000000409ef8:  5400024c      b.gt #+0x48 (addr 0x409f40)

----------------
IN: __internal_atexit
0x0000000000409efc:  2a1403e0      mov w0, w20
0x0000000000409f00:  a94153f3      ldp x19, x20, [sp, #16]
0x0000000000409f04:  a9425bf5      ldp x21, x22, [sp, #32]
0x0000000000409f08:  a94363f7      ldp x23, x24, [sp, #48]
0x0000000000409f0c:  a8c47bfd      ldp x29, x30, [sp], #64
0x0000000000409f10:  d65f03c0      ret

----------------
IN: __libc_start_main_impl
0x0000000000404868:  d0000500      adrp x0, #+0xa2000 (addr 0x4a6000)
0x000000000040486c:  b9470800      ldr w0, [x0, #1800]
0x0000000000404870:  350007a0      cbnz w0, #+0xf4 (addr 0x404964)

----------------
IN: __libc_start_main_impl
0x0000000000404874:  f94037e0      ldr x0, [sp, #104]
0x0000000000404878:  f00004f7      adrp x23, #+0x9f000 (addr 0x4a3000)
0x000000000040487c:  f00004f8      adrp x24, #+0x9f000 (addr 0x4a3000)
0x0000000000404880:  912062f7      add x23, x23, #0x818 (2072)
0x0000000000404884:  91206318      add x24, x24, #0x818 (2072)
0x0000000000404888:  d2800015      mov x21, #0x0
0x000000000040488c:  cb1802f7      sub x23, x23, x24
0x0000000000404890:  f947ec16      ldr x22, [x0, #4056]
0x0000000000404894:  9343fef7      asr x23, x23, #3
0x0000000000404898:  b4000157      cbz x23, #+0x28 (addr 0x4048c0)

----------------
IN: __libc_start_main_impl
0x00000000004048c0:  f00004f7      adrp x23, #+0x9f000 (addr 0x4a3000)
0x00000000004048c4:  f00004f8      adrp x24, #+0x9f000 (addr 0x4a3000)
0x00000000004048c8:  9120a2f7      add x23, x23, #0x828 (2088)
0x00000000004048cc:  91206318      add x24, x24, #0x818 (2072)
0x00000000004048d0:  cb1802f7      sub x23, x23, x24
0x00000000004048d4:  d2800015      mov x21, #0x0
0x00000000004048d8:  97ffee6a      bl #-0x4658 (addr 0x400280)

----------------
IN: 
0x0000000000400280:  d503201f      nop
0x0000000000400284:  a9bf7bfd      stp x29, x30, [sp, #-16]!
0x0000000000400288:  910003fd      mov x29, sp
0x000000000040028c:  940000ce      bl #+0x338 (addr 0x4005c4)

----------------
IN: call_weak_fn
0x00000000004005c4:  d0000520      adrp x0, #+0xa6000 (addr 0x4a6000)
0x00000000004005c8:  f947e800      ldr x0, [x0, #4048]
0x00000000004005cc:  b4000040      cbz x0, #+0x8 (addr 0x4005d4)

----------------
IN: call_weak_fn
0x00000000004005d4:  d65f03c0      ret

----------------
IN: 
0x0000000000400290:  a8c17bfd      ldp x29, x30, [sp], #16
0x0000000000400294:  d65f03c0      ret

----------------
IN: __libc_start_main_impl
0x00000000004048dc:  9343fef7      asr x23, x23, #3
0x00000000004048e0:  b4000157      cbz x23, #+0x28 (addr 0x404908)

----------------
IN: __libc_start_main_impl
0x00000000004048e4:  d503201f      nop
0x00000000004048e8:  f8757b03      ldr x3, [x24, x21, lsl #3]
0x00000000004048ec:  aa1603e2      mov x2, x22
0x00000000004048f0:  910006b5      add x21, x21, #0x1 (1)
0x00000000004048f4:  aa1403e1      mov x1, x20
0x00000000004048f8:  2a1303e0      mov w0, w19
0x00000000004048fc:  d63f0060      blr x3

----------------
IN: 
0x00000000004006a0:  f0000340      adrp x0, #+0x6b000 (addr 0x46b000)
0x00000000004006a4:  f9438800      ldr x0, [x0, #1808]
0x00000000004006a8:  b4000140      cbz x0, #+0x28 (addr 0x4006d0)

----------------
IN: 
0x00000000004006ac:  a9bf7bfd      stp x29, x30, [sp, #-16]!
0x00000000004006b0:  b0000541      adrp x1, #+0xa9000 (addr 0x4a9000)
0x00000000004006b4:  d0000420      adrp x0, #+0x86000 (addr 0x486000)
0x00000000004006b8:  910003fd      mov x29, sp
0x00000000004006bc:  91036021      add x1, x1, #0xd8 (216)
0x00000000004006c0:  911f4000      add x0, x0, #0x7d0 (2000)
0x00000000004006c4:  9401a5df      bl #+0x6977c (addr 0x469e40)

----------------
IN: __register_frame_info
0x0000000000469e40:  b4000580      cbz x0, #+0xb0 (addr 0x469ef0)

----------------
IN: __register_frame_info
0x0000000000469e44:  a9bd7bfd      stp x29, x30, [sp, #-48]!
0x0000000000469e48:  910003fd      mov x29, sp
0x0000000000469e4c:  a90153f3      stp x19, x20, [sp, #16]
0x0000000000469e50:  aa0103f3      mov x19, x1
0x0000000000469e54:  b9400001      ldr w1, [x0]
0x0000000000469e58:  340003a1      cbz w1, #+0x74 (addr 0x469ecc)

----------------
IN: __register_frame_info
0x0000000000469e5c:  b00001f4      adrp x20, #+0x3d000 (addr 0x4a6000)
0x0000000000469e60:  92800001      mov x1, #0xffffffffffffffff
0x0000000000469e64:  f90013f5      str x21, [sp, #32]
0x0000000000469e68:  d280ff02      mov x2, #0x7f8
0x0000000000469e6c:  a9007e61      stp x1, xzr, [x19]
0x0000000000469e70:  b0000235      adrp x21, #+0x45000 (addr 0x4ae000)
0x0000000000469e74:  f9460681      ldr x1, [x20, #3080]
0x0000000000469e78:  a901027f      stp xzr, x0, [x19, #16]
0x0000000000469e7c:  f9001262      str x2, [x19, #32]
0x0000000000469e80:  b4000081      cbz x1, #+0x10 (addr 0x469e90)

----------------
IN: __register_frame_info
0x0000000000469e90:  911622a0      add x0, x21, #0x588 (1416)
0x0000000000469e94:  b941d001      ldr w1, [x0, #464]
0x0000000000469e98:  f940e402      ldr x2, [x0, #456]
0x0000000000469e9c:  f9001662      str x2, [x19, #40]
0x0000000000469ea0:  f900e413      str x19, [x0, #456]
0x0000000000469ea4:  340001a1      cbz w1, #+0x34 (addr 0x469ed8)

----------------
IN: __register_frame_info
0x0000000000469ed8:  91074000      add x0, x0, #0x1d0 (464)
0x0000000000469edc:  52800021      mov w1, #0x1
0x0000000000469ee0:  b9000001      str w1, [x0]
0x0000000000469ee4:  f9460694      ldr x20, [x20, #3080]
0x0000000000469ee8:  b5fffe54      cbnz x20, #-0x38 (addr 0x469eb0)

----------------
IN: __register_frame_info
0x0000000000469eec:  17fffff7      b #-0x24 (addr 0x469ec8)

----------------
IN: __register_frame_info
0x0000000000469ec8:  f94013f5      ldr x21, [sp, #32]
0x0000000000469ecc:  a94153f3      ldp x19, x20, [sp, #16]
0x0000000000469ed0:  a8c37bfd      ldp x29, x30, [sp], #48
0x0000000000469ed4:  d65f03c0      ret

----------------
IN: 
0x00000000004006c8:  a8c17bfd      ldp x29, x30, [sp], #16
0x00000000004006cc:  17ffffd1      b #-0xbc (addr 0x400610)

----------------
IN: 
0x0000000000400610:  90000540      adrp x0, #+0xa8000 (addr 0x4a8000)
0x0000000000400614:  91252000      add x0, x0, #0x948 (2376)
0x0000000000400618:  90000541      adrp x1, #+0xa8000 (addr 0x4a8000)
0x000000000040061c:  91252021      add x1, x1, #0x948 (2376)
0x0000000000400620:  cb000021      sub x1, x1, x0
0x0000000000400624:  d37ffc22      lsr x2, x1, #63
0x0000000000400628:  8b810c41      add x1, x2, x1, asr #3
0x000000000040062c:  9341fc21      asr x1, x1, #1
0x0000000000400630:  b40000c1      cbz x1, #+0x18 (addr 0x400648)

----------------
IN: 
0x0000000000400648:  d65f03c0      ret

----------------
IN: __libc_start_main_impl
0x0000000000404900:  eb1502ff      cmp x23, x21
0x0000000000404904:  54ffff21      b.ne #-0x1c (addr 0x4048e8)

----------------
IN: __libc_start_main_impl
0x00000000004048e8:  f8757b03      ldr x3, [x24, x21, lsl #3]
0x00000000004048ec:  aa1603e2      mov x2, x22
0x00000000004048f0:  910006b5      add x21, x21, #0x1 (1)
0x00000000004048f4:  aa1403e1      mov x1, x20
0x00000000004048f8:  2a1303e0      mov w0, w19
0x00000000004048fc:  d63f0060      blr x3

----------------
IN: init_have_lse_atomics
0x0000000000400520:  a9bf7bfd      stp x29, x30, [sp, #-16]!
0x0000000000400524:  d2800200      mov x0, #0x10
0x0000000000400528:  910003fd      mov x29, sp
0x000000000040052c:  9401a935      bl #+0x6a4d4 (addr 0x46aa00)

----------------
IN: getauxval
0x000000000046aa00:  900001e1      adrp x1, #+0x3c000 (addr 0x4a6000)
0x000000000046aa04:  f100401f      cmp x0, #0x10 (16)
0x000000000046aa08:  540002a0      b.eq #+0x54 (addr 0x46aa5c)

----------------
IN: getauxval
0x000000000046aa5c:  f947a421      ldr x1, [x1, #3912]
0x000000000046aa60:  f9400020      ldr x0, [x1]
0x000000000046aa64:  d65f03c0      ret

----------------
IN: init_have_lse_atomics
0x0000000000400530:  53082000      ubfx w0, w0, #8, #1
0x0000000000400534:  d0000561      adrp x1, #+0xae000 (addr 0x4ae000)
0x0000000000400538:  a8c17bfd      ldp x29, x30, [sp], #16
0x000000000040053c:  39146020      strb w0, [x1, #1304]
0x0000000000400540:  d65f03c0      ret

----------------
IN: __libc_start_main_impl
0x0000000000404908:  d2800001      mov x1, #0x0
0x000000000040490c:  d2800000      mov x0, #0x0
0x0000000000404910:  9400b6d4      bl #+0x2db50 (addr 0x432460)

----------------
IN: _dl_debug_initialize
0x0000000000432460:  f00003c2      adrp x2, #+0x7b000 (addr 0x4ad000)
0x0000000000432464:  b5000061      cbnz x1, #+0xc (addr 0x432470)

----------------
IN: _dl_debug_initialize
0x0000000000432468:  b94fe843      ldr w3, [x2, #4072]
0x000000000043246c:  34000223      cbz w3, #+0x44 (addr 0x4324b0)

----------------
IN: _dl_debug_initialize
0x00000000004324b0:  52800023      mov w3, #0x1
0x00000000004324b4:  b90fe843      str w3, [x2, #4072]
0x00000000004324b8:  17ffffee      b #-0x48 (addr 0x432470)

----------------
IN: _dl_debug_initialize
0x0000000000432470:  913fa043      add x3, x2, #0xfe8 (4072)
0x0000000000432474:  f9400864      ldr x4, [x3, #16]
0x0000000000432478:  b50000e4      cbnz x4, #+0x1c (addr 0x432494)

----------------
IN: _dl_debug_initialize
0x000000000043247c:  b4000160      cbz x0, #+0x2c (addr 0x4324a8)

----------------
IN: _dl_debug_initialize
0x00000000004324a8:  f9401060      ldr x0, [x3, #32]
0x00000000004324ac:  17fffff5      b #-0x2c (addr 0x432480)

----------------
IN: _dl_debug_initialize
0x0000000000432480:  913fa043      add x3, x2, #0xfe8 (4072)
0x0000000000432484:  90000004      adrp x4, #+0x0 (addr 0x432000)
0x0000000000432488:  910fc084      add x4, x4, #0x3f0 (1008)
0x000000000043248c:  f9000864      str x4, [x3, #16]
0x0000000000432490:  a9027c60      stp x0, xzr, [x3, #32]
0x0000000000432494:  913fa040      add x0, x2, #0xfe8 (4072)
0x0000000000432498:  f9400400      ldr x0, [x0, #8]
0x000000000043249c:  b4000100      cbz x0, #+0x20 (addr 0x4324bc)

----------------
IN: _dl_debug_initialize
0x00000000004324bc:  8b010820      add x0, x1, x1, lsl #2
0x00000000004324c0:  900003a4      adrp x4, #+0x74000 (addr 0x4a6000)
0x00000000004324c4:  f00003c3      adrp x3, #+0x7b000 (addr 0x4ad000)
0x00000000004324c8:  913fc063      add x3, x3, #0xff0 (4080)
0x00000000004324cc:  8b000820      add x0, x1, x0, lsl #2
0x00000000004324d0:  f947f081      ldr x1, [x4, #4064]
0x00000000004324d4:  d37df000      lsl x0, x0, #3
0x00000000004324d8:  f8606820      ldr x0, [x1, x0]
0x00000000004324dc:  c89ffc60      stlr x0, [x3]
0x00000000004324e0:  913fa040      add x0, x2, #0xfe8 (4072)
0x00000000004324e4:  d65f03c0      ret

----------------
IN: __libc_start_main_impl
0x0000000000404914:  f9403be0      ldr x0, [sp, #112]
0x0000000000404918:  aa1403e2      mov x2, x20
0x000000000040491c:  2a1303e1      mov w1, w19
0x0000000000404920:  97ffff0c      bl #-0x3d0 (addr 0x404550)

----------------
IN: __libc_start_call_main
0x0000000000404550:  a9af7bfd      stp x29, x30, [sp, #-272]!
0x0000000000404554:  910003fd      mov x29, sp
0x0000000000404558:  f9000fe0      str x0, [sp, #24]
0x000000000040455c:  9100e3e0      add x0, sp, #0x38 (56)
0x0000000000404560:  b90027e1      str w1, [sp, #36]
0x0000000000404564:  f90017e2      str x2, [sp, #40]
0x0000000000404568:  94001306      bl #+0x4c18 (addr 0x409180)

----------------
IN: _setjmp
0x0000000000409180:  d503201f      nop
0x0000000000409184:  d2800001      mov x1, #0x0
0x0000000000409188:  1400000f      b #+0x3c (addr 0x4091c4)

----------------
IN: __sigsetjmp
0x00000000004091c4:  a9005013      stp x19, x20, [x0]
0x00000000004091c8:  a9015815      stp x21, x22, [x0, #16]
0x00000000004091cc:  a9026017      stp x23, x24, [x0, #32]
0x00000000004091d0:  a9036819      stp x25, x26, [x0, #48]
0x00000000004091d4:  a904701b      stp x27, x28, [x0, #64]
0x00000000004091d8:  900004e2      adrp x2, #+0x9c000 (addr 0x4a5000)
0x00000000004091dc:  f944dc43      ldr x3, [x2, #2488]
0x00000000004091e0:  ca0303c4      eor x4, x30, x3
0x00000000004091e4:  a905101d      stp x29, x4, [x0, #80]
0x00000000004091e8:  6d072408      stp d8, d9, [x0, #112]
0x00000000004091ec:  6d082c0a      stp d10, d11, [x0, #128]
0x00000000004091f0:  6d09340c      stp d12, d13, [x0, #144]
0x00000000004091f4:  6d0a3c0e      stp d14, d15, [x0, #160]
0x00000000004091f8:  910003e4      mov x4, sp
0x00000000004091fc:  900004e2      adrp x2, #+0x9c000 (addr 0x4a5000)
0x0000000000409200:  f944dc43      ldr x3, [x2, #2488]
0x0000000000409204:  ca030085      eor x5, x4, x3
0x0000000000409208:  f9003405      str x5, [x0, #104]
0x000000000040920c:  14000001      b #+0x4 (addr 0x409210)

----------------
IN: __sigjmp_save
0x0000000000409210:  a9be7bfd      stp x29, x30, [sp, #-32]!
0x0000000000409214:  910003fd      mov x29, sp
0x0000000000409218:  f9000bf3      str x19, [sp, #16]
0x000000000040921c:  aa0003f3      mov x19, x0
0x0000000000409220:  350000c1      cbnz w1, #+0x18 (addr 0x409238)

----------------
IN: __sigjmp_save
0x0000000000409224:  b900b261      str w1, [x19, #176]
0x0000000000409228:  52800000      mov w0, #0x0
0x000000000040922c:  f9400bf3      ldr x19, [sp, #16]
0x0000000000409230:  a8c27bfd      ldp x29, x30, [sp], #32
0x0000000000409234:  d65f03c0      ret

----------------
IN: __libc_start_call_main
0x000000000040456c:  350001e0      cbnz w0, #+0x3c (addr 0x4045a8)

----------------
IN: __libc_start_call_main
0x0000000000404570:  d53bd040      mrs x0, (unknown)
0x0000000000404574:  b0000541      adrp x1, #+0xa9000 (addr 0x4ad000)
0x0000000000404578:  d11f0000      sub x0, x0, #0x7c0 (1984)
0x000000000040457c:  9100e3e3      add x3, sp, #0x38 (56)
0x0000000000404580:  f947ec22      ldr x2, [x1, #4056]
0x0000000000404584:  f9408004      ldr x4, [x0, #256]
0x0000000000404588:  f9008003      str x3, [x0, #256]
0x000000000040458c:  f9407c03      ldr x3, [x0, #248]
0x0000000000404590:  a90f0fe4      stp x4, x3, [sp, #240]
0x0000000000404594:  b94027e0      ldr w0, [sp, #36]
0x0000000000404598:  f9400fe3      ldr x3, [sp, #24]
0x000000000040459c:  f94017e1      ldr x1, [sp, #40]
0x00000000004045a0:  d63f0060      blr x3

----------------
IN: _start
0x00000000004005b4:  d503201f      nop
0x00000000004005b8:  14000c66      b #+0x3198 (addr 0x403750)

----------------
IN: main
0x0000000000403750:  d10e83ff      sub sp, sp, #0x3a0 (928)
0x0000000000403754:  a9007bfd      stp x29, x30, [sp]
0x0000000000403758:  910003fd      mov x29, sp
0x000000000040375c:  b9001fe0      str w0, [sp, #28]
0x0000000000403760:  f9000be1      str x1, [sp, #16]
0x0000000000403764:  f0000500      adrp x0, #+0xa3000 (addr 0x4a6000)
0x0000000000403768:  f945dc00      ldr x0, [x0, #3000]
0x000000000040376c:  f9400001      ldr x1, [x0]
0x0000000000403770:  f901cfe1      str x1, [sp, #920]
0x0000000000403774:  d2800001      mov x1, #0x0
0x0000000000403778:  f9001bff      str xzr, [sp, #48]
0x000000000040377c:  90000340      adrp x0, #+0x68000 (addr 0x46b000)
0x0000000000403780:  912b8000      add x0, x0, #0xae0 (2784)
0x0000000000403784:  f9001fe0      str x0, [sp, #56]
0x0000000000403788:  1e2e1000      fmov s0, #0x70 (1.0000)
0x000000000040378c:  bd0023e0      str s0, [sp, #32]
0x0000000000403790:  528cccc0      mov w0, #0x6666
0x0000000000403794:  72a7ecc0      movk w0, #0x3f66, lsl #16
0x0000000000403798:  1e270000      fmov s0, w0
0x000000000040379c:  bd0027e0      str s0, [sp, #36]
0x00000000004037a0:  52802000      mov w0, #0x100
0x00000000004037a4:  b9002be0      str w0, [sp, #40]
0x00000000004037a8:  f90023ff      str xzr, [sp, #64]
0x00000000004037ac:  f90027ff      str xzr, [sp, #72]
0x00000000004037b0:  90000340      adrp x0, #+0x68000 (addr 0x46b000)
0x00000000004037b4:  912bc000      add x0, x0, #0xaf0 (2800)
0x00000000004037b8:  f9002be0      str x0, [sp, #80]
0x00000000004037bc:  f9002fff      str xzr, [sp, #88]
0x00000000004037c0:  b9401fe0      ldr w0, [sp, #28]
0x00000000004037c4:  7100041f      cmp w0, #0x1 (1)
0x00000000004037c8:  540000ad      b.le #+0x14 (addr 0x4037dc)

----------------
IN: main
0x00000000004037cc:  f9400be0      ldr x0, [sp, #16]
0x00000000004037d0:  f9400400      ldr x0, [x0, #8]
0x00000000004037d4:  f9001be0      str x0, [sp, #48]
0x00000000004037d8:  14000002      b #+0x8 (addr 0x4037e0)

----------------
IN: main
0x00000000004037e0:  52800040      mov w0, #0x2
0x00000000004037e4:  b9002fe0      str w0, [sp, #44]
0x00000000004037e8:  140000ac      b #+0x2b0 (addr 0x403a98)

----------------
IN: main
0x0000000000403a98:  b9402fe1      ldr w1, [sp, #44]
0x0000000000403a9c:  b9401fe0      ldr w0, [sp, #28]
0x0000000000403aa0:  6b00003f      cmp w1, w0
0x0000000000403aa4:  54ffea4b      b.lt #-0x2b8 (addr 0x4037ec)

----------------
IN: main
0x00000000004037ec:  b9402fe0      ldr w0, [sp, #44]
0x00000000004037f0:  11000400      add w0, w0, #0x1 (1)
0x00000000004037f4:  b9401fe1      ldr w1, [sp, #28]
0x00000000004037f8:  6b00003f      cmp w1, w0
0x00000000004037fc:  5400004c      b.gt #+0x8 (addr 0x403804)

----------------
IN: main
0x0000000000403804:  b9802fe0      ldrsw x0, [sp, #44]
0x0000000000403808:  d37df000      lsl x0, x0, #3
0x000000000040380c:  f9400be1      ldr x1, [sp, #16]
0x0000000000403810:  8b000020      add x0, x1, x0
0x0000000000403814:  f9400000      ldr x0, [x0]
0x0000000000403818:  39400000      ldrb w0, [x0]
0x000000000040381c:  7100b41f      cmp w0, #0x2d (45)
0x0000000000403820:  54000040      b.eq #+0x8 (addr 0x403828)

----------------
IN: main
0x0000000000403828:  b9802fe0      ldrsw x0, [sp, #44]
0x000000000040382c:  d37df000      lsl x0, x0, #3
0x0000000000403830:  f9400be1      ldr x1, [sp, #16]
0x0000000000403834:  8b000020      add x0, x1, x0
0x0000000000403838:  f9400000      ldr x0, [x0]
0x000000000040383c:  97fff2b1      bl #-0x353c (addr 0x400300)

----------------
IN: main
0x0000000000403840:  f100081f      cmp x0, #0x2 (2)
0x0000000000403844:  54000040      b.eq #+0x8 (addr 0x40384c)

----------------
IN: main
0x000000000040384c:  b9802fe0      ldrsw x0, [sp, #44]
0x0000000000403850:  d37df000      lsl x0, x0, #3
0x0000000000403854:  f9400be1      ldr x1, [sp, #16]
0x0000000000403858:  8b000020      add x0, x1, x0
0x000000000040385c:  f9400000      ldr x0, [x0]
0x0000000000403860:  91000400      add x0, x0, #0x1 (1)
0x0000000000403864:  39400000      ldrb w0, [x0]
0x0000000000403868:  7101d01f      cmp w0, #0x74 (116)
0x000000000040386c:  54000161      b.ne #+0x2c (addr 0x403898)

----------------
IN: main
0x0000000000403898:  b9802fe0      ldrsw x0, [sp, #44]
0x000000000040389c:  d37df000      lsl x0, x0, #3
0x00000000004038a0:  f9400be1      ldr x1, [sp, #16]
0x00000000004038a4:  8b000020      add x0, x1, x0
0x00000000004038a8:  f9400000      ldr x0, [x0]
0x00000000004038ac:  91000400      add x0, x0, #0x1 (1)
0x00000000004038b0:  39400000      ldrb w0, [x0]
0x00000000004038b4:  7101c01f      cmp w0, #0x70 (112)
0x00000000004038b8:  54000161      b.ne #+0x2c (addr 0x4038e4)

----------------
IN: main
0x00000000004038e4:  b9802fe0      ldrsw x0, [sp, #44]
0x00000000004038e8:  d37df000      lsl x0, x0, #3
0x00000000004038ec:  f9400be1      ldr x1, [sp, #16]
0x00000000004038f0:  8b000020      add x0, x1, x0
0x00000000004038f4:  f9400000      ldr x0, [x0]
0x00000000004038f8:  91000400      add x0, x0, #0x1 (1)
0x00000000004038fc:  39400000      ldrb w0, [x0]
0x0000000000403900:  7101cc1f      cmp w0, #0x73 (115)
0x0000000000403904:  54000161      b.ne #+0x2c (addr 0x403930)

----------------
IN: main
0x0000000000403930:  b9802fe0      ldrsw x0, [sp, #44]
0x0000000000403934:  d37df000      lsl x0, x0, #3
0x0000000000403938:  f9400be1      ldr x1, [sp, #16]
0x000000000040393c:  8b000020      add x0, x1, x0
0x0000000000403940:  f9400000      ldr x0, [x0]
0x0000000000403944:  91000400      add x0, x0, #0x1 (1)
0x0000000000403948:  39400000      ldrb w0, [x0]
0x000000000040394c:  7101b81f      cmp w0, #0x6e (110)
0x0000000000403950:  54000141      b.ne #+0x28 (addr 0x403978)

----------------
IN: main
0x0000000000403954:  b9802fe0      ldrsw x0, [sp, #44]
0x0000000000403958:  91000400      add x0, x0, #0x1 (1)
0x000000000040395c:  d37df000      lsl x0, x0, #3
0x0000000000403960:  f9400be1      ldr x1, [sp, #16]
0x0000000000403964:  8b000020      add x0, x1, x0
0x0000000000403968:  f9400000      ldr x0, [x0]
0x000000000040396c:  94001665      bl #+0x5994 (addr 0x409300)

----------------
IN: atoi
0x0000000000409300:  a9bf7bfd      stp x29, x30, [sp, #-16]!
0x0000000000409304:  52800142      mov w2, #0xa
0x0000000000409308:  d2800001      mov x1, #0x0
0x000000000040930c:  910003fd      mov x29, sp
0x0000000000409310:  94000321      bl #+0xc84 (addr 0x409f94)

----------------
IN: strtol
0x0000000000409f94:  b00004e4      adrp x4, #+0x9d000 (addr 0x4a6000)
0x0000000000409f98:  f9477484      ldr x4, [x4, #3816]
0x0000000000409f9c:  d53bd045      mrs x5, (unknown)
0x0000000000409fa0:  52800003      mov w3, #0x0
0x0000000000409fa4:  f86468a4      ldr x4, [x5, x4]
0x0000000000409fa8:  1400000e      b #+0x38 (addr 0x409fe0)

----------------
IN: ____strtol_l_internal
0x0000000000409fe0:  a9bb7bfd      stp x29, x30, [sp, #-80]!
0x0000000000409fe4:  910003fd      mov x29, sp
0x0000000000409fe8:  a9025bf5      stp x21, x22, [sp, #32]
0x0000000000409fec:  d2800016      mov x22, #0x0
0x0000000000409ff0:  a90363f7      stp x23, x24, [sp, #48]
0x0000000000409ff4:  aa0003f8      mov x24, x0
0x0000000000409ff8:  d2800017      mov x23, #0x0
0x0000000000409ffc:  a9046bf9      stp x25, x26, [sp, #64]

----------------
IN: ____strtol_l_internal
0x000000000040a000:  aa0103f9      mov x25, x1
0x000000000040a004:  f9400480      ldr x0, [x4, #8]
0x000000000040a008:  35001443      cbnz w3, #+0x288 (addr 0x40a290)

----------------
IN: ____strtol_l_internal
0x000000000040a00c:  7100905f      cmp w2, #0x24 (36)
0x000000000040a010:  7a419844      ccmp w2, #1, #nZcv, ls
0x000000000040a014:  54000181      b.ne #+0x30 (addr 0x40a044)

----------------
IN: ____strtol_l_internal
0x000000000040a044:  39400300      ldrb w0, [x24]
0x000000000040a048:  aa1803f5      mov x21, x24
0x000000000040a04c:  f9403483      ldr x3, [x4, #104]
0x000000000040a050:  d37f1c01      ubfiz x1, x0, #1, #8
0x000000000040a054:  78616861      ldrh w1, [x3, x1]
0x000000000040a058:  366800c1      tbz w1, #13, #+0x18 (addr 0x40a070)

----------------
IN: ____strtol_l_internal
0x000000000040a070:  34001700      cbz w0, #+0x2e0 (addr 0x40a350)

----------------
IN: ____strtol_l_internal
0x000000000040a074:  a90153f3      stp x19, x20, [sp, #16]
0x000000000040a078:  7100b41f      cmp w0, #0x2d (45)
0x000000000040a07c:  54000e00      b.eq #+0x1c0 (addr 0x40a23c)

----------------
IN: ____strtol_l_internal
0x000000000040a080:  7100ac1f      cmp w0, #0x2b (43)
0x000000000040a084:  5280001a      mov w26, #0x0
0x000000000040a088:  1a9f17e0      cset w0, eq
0x000000000040a08c:  8b0002b5      add x21, x21, x0
0x000000000040a090:  394002b3      ldrb w19, [x21]
0x000000000040a094:  7100c27f      cmp w19, #0x30 (48)
0x000000000040a098:  54000dc0      b.eq #+0x1b8 (addr 0x40a250)

----------------
IN: ____strtol_l_internal
0x000000000040a09c:  35000862      cbnz w2, #+0x10c (addr 0x40a1a8)

----------------
IN: ____strtol_l_internal
0x000000000040a1a8:  7100285f      cmp w2, #0xa (10)
0x000000000040a1ac:  54fff7a0      b.eq #-0x10c (addr 0x40a0a0)

----------------
IN: ____strtol_l_internal
0x000000000040a0a0:  b50015f7      cbnz x23, #+0x2bc (addr 0x40a35c)

----------------
IN: ____strtol_l_internal
0x000000000040a0a4:  b201e7e0      mov x0, #0x9999999999999999
0x000000000040a0a8:  528000a9      mov w9, #0x5
0x000000000040a0ac:  f2e33320      movk x0, #0x1999, lsl #48
0x000000000040a0b0:  52800142      mov w2, #0xa
0x000000000040a0b4:  d2800014      mov x20, #0x0
0x000000000040a0b8:  7100027f      cmp w19, #0x0 (0)
0x000000000040a0bc:  fa5512e4      ccmp x23, x21, #nZcv, ne
0x000000000040a0c0:  54001000      b.eq #+0x200 (addr 0x40a2c0)

----------------
IN: ____strtol_l_internal
0x000000000040a0c4:  900004e1      adrp x1, #+0x9c000 (addr 0x4a6000)
0x000000000040a0c8:  91272023      add x3, x1, #0x9c8 (2504)
0x000000000040a0cc:  f9403c63      ldr x3, [x3, #120]
0x000000000040a0d0:  91272024      add x4, x1, #0x9c8 (2504)
0x000000000040a0d4:  aa1503e5      mov x5, x21
0x000000000040a0d8:  93407c4a      sxtw x10, w2
0x000000000040a0dc:  d100068b      sub x11, x20, #0x1 (1)
0x000000000040a0e0:  d2800007      mov x7, #0x0
0x000000000040a0e4:  52800001      mov w1, #0x0
0x000000000040a0e8:  f9403488      ldr x8, [x4, #104]
0x000000000040a0ec:  1400000a      b #+0x28 (addr 0x40a114)

----------------
IN: ____strtol_l_internal
0x000000000040a114:  5100c264      sub w4, w19, #0x30 (48)
0x000000000040a118:  12001c84      and w4, w4, #0xff
0x000000000040a11c:  7100249f      cmp w4, #0x9 (9)
0x000000000040a120:  54000129      b.ls #+0x24 (addr 0x40a144)

----------------
IN: ____strtol_l_internal
0x000000000040a144:  6b02009f      cmp w4, w2
0x000000000040a148:  5400012a      b.ge #+0x24 (addr 0x40a16c)

----------------
IN: ____strtol_l_internal
0x000000000040a14c:  eb07001f      cmp x0, x7
0x000000000040a150:  54fffd02      b.hs #-0x60 (addr 0x40a0f0)

----------------
IN: ____strtol_l_internal
0x000000000040a0f0:  7a490080      ccmp w4, w9, #nzcv, eq
0x000000000040a0f4:  54000308      b.hi #+0x60 (addr 0x40a154)

----------------
IN: ____strtol_l_internal
0x000000000040a0f8:  92401c84      and x4, x4, #0xff
0x000000000040a0fc:  9b071147      madd x7, x10, x7, x4
0x000000000040a100:  394004b3      ldrb w19, [x5, #1]
0x000000000040a104:  910004a5      add x5, x5, #0x1 (1)
0x000000000040a108:  7100027f      cmp w19, #0x0 (0)
0x000000000040a10c:  fa5710a4      ccmp x5, x23, #nZcv, ne
0x000000000040a110:  540002e0      b.eq #+0x5c (addr 0x40a16c)

----------------
IN: ____strtol_l_internal
0x000000000040a16c:  eb0502bf      cmp x21, x5
0x000000000040a170:  54000aa0      b.eq #+0x154 (addr 0x40a2c4)

----------------
IN: ____strtol_l_internal
0x000000000040a174:  b4000059      cbz x25, #+0x8 (addr 0x40a17c)

----------------
IN: ____strtol_l_internal
0x000000000040a17c:  34000481      cbz w1, #+0x90 (addr 0x40a20c)

----------------
IN: ____strtol_l_internal
0x000000000040a20c:  92f00000      mov x0, #0x7fffffffffffffff
0x000000000040a210:  8b3ac000      add x0, x0, w26, sxtw
0x000000000040a214:  eb0000ff      cmp x7, x0
0x000000000040a218:  54fffb48      b.hi #-0x98 (addr 0x40a180)

----------------
IN: ____strtol_l_internal
0x000000000040a21c:  7100035f      cmp w26, #0x0 (0)
0x000000000040a220:  da8704e0      cneg x0, x7, ne
0x000000000040a224:  a94153f3      ldp x19, x20, [sp, #16]
0x000000000040a228:  a9425bf5      ldp x21, x22, [sp, #32]
0x000000000040a22c:  a94363f7      ldp x23, x24, [sp, #48]
0x000000000040a230:  a9446bf9      ldp x25, x26, [sp, #64]
0x000000000040a234:  a8c57bfd      ldp x29, x30, [sp], #80
0x000000000040a238:  d65f03c0      ret

----------------
IN: atoi
0x0000000000409314:  a8c17bfd      ldp x29, x30, [sp], #16
0x0000000000409318:  d65f03c0      ret

----------------
IN: main
0x0000000000403970:  b9002be0      str w0, [sp, #40]
0x0000000000403974:  14000046      b #+0x118 (addr 0x403a8c)

----------------
IN: main
0x0000000000403a8c:  b9402fe0      ldr w0, [sp, #44]
0x0000000000403a90:  11000800      add w0, w0, #0x2 (2)
0x0000000000403a94:  b9002fe0      str w0, [sp, #44]
0x0000000000403a98:  b9402fe1      ldr w1, [sp, #44]
0x0000000000403a9c:  b9401fe0      ldr w0, [sp, #28]
0x0000000000403aa0:  6b00003f      cmp w1, w0
0x0000000000403aa4:  54ffea4b      b.lt #-0x2b8 (addr 0x4037ec)

----------------
IN: main
0x0000000000403aa8:  f94027e0      ldr x0, [sp, #72]
0x0000000000403aac:  f100001f      cmp x0, #0x0 (0)
0x0000000000403ab0:  540000a1      b.ne #+0x14 (addr 0x403ac4)

----------------
IN: main
0x0000000000403ab4:  d2800000      mov x0, #0x0
0x0000000000403ab8:  9400ac7a      bl #+0x2b1e8 (addr 0x42eca0)

----------------
IN: time
0x000000000042eca0:  a9bc7bfd      stp x29, x30, [sp, #-64]!
0x000000000042eca4:  910003fd      mov x29, sp
0x000000000042eca8:  a90153f3      stp x19, x20, [sp, #16]
0x000000000042ecac:  900003d3      adrp x19, #+0x78000 (addr 0x4a6000)
0x000000000042ecb0:  aa0003f4      mov x20, x0
0x000000000042ecb4:  f945de62      ldr x2, [x19, #3000]
0x000000000042ecb8:  9100a3e1      add x1, sp, #0x28 (40)
0x000000000042ecbc:  528000a0      mov w0, #0x5
0x000000000042ecc0:  f9400043      ldr x3, [x2]
0x000000000042ecc4:  f9001fe3      str x3, [sp, #56]
0x000000000042ecc8:  d2800003      mov x3, #0x0
0x000000000042eccc:  94000011      bl #+0x44 (addr 0x42ed10)

----------------
IN: __clock_gettime
0x000000000042ed10:  900003c2      adrp x2, #+0x78000 (addr 0x4a6000)
0x000000000042ed14:  f9469c42      ldr x2, [x2, #3384]
0x000000000042ed18:  f9400042      ldr x2, [x2]
0x000000000042ed1c:  b4000102      cbz x2, #+0x20 (addr 0x42ed3c)

----------------
IN: __clock_gettime
0x000000000042ed3c:  93407c00      sxtw x0, w0
0x000000000042ed40:  d2800e28      mov x8, #0x71
0x000000000042ed44:  d4000001      svc #0x0

----------------
IN: __clock_gettime
0x000000000042ed48:  34000140      cbz w0, #+0x28 (addr 0x42ed70)

----------------
IN: __clock_gettime
0x000000000042ed70:  52800000      mov w0, #0x0
0x000000000042ed74:  d65f03c0      ret

----------------
IN: time
0x000000000042ecd0:  f94017e0      ldr x0, [sp, #40]
0x000000000042ecd4:  b4000054      cbz x20, #+0x8 (addr 0x42ecdc)

----------------
IN: time
0x000000000042ecdc:  f945de73      ldr x19, [x19, #3000]
0x000000000042ece0:  f9401fe1      ldr x1, [sp, #56]
0x000000000042ece4:  f9400262      ldr x2, [x19]
0x000000000042ece8:  eb020021      subs x1, x1, x2
0x000000000042ecec:  d2800002      mov x2, #0x0
0x000000000042ecf0:  54000081      b.ne #+0x10 (addr 0x42ed00)

----------------
IN: time
0x000000000042ecf4:  a94153f3      ldp x19, x20, [sp, #16]
0x000000000042ecf8:  a8c47bfd      ldp x29, x30, [sp], #64
0x000000000042ecfc:  d65f03c0      ret

----------------
IN: main
0x0000000000403abc:  2a0003e0      mov w0, w0
0x0000000000403ac0:  f90027e0      str x0, [sp, #72]
0x0000000000403ac4:  bd4023e0      ldr s0, [sp, #32]
0x0000000000403ac8:  1e202018      fcmpe s0, #0.0
0x0000000000403acc:  54000044      b.mi #+0x8 (addr 0x403ad4)

----------------
IN: main
0x0000000000403ad0:  14000002      b #+0x8 (addr 0x403ad8)

----------------
IN: main
0x0000000000403ad8:  bd4027e0      ldr s0, [sp, #36]
0x0000000000403adc:  1e202018      fcmpe s0, #0.0
0x0000000000403ae0:  540000c4      b.mi #+0x18 (addr 0x403af8)

----------------
IN: main
0x0000000000403ae4:  bd4027e1      ldr s1, [sp, #36]
0x0000000000403ae8:  1e2e1000      fmov s0, #0x70 (1.0000)
0x0000000000403aec:  1e202030      fcmpe s1, s0
0x0000000000403af0:  5400004c      b.gt #+0x8 (addr 0x403af8)

----------------
IN: main
0x0000000000403af4:  14000005      b #+0x14 (addr 0x403b08)

----------------
IN: main
0x0000000000403b08:  b9402be0      ldr w0, [sp, #40]
0x0000000000403b0c:  7100001f      cmp w0, #0x0 (0)
0x0000000000403b10:  5400004a      b.ge #+0x8 (addr 0x403b18)

----------------
IN: main
0x0000000000403b18:  910203e0      add x0, sp, #0x80 (128)
0x0000000000403b1c:  f9401be1      ldr x1, [sp, #48]
0x0000000000403b20:  97fff503      bl #-0x2bf4 (addr 0x400f2c)

----------------
IN: build_transformer
0x0000000000400f2c:  a9be7bfd      stp x29, x30, [sp, #-32]!
0x0000000000400f30:  910003fd      mov x29, sp
0x0000000000400f34:  f9000fe0      str x0, [sp, #24]
0x0000000000400f38:  f9000be1      str x1, [sp, #16]
0x0000000000400f3c:  f9400fe1      ldr x1, [sp, #24]
0x0000000000400f40:  f9400fe0      ldr x0, [sp, #24]
0x0000000000400f44:  91008002      add x2, x0, #0x20 (32)
0x0000000000400f48:  f9400fe0      ldr x0, [sp, #24]
0x0000000000400f4c:  91038003      add x3, x0, #0xe0 (224)
0x0000000000400f50:  f9400fe0      ldr x0, [sp, #24]
0x0000000000400f54:  9103a004      add x4, x0, #0xe8 (232)
0x0000000000400f58:  f9400fe0      ldr x0, [sp, #24]
0x0000000000400f5c:  9103c000      add x0, x0, #0xf0 (240)
0x0000000000400f60:  aa0003e5      mov x5, x0
0x0000000000400f64:  f9400be0      ldr x0, [sp, #16]
0x0000000000400f68:  97ffff79      bl #-0x21c (addr 0x400d4c)

----------------
IN: read_checkpoint
0x0000000000400d4c:  a9ba7bfd      stp x29, x30, [sp, #-96]!
0x0000000000400d50:  910003fd      mov x29, sp
0x0000000000400d54:  f9001fe0      str x0, [sp, #56]
0x0000000000400d58:  f9001be1      str x1, [sp, #48]
0x0000000000400d5c:  f90017e2      str x2, [sp, #40]
0x0000000000400d60:  f90013e3      str x3, [sp, #32]
0x0000000000400d64:  f9000fe4      str x4, [sp, #24]
0x0000000000400d68:  f9000be5      str x5, [sp, #16]
0x0000000000400d6c:  f0000340      adrp x0, #+0x6b000 (addr 0x46b000)
0x0000000000400d70:  911ca001      add x1, x0, #0x728 (1832)
0x0000000000400d74:  f9401fe0      ldr x0, [sp, #56]
0x0000000000400d78:  940065f2      bl #+0x197c8 (addr 0x41a540)

----------------
IN: _IO_fopen
0x000000000041a540:  52800022      mov w2, #0x1
0x000000000041a544:  17ffffbb      b #-0x114 (addr 0x41a430)

----------------
IN: __fopen_internal
0x000000000041a430:  a9bc7bfd      stp x29, x30, [sp, #-64]!
0x000000000041a434:  910003fd      mov x29, sp
0x000000000041a438:  a90153f3      stp x19, x20, [sp, #16]
0x000000000041a43c:  2a0203f4      mov w20, w2
0x000000000041a440:  a9025bf5      stp x21, x22, [sp, #32]
0x000000000041a444:  aa0103f6      mov x22, x1
0x000000000041a448:  f9001bf7      str x23, [sp, #48]
0x000000000041a44c:  aa0003f7      mov x23, x0
0x000000000041a450:  d2803b00      mov x0, #0x1d8
0x000000000041a454:  940038a3      bl #+0xe28c (addr 0x4286e0)

----------------
IN: __fopen_internal
0x000000000041a458:  b4000700      cbz x0, #+0xe0 (addr 0x41a538)

----------------
IN: __fopen_internal
0x000000000041a45c:  91038005      add x5, x0, #0xe0 (224)
0x000000000041a460:  f9004405      str x5, [x0, #136]
0x000000000041a464:  aa0003f3      mov x19, x0
0x000000000041a468:  9103c003      add x3, x0, #0xf0 (240)
0x000000000041a46c:  52800002      mov w2, #0x0
0x000000000041a470:  52800001      mov w1, #0x0
0x000000000041a474:  aa0003f5      mov x21, x0
0x000000000041a478:  d0000464      adrp x4, #+0x8e000 (addr 0x4a8000)
0x000000000041a47c:  9130c084      add x4, x4, #0xc30 (3120)
0x000000000041a480:  94001e75      bl #+0x79d4 (addr 0x421e54)

----------------
IN: _IO_no_init
0x0000000000421e54:  90000445      adrp x5, #+0x88000 (addr 0x4a9000)
0x0000000000421e58:  52bf75a6      mov w6, #0xfbad0000
0x0000000000421e5c:  2a060021      orr w1, w1, w6
0x0000000000421e60:  b9000001      str w1, [x0]
0x0000000000421e64:  b94f20a5      ldr w5, [x5, #3872]
0x0000000000421e68:  a900fc1f      stp xzr, xzr, [x0, #8]
0x0000000000421e6c:  710000bf      cmp w5, #0x0 (0)
0x0000000000421e70:  1a9f07e1      cset w1, ne
0x0000000000421e74:  a901fc1f      stp xzr, xzr, [x0, #24]
0x0000000000421e78:  f9404405      ldr x5, [x0, #136]
0x0000000000421e7c:  53196021      lsl w1, w1, #7
0x0000000000421e80:  a902fc1f      stp xzr, xzr, [x0, #40]
0x0000000000421e84:  a903fc1f      stp xzr, xzr, [x0, #56]
0x0000000000421e88:  a904fc1f      stp xzr, xzr, [x0, #72]
0x0000000000421e8c:  a905fc1f      stp xzr, xzr, [x0, #88]
0x0000000000421e90:  f900341f      str xzr, [x0, #104]
0x0000000000421e94:  b9007401      str w1, [x0, #116]
0x0000000000421e98:  7901001f      strh wzr, [x0, #128]
0x0000000000421e9c:  b4000045      cbz x5, #+0x8 (addr 0x421ea4)

----------------
IN: _IO_no_init
0x0000000000421ea0:  a9007cbf      stp xzr, xzr, [x5]
0x0000000000421ea4:  b900c002      str w2, [x0, #192]
0x0000000000421ea8:  37f80162      tbnz w2, #31, #+0x2c (addr 0x421ed4)

----------------
IN: _IO_no_init
0x0000000000421eac:  f9005003      str x3, [x0, #160]
0x0000000000421eb0:  a9007c7f      stp xzr, xzr, [x3]
0x0000000000421eb4:  a9017c7f      stp xzr, xzr, [x3, #16]
0x0000000000421eb8:  a9027c7f      stp xzr, xzr, [x3, #32]
0x0000000000421ebc:  a9037c7f      stp xzr, xzr, [x3, #48]
0x0000000000421ec0:  a9047c7f      stp xzr, xzr, [x3, #64]
0x0000000000421ec4:  f900287f      str xzr, [x3, #80]
0x0000000000421ec8:  f9007064      str x4, [x3, #224]
0x0000000000421ecc:  f900541f      str xzr, [x0, #168]
0x0000000000421ed0:  d65f03c0      ret

----------------
IN: __fopen_internal
0x000000000041a484:  d0000463      adrp x3, #+0x8e000 (addr 0x4a8000)
0x000000000041a488:  91336063      add x3, x3, #0xcd8 (3288)
0x000000000041a48c:  f9006e63      str x3, [x19, #216]
0x000000000041a490:  aa1303e0      mov x0, x19
0x000000000041a494:  940016cf      bl #+0x5b3c (addr 0x41ffd0)

----------------
IN: _IO_new_file_init_internal
0x000000000041ffd0:  a9be7bfd      stp x29, x30, [sp, #-32]!
0x000000000041ffd4:  52848182      mov w2, #0x240c
0x000000000041ffd8:  910003fd      mov x29, sp
0x000000000041ffdc:  b9400001      ldr w1, [x0]
0x000000000041ffe0:  a90153f3      stp x19, x20, [sp, #16]
0x000000000041ffe4:  aa0003f3      mov x19, x0
0x000000000041ffe8:  2a020021      orr w1, w1, w2
0x000000000041ffec:  92800014      mov x20, #0xffffffffffffffff
0x000000000041fff0:  b9000001      str w1, [x0]
0x000000000041fff4:  f9004814      str x20, [x0, #144]
0x000000000041fff8:  94000413      bl #+0x104c (addr 0x421044)

----------------
IN: _IO_link_in
0x0000000000421044:  a9b97bfd      stp x29, x30, [sp, #-112]!
0x0000000000421048:  910003fd      mov x29, sp
0x000000000042104c:  a9025bf5      stp x21, x22, [sp, #32]
0x0000000000421050:  b0000435      adrp x21, #+0x85000 (addr 0x4a6000)
0x0000000000421054:  f945dea1      ldr x1, [x21, #3000]
0x0000000000421058:  a90153f3      stp x19, x20, [sp, #16]
0x000000000042105c:  aa0003f3      mov x19, x0
0x0000000000421060:  b9400000      ldr w0, [x0]
0x0000000000421064:  f9400022      ldr x2, [x1]
0x0000000000421068:  f90037e2      str x2, [sp, #104]
0x000000000042106c:  d2800002      mov x2, #0x0
0x0000000000421070:  36380160      tbz w0, #7, #+0x2c (addr 0x42109c)

----------------
IN: _IO_link_in
0x000000000042109c:  f0ffffe1      adrp x1, #-0x1000 (addr 0x420000)
0x00000000004210a0:  912e0021      add x1, x1, #0xb80 (2944)
0x00000000004210a4:  a90363f7      stp x23, x24, [sp, #48]
0x00000000004210a8:  32190000      orr w0, w0, #0x80
0x00000000004210ac:  910123f8      add x24, sp, #0x48 (72)
0x00000000004210b0:  b9000260      str w0, [x19]
0x00000000004210b4:  aa1803e0      mov x0, x24
0x00000000004210b8:  a904ffe1      stp x1, xzr, [sp, #72]
0x00000000004210bc:  90000454      adrp x20, #+0x88000 (addr 0x4a9000)
0x00000000004210c0:  94000938      bl #+0x24e0 (addr 0x4235a0)

----------------
IN: __libc_cleanup_push_defer
0x00000000004235a0:  d53bd041      mrs x1, (unknown)
0x00000000004235a4:  d11f0021      sub x1, x1, #0x7c0 (1984)
0x00000000004235a8:  f9407c22      ldr x2, [x1, #248]
0x00000000004235ac:  f9000c02      str x2, [x0, #24]
0x00000000004235b0:  395dc822      ldrb w2, [x1, #1906]
0x00000000004235b4:  b9001002      str w2, [x0, #16]
0x00000000004235b8:  f9007c20      str x0, [x1, #248]
0x00000000004235bc:  391dc83f      strb wzr, [x1, #1906]
0x00000000004235c0:  d65f03c0      ret

----------------
IN: _IO_link_in
0x00000000004210c4:  913be282      add x2, x20, #0xef8 (3832)
0x00000000004210c8:  d53bd056      mrs x22, (unknown)
0x00000000004210cc:  d11f02d6      sub x22, x22, #0x7c0 (1984)
0x00000000004210d0:  f9400840      ldr x0, [x2, #16]
0x00000000004210d4:  eb16001f      cmp x0, x22
0x00000000004210d8:  54000120      b.eq #+0x24 (addr 0x4210fc)

----------------
IN: _IO_link_in
0x00000000004210dc:  91002057      add x23, x2, #0x8 (8)
0x00000000004210e0:  52800021      mov w1, #0x1
0x00000000004210e4:  aa1703e2      mov x2, x23
0x00000000004210e8:  52800000      mov w0, #0x0
0x00000000004210ec:  94010c6d      bl #+0x431b4 (addr 0x4642a0)

----------------
IN: __aarch64_cas4_acq
0x00000000004642b0:  88e07c41      unimplemented (LoadStoreExclusive)
0x00000000004642b4:  d65f03c0      ret

----------------
IN: _IO_link_in
0x00000000004210f0:  35000920      cbnz w0, #+0x124 (addr 0x421214)

----------------
IN: _IO_link_in
0x00000000004210f4:  913be280      add x0, x20, #0xef8 (3832)
0x00000000004210f8:  f9000816      str x22, [x0, #16]
0x00000000004210fc:  913be281      add x1, x20, #0xef8 (3832)
0x0000000000421100:  b9400262      ldr w2, [x19]
0x0000000000421104:  f9077e93      str x19, [x20, #3832]
0x0000000000421108:  b9400c20      ldr w0, [x1, #12]
0x000000000042110c:  11000400      add w0, w0, #0x1 (1)
0x0000000000421110:  b9000c20      str w0, [x1, #12]
0x0000000000421114:  37780422      tbnz w2, #15, #+0x84 (addr 0x421198)

----------------
IN: _IO_link_in
0x0000000000421118:  f9404677      ldr x23, [x19, #136]
0x000000000042111c:  f94006e0      ldr x0, [x23, #8]
0x0000000000421120:  eb0002df      cmp x22, x0
0x0000000000421124:  54000680      b.eq #+0xd0 (addr 0x4211f4)

----------------
IN: _IO_link_in
0x0000000000421128:  aa1703e2      mov x2, x23
0x000000000042112c:  52800021      mov w1, #0x1
0x0000000000421130:  52800000      mov w0, #0x0
0x0000000000421134:  94010c5b      bl #+0x4316c (addr 0x4642a0)

----------------
IN: _IO_link_in
0x0000000000421138:  35000740      cbnz w0, #+0xe8 (addr 0x421220)

----------------
IN: _IO_link_in
0x000000000042113c:  f9404677      ldr x23, [x19, #136]
0x0000000000421140:  d0000421      adrp x1, #+0x86000 (addr 0x4a7000)
0x0000000000421144:  b9400262      ldr w2, [x19]
0x0000000000421148:  f9403023      ldr x3, [x1, #96]
0x000000000042114c:  f90006f6      str x22, [x23, #8]
0x0000000000421150:  b94006e0      ldr w0, [x23, #4]
0x0000000000421154:  11000400      add w0, w0, #0x1 (1)
0x0000000000421158:  b90006e0      str w0, [x23, #4]
0x000000000042115c:  f9003033      str x19, [x1, #96]
0x0000000000421160:  f9003663      str x3, [x19, #104]
0x0000000000421164:  37780222      tbnz w2, #15, #+0x44 (addr 0x4211a8)

----------------
IN: _IO_link_in
0x0000000000421168:  b94006e0      ldr w0, [x23, #4]
0x000000000042116c:  51000400      sub w0, w0, #0x1 (1)
0x0000000000421170:  b90006e0      str w0, [x23, #4]
0x0000000000421174:  350001a0      cbnz w0, #+0x34 (addr 0x4211a8)

----------------
IN: _IO_link_in
0x0000000000421178:  f90006ff      str xzr, [x23, #8]
0x000000000042117c:  aa1703e1      mov x1, x23
0x0000000000421180:  94010cdc      bl #+0x43370 (addr 0x4644f0)

----------------
IN: __aarch64_swp4_rel
0x0000000000464500:  b8608020      unallocated (Unallocated)
0x0000000000464504:  d65f03c0      ret

----------------
IN: _IO_link_in
0x0000000000421184:  7100041f      cmp w0, #0x1 (1)
0x0000000000421188:  5400010d      b.le #+0x20 (addr 0x4211a8)

----------------
IN: _IO_link_in
0x00000000004211a8:  913be282      add x2, x20, #0xef8 (3832)
0x00000000004211ac:  f9077e9f      str xzr, [x20, #3832]
0x00000000004211b0:  b9400c40      ldr w0, [x2, #12]
0x00000000004211b4:  51000400      sub w0, w0, #0x1 (1)
0x00000000004211b8:  b9000c40      str w0, [x2, #12]
0x00000000004211bc:  340000a0      cbz w0, #+0x14 (addr 0x4211d0)

----------------
IN: _IO_link_in
0x00000000004211d0:  f900085f      str xzr, [x2, #16]
0x00000000004211d4:  91002053      add x19, x2, #0x8 (8)
0x00000000004211d8:  aa1303e1      mov x1, x19
0x00000000004211dc:  94010cc5      bl #+0x43314 (addr 0x4644f0)

----------------
IN: _IO_link_in
0x00000000004211e0:  7100041f      cmp w0, #0x1 (1)
0x00000000004211e4:  54fffeed      b.le #-0x24 (addr 0x4211c0)

----------------
IN: _IO_link_in
0x00000000004211c0:  aa1803e0      mov x0, x24
0x00000000004211c4:  94000900      bl #+0x2400 (addr 0x4235c4)

----------------
IN: __libc_cleanup_pop_restore
0x00000000004235c4:  d53bd041      mrs x1, (unknown)
0x00000000004235c8:  b9401002      ldr w2, [x0, #16]
0x00000000004235cc:  d11f0021      sub x1, x1, #0x7c0 (1984)
0x00000000004235d0:  f9400c00      ldr x0, [x0, #24]
0x00000000004235d4:  f9007c20      str x0, [x1, #248]
0x00000000004235d8:  391dc822      strb w2, [x1, #1906]
0x00000000004235dc:  7100045f      cmp w2, #0x1 (1)
0x00000000004235e0:  54000040      b.eq #+0x8 (addr 0x4235e8)

----------------
IN: __libc_cleanup_pop_restore
0x00000000004235e4:  d65f03c0      ret

----------------
IN: _IO_link_in
0x00000000004211c8:  a94363f7      ldp x23, x24, [sp, #48]
0x00000000004211cc:  17ffffaa      b #-0x158 (addr 0x421074)

----------------
IN: _IO_link_in
0x0000000000421074:  f945dea0      ldr x0, [x21, #3000]
0x0000000000421078:  f94037e2      ldr x2, [sp, #104]
0x000000000042107c:  f9400001      ldr x1, [x0]
0x0000000000421080:  eb010042      subs x2, x2, x1
0x0000000000421084:  d2800001      mov x1, #0x0
0x0000000000421088:  54000d21      b.ne #+0x1a4 (addr 0x42122c)

----------------
IN: _IO_link_in
0x000000000042108c:  a94153f3      ldp x19, x20, [sp, #16]
0x0000000000421090:  a9425bf5      ldp x21, x22, [sp, #32]
0x0000000000421094:  a8c77bfd      ldp x29, x30, [sp], #112
0x0000000000421098:  d65f03c0      ret

----------------
IN: _IO_new_file_init_internal
0x000000000041fffc:  b9007274      str w20, [x19, #112]

----------------
IN: _IO_new_file_init_internal
0x0000000000420000:  a94153f3      ldp x19, x20, [sp, #16]
0x0000000000420004:  a8c27bfd      ldp x29, x30, [sp], #32
0x0000000000420008:  d65f03c0      ret

----------------
IN: __fopen_internal
0x000000000041a498:  2a1403e3      mov w3, w20
0x000000000041a49c:  aa1603e2      mov x2, x22
0x000000000041a4a0:  aa1703e1      mov x1, x23
0x000000000041a4a4:  aa1303e0      mov x0, x19
0x000000000041a4a8:  940017ce      bl #+0x5f38 (addr 0x4203e0)

----------------
IN: _IO_file_fopen
0x00000000004203e0:  a9b97bfd      stp x29, x30, [sp, #-112]!
0x00000000004203e4:  910003fd      mov x29, sp
0x00000000004203e8:  a9025bf5      stp x21, x22, [sp, #32]
0x00000000004203ec:  d0000435      adrp x21, #+0x86000 (addr 0x4a6000)
0x00000000004203f0:  a90153f3      stp x19, x20, [sp, #16]
0x00000000004203f4:  aa0003f4      mov x20, x0
0x00000000004203f8:  f945dea0      ldr x0, [x21, #3000]
0x00000000004203fc:  b9407284      ldr w4, [x20, #112]
0x0000000000420400:  f9400005      ldr x5, [x0]
0x0000000000420404:  f90037e5      str x5, [sp, #104]
0x0000000000420408:  d2800005      mov x5, #0x0
0x000000000042040c:  3100049f      cmn w4, #0x1 (1)
0x0000000000420410:  54000fe1      b.ne #+0x1fc (addr 0x42060c)

----------------
IN: _IO_file_fopen
0x0000000000420414:  39400040      ldrb w0, [x2]
0x0000000000420418:  2a0303e5      mov w5, w3
0x000000000042041c:  7101c81f      cmp w0, #0x72 (114)
0x0000000000420420:  54001a20      b.eq #+0x344 (addr 0x420764)

----------------
IN: _IO_file_fopen
0x0000000000420764:  52800104      mov w4, #0x8
0x0000000000420768:  52800007      mov w7, #0x0
0x000000000042076c:  52800003      mov w3, #0x0
0x0000000000420770:  17ffff46      b #-0x2e8 (addr 0x420488)

----------------
IN: _IO_file_fopen
0x0000000000420488:  91001840      add x0, x2, #0x6 (6)
0x000000000042048c:  aa0203f3      mov x19, x2
0x0000000000420490:  38401c46      ldrb w6, [x2, #1]!
0x0000000000420494:  71018cdf      cmp w6, #0x63 (99)
0x0000000000420498:  54000dc0      b.eq #+0x1b8 (addr 0x420650)

----------------
IN: _IO_file_fopen
0x000000000042049c:  540009c8      b.hi #+0x138 (addr 0x4205d4)

----------------
IN: _IO_file_fopen
0x00000000004204a0:  7100acdf      cmp w6, #0x2b (43)
0x00000000004204a4:  54000ce0      b.eq #+0x19c (addr 0x420640)

----------------
IN: _IO_file_fopen
0x00000000004204a8:  710188df      cmp w6, #0x62 (98)
0x00000000004204ac:  54000a21      b.ne #+0x144 (addr 0x4205f0)

----------------
IN: _IO_file_fopen
0x00000000004204b0:  aa0203f3      mov x19, x2
0x00000000004204b4:  eb00005f      cmp x2, x0
0x00000000004204b8:  54fffec1      b.ne #-0x28 (addr 0x420490)

----------------
IN: _IO_file_fopen
0x0000000000420490:  38401c46      ldrb w6, [x2, #1]!
0x0000000000420494:  71018cdf      cmp w6, #0x63 (99)
0x0000000000420498:  54000dc0      b.eq #+0x1b8 (addr 0x420650)

----------------
IN: _IO_file_fopen
0x00000000004205f0:  35fff626      cbnz w6, #-0x13c (addr 0x4204b4)

----------------
IN: _IO_file_fopen
0x00000000004205f4:  2a070062      orr w2, w3, w7
0x00000000004205f8:  aa1403e0      mov x0, x20
0x00000000004205fc:  528036c3      mov w3, #0x1b6
0x0000000000420600:  97fffe94      bl #-0x5b0 (addr 0x420050)

----------------
IN: _IO_file_open
0x0000000000420050:  a9bd7bfd      stp x29, x30, [sp, #-48]!
0x0000000000420054:  910003fd      mov x29, sp
0x0000000000420058:  a90153f3      stp x19, x20, [sp, #16]
0x000000000042005c:  aa0003f3      mov x19, x0
0x0000000000420060:  aa0103e0      mov x0, x1
0x0000000000420064:  2a0203e1      mov w1, w2
0x0000000000420068:  2a0303e2      mov w2, w3
0x000000000042006c:  b9407665      ldr w5, [x19, #116]
0x0000000000420070:  f90013f5      str x21, [sp, #32]
0x0000000000420074:  2a0403f5      mov w21, w4
0x0000000000420078:  37080685      tbnz w5, #1, #+0xd0 (addr 0x420148)

----------------
IN: _IO_file_open
0x000000000042007c:  94003d75      bl #+0xf5d4 (addr 0x42f650)

----------------
IN: open64
0x000000000042f650:  a9b87bfd      stp x29, x30, [sp, #-128]!
0x000000000042f654:  910003fd      mov x29, sp
0x000000000042f658:  a90153f3      stp x19, x20, [sp, #16]
0x000000000042f65c:  f00003b4      adrp x20, #+0x77000 (addr 0x4a6000)
0x000000000042f660:  f9003fe2      str x2, [sp, #120]
0x000000000042f664:  2a0103e2      mov w2, w1
0x000000000042f668:  f945de81      ldr x1, [x20, #3000]
0x000000000042f66c:  a9025bf5      stp x21, x22, [sp, #32]
0x000000000042f670:  aa0003f5      mov x21, x0
0x000000000042f674:  f9001bf7      str x23, [sp, #48]
0x000000000042f678:  f9400020      ldr x0, [x1]
0x000000000042f67c:  f90037e0      str x0, [sp, #104]
0x000000000042f680:  d2800000      mov x0, #0x0
0x000000000042f684:  37300402      tbnz w2, #6, #+0x80 (addr 0x42f704)

----------------
IN: open64
0x000000000042f688:  12122040      and w0, w2, #0x7fc000
0x000000000042f68c:  d2800016      mov x22, #0x0
0x000000000042f690:  120a6000      and w0, w0, #0xffc07fff
0x000000000042f694:  7150101f      cmp w0, #0x404000 (4210688)
0x000000000042f698:  54000360      b.eq #+0x6c (addr 0x42f704)

----------------
IN: open64
0x000000000042f69c:  d53bd057      mrs x23, (unknown)
0x000000000042f6a0:  93407c53      sxtw x19, w2
0x000000000042f6a4:  d11f02e0      sub x0, x23, #0x7c0 (1984)
0x000000000042f6a8:  b9400000      ldr w0, [x0]
0x000000000042f6ac:  35000440      cbnz w0, #+0x88 (addr 0x42f734)

----------------
IN: open64
0x000000000042f6b0:  aa1503e1      mov x1, x21
0x000000000042f6b4:  aa1303e2      mov x2, x19
0x000000000042f6b8:  aa1603e3      mov x3, x22
0x000000000042f6bc:  92800c60      mov x0, #0xffffffffffffff9c
0x000000000042f6c0:  d2800708      mov x8, #0x38
0x000000000042f6c4:  d4000001      svc #0x0

----------------
IN: open64
0x000000000042f6c8:  b140041f      cmn x0, #0x1000 (4096)
0x000000000042f6cc:  54000508      b.hi #+0xa0 (addr 0x42f76c)

----------------
IN: open64
0x000000000042f6d0:  2a0003f3      mov w19, w0
0x000000000042f6d4:  f945de94      ldr x20, [x20, #3000]
0x000000000042f6d8:  f94037e0      ldr x0, [sp, #104]
0x000000000042f6dc:  f9400281      ldr x1, [x20]
0x000000000042f6e0:  eb010000      subs x0, x0, x1
0x000000000042f6e4:  d2800001      mov x1, #0x0
0x000000000042f6e8:  540005a1      b.ne #+0xb4 (addr 0x42f79c)

----------------
IN: open64
0x000000000042f6ec:  2a1303e0      mov w0, w19
0x000000000042f6f0:  a94153f3      ldp x19, x20, [sp, #16]
0x000000000042f6f4:  a9425bf5      ldp x21, x22, [sp, #32]
0x000000000042f6f8:  f9401bf7      ldr x23, [sp, #48]
0x000000000042f6fc:  a8c87bfd      ldp x29, x30, [sp], #128
0x000000000042f700:  d65f03c0      ret

----------------
IN: _IO_file_open
0x0000000000420080:  2a0003f4      mov w20, w0
0x0000000000420084:  37f80594      tbnz w20, #31, #+0xb0 (addr 0x420134)

----------------
IN: _IO_file_open
0x0000000000420088:  b9400261      ldr w1, [x19]
0x000000000042008c:  12820182      mov w2, #0xffffeff3
0x0000000000420090:  52820180      mov w0, #0x100c
0x0000000000420094:  0a0002a0      and w0, w21, w0
0x0000000000420098:  0a020021      and w1, w1, w2
0x000000000042009c:  b9007274      str w20, [x19, #112]
0x00000000004200a0:  2a000021      orr w1, w1, w0
0x00000000004200a4:  b9000261      str w1, [x19]
0x00000000004200a8:  52820080      mov w0, #0x1004
0x00000000004200ac:  6a35001f      bics wzr, w0, w21
0x00000000004200b0:  54000201      b.ne #+0x40 (addr 0x4200f0)

----------------
IN: _IO_file_open
0x00000000004200f0:  aa1303e0      mov x0, x19
0x00000000004200f4:  940003d4      bl #+0xf50 (addr 0x421044)

----------------
IN: _IO_file_open
0x00000000004200f8:  aa1303e0      mov x0, x19
0x00000000004200fc:  a94153f3      ldp x19, x20, [sp, #16]
0x0000000000420100:  f94013f5      ldr x21, [sp, #32]
0x0000000000420104:  a8c37bfd      ldp x29, x30, [sp], #48
0x0000000000420108:  d65f03c0      ret

----------------
IN: _IO_file_fopen
0x0000000000420604:  aa0003f6      mov x22, x0
0x0000000000420608:  b5fff680      cbnz x0, #-0x130 (addr 0x4204d8)

----------------
IN: _IO_file_fopen
0x00000000004204d8:  b0000281      adrp x1, #+0x51000 (addr 0x471000)
0x00000000004204dc:  91000660      add x0, x19, #0x1 (1)
0x00000000004204e0:  912b2021      add x1, x1, #0xac8 (2760)
0x00000000004204e4:  94002aef      bl #+0xabbc (addr 0x42b0a0)

----------------
IN: strstr
0x000000000042b0a0:  a9a97bfd      stp x29, x30, [sp, #-368]!
0x000000000042b0a4:  910003fd      mov x29, sp
0x000000000042b0a8:  a90153f3      stp x19, x20, [sp, #16]
0x000000000042b0ac:  f00003d4      adrp x20, #+0x7b000 (addr 0x4a6000)
0x000000000042b0b0:  aa0003f3      mov x19, x0
0x000000000042b0b4:  f945de82      ldr x2, [x20, #3000]
0x000000000042b0b8:  a9025bf5      stp x21, x22, [sp, #32]
0x000000000042b0bc:  a90573fb      stp x27, x28, [sp, #80]
0x000000000042b0c0:  aa0103fc      mov x28, x1
0x000000000042b0c4:  39400035      ldrb w21, [x1]
0x000000000042b0c8:  f9400041      ldr x1, [x2]
0x000000000042b0cc:  f900b7e1      str x1, [sp, #360]
0x000000000042b0d0:  d2800001      mov x1, #0x0
0x000000000042b0d4:  34000d75      cbz w21, #+0x1ac (addr 0x42b280)

----------------
IN: strstr
0x000000000042b0d8:  2a1503e1      mov w1, w21
0x000000000042b0dc:  97fffca9      bl #-0xd5c (addr 0x42a380)

----------------
IN: index
0x000000000042a380:  d503201f      nop
0x000000000042a384:  927cec02      and x2, x0, #0xfffffffffffffff0
0x000000000042a388:  4e010c20      dup v0.16b, w1
0x000000000042a38c:  4c407041      ld1 {v1.16b}, [x2]
0x000000000042a390:  52860063      mov w3, #0x3003
0x000000000042a394:  4e020c64      dup v4.8h, w3
0x000000000042a398:  4e209822      cmeq v2.16b, v1.16b, #0
0x000000000042a39c:  6e208c23      cmeq v3.16b, v1.16b, v0.16b
0x000000000042a3a0:  529e01e3      mov w3, #0xf00f
0x000000000042a3a4:  4e020c65      dup v5.8h, w3
0x000000000042a3a8:  6ea41c62      bit v2.16b, v3.16b, v4.16b
0x000000000042a3ac:  4e251c42      and v2.16b, v2.16b, v5.16b
0x000000000042a3b0:  d37ef403      lsl x3, x0, #2
0x000000000042a3b4:  4e22bc46      addp v6.16b, v2.16b, v2.16b
0x000000000042a3b8:  9e6600c1      fmov x1, d6
0x000000000042a3bc:  9ac32421      lsr x1, x1, x3
0x000000000042a3c0:  b4000101      cbz x1, #+0x20 (addr 0x42a3e0)

----------------
IN: index
0x000000000042a3c4:  dac00021      rbit x1, x1
0x000000000042a3c8:  dac01021      clz x1, x1
0x000000000042a3cc:  f27f003f      tst x1, #0x2
0x000000000042a3d0:  8b410800      add x0, x0, x1, lsr #2
0x000000000042a3d4:  9a9f0000      csel x0, x0, xzr, eq
0x000000000042a3d8:  d65f03c0      ret

----------------
IN: strstr
0x000000000042b0e0:  aa0003f3      mov x19, x0
0x000000000042b0e4:  b4000ca0      cbz x0, #+0x194 (addr 0x42b278)

----------------
IN: strstr
0x000000000042b278:  d2800013      mov x19, #0x0
0x000000000042b27c:  d503201f      nop
0x000000000042b280:  f945de94      ldr x20, [x20, #3000]
0x000000000042b284:  f940b7e0      ldr x0, [sp, #360]
0x000000000042b288:  f9400281      ldr x1, [x20]
0x000000000042b28c:  eb010000      subs x0, x0, x1
0x000000000042b290:  d2800001      mov x1, #0x0
0x000000000042b294:  54000801      b.ne #+0x100 (addr 0x42b394)

----------------
IN: strstr
0x000000000042b298:  aa1303e0      mov x0, x19
0x000000000042b29c:  a94153f3      ldp x19, x20, [sp, #16]
0x000000000042b2a0:  a9425bf5      ldp x21, x22, [sp, #32]
0x000000000042b2a4:  a94573fb      ldp x27, x28, [sp, #80]
0x000000000042b2a8:  a8d77bfd      ldp x29, x30, [sp], #368
0x000000000042b2ac:  d65f03c0      ret

----------------
IN: _IO_file_fopen
0x00000000004204e8:  b4fffb40      cbz x0, #-0x98 (addr 0x420450)

----------------
IN: _IO_file_fopen
0x0000000000420450:  f945deb5      ldr x21, [x21, #3000]
0x0000000000420454:  f94037e0      ldr x0, [sp, #104]
0x0000000000420458:  f94002a1      ldr x1, [x21]
0x000000000042045c:  eb010000      subs x0, x0, x1
0x0000000000420460:  d2800001      mov x1, #0x0
0x0000000000420464:  54001a61      b.ne #+0x34c (addr 0x4207b0)

----------------
IN: _IO_file_fopen
0x0000000000420468:  aa1603e0      mov x0, x22
0x000000000042046c:  a94153f3      ldp x19, x20, [sp, #16]
0x0000000000420470:  a9425bf5      ldp x21, x22, [sp, #32]
0x0000000000420474:  a8c77bfd      ldp x29, x30, [sp], #112
0x0000000000420478:  d65f03c0      ret

----------------
IN: __fopen_internal
0x000000000041a4ac:  b4000280      cbz x0, #+0x50 (addr 0x41a4fc)

----------------
IN: __fopen_internal
0x000000000041a4b0:  b9407660      ldr w0, [x19, #116]
0x000000000041a4b4:  36000180      tbz w0, #0, #+0x30 (addr 0x41a4e4)

----------------
IN: __fopen_internal
0x000000000041a4e4:  aa1503e0      mov x0, x21
0x000000000041a4e8:  a94153f3      ldp x19, x20, [sp, #16]
0x000000000041a4ec:  a9425bf5      ldp x21, x22, [sp, #32]
0x000000000041a4f0:  f9401bf7      ldr x23, [sp, #48]
0x000000000041a4f4:  a8c47bfd      ldp x29, x30, [sp], #64
0x000000000041a4f8:  d65f03c0      ret

----------------
IN: read_checkpoint
0x0000000000400d7c:  f9002be0      str x0, [sp, #80]
0x0000000000400d80:  f9402be0      ldr x0, [sp, #80]
0x0000000000400d84:  f100001f      cmp x0, #0x0 (0)
0x0000000000400d88:  54000161      b.ne #+0x2c (addr 0x400db4)

----------------
IN: read_checkpoint
0x0000000000400db4:  f9402be3      ldr x3, [sp, #80]
0x0000000000400db8:  d2800022      mov x2, #0x1
0x0000000000400dbc:  d2800381      mov x1, #0x1c
0x0000000000400dc0:  f9401be0      ldr x0, [sp, #48]
0x0000000000400dc4:  940065e3      bl #+0x1978c (addr 0x41a550)

----------------
IN: _IO_fread
0x000000000041a550:  a9bb7bfd      stp x29, x30, [sp, #-80]!
0x000000000041a554:  910003fd      mov x29, sp
0x000000000041a558:  a90153f3      stp x19, x20, [sp, #16]
0x000000000041a55c:  9b027c34      mul x20, x1, x2
0x000000000041a560:  b4000594      cbz x20, #+0xb0 (addr 0x41a610)

----------------
IN: _IO_fread
0x000000000041a564:  f90023f9      str x25, [sp, #64]
0x000000000041a568:  aa0003f9      mov x25, x0
0x000000000041a56c:  b9400060      ldr w0, [x3]
0x000000000041a570:  aa0303f3      mov x19, x3
0x000000000041a574:  a9025bf5      stp x21, x22, [sp, #32]
0x000000000041a578:  a90363f7      stp x23, x24, [sp, #48]
0x000000000041a57c:  aa0103f7      mov x23, x1
0x000000000041a580:  aa0203f8      mov x24, x2
0x000000000041a584:  37780220      tbnz w0, #15, #+0x44 (addr 0x41a5c8)

----------------
IN: _IO_fread
0x000000000041a588:  f9404475      ldr x21, [x3, #136]
0x000000000041a58c:  d53bd056      mrs x22, (unknown)
0x000000000041a590:  d11f02d6      sub x22, x22, #0x7c0 (1984)
0x000000000041a594:  f94006a0      ldr x0, [x21, #8]
0x000000000041a598:  eb16001f      cmp x0, x22
0x000000000041a59c:  54000100      b.eq #+0x20 (addr 0x41a5bc)

----------------
IN: _IO_fread
0x000000000041a5a0:  aa1503e2      mov x2, x21
0x000000000041a5a4:  52800021      mov w1, #0x1
0x000000000041a5a8:  52800000      mov w0, #0x0
0x000000000041a5ac:  9401273d      bl #+0x49cf4 (addr 0x4642a0)

----------------
IN: _IO_fread
0x000000000041a5b0:  35000580      cbnz w0, #+0xb0 (addr 0x41a660)

----------------
IN: _IO_fread
0x000000000041a5b4:  f9404675      ldr x21, [x19, #136]
0x000000000041a5b8:  f90006b6      str x22, [x21, #8]
0x000000000041a5bc:  b94006a0      ldr w0, [x21, #4]
0x000000000041a5c0:  11000400      add w0, w0, #0x1 (1)
0x000000000041a5c4:  b90006a0      str w0, [x21, #4]
0x000000000041a5c8:  aa1903e1      mov x1, x25
0x000000000041a5cc:  aa1403e2      mov x2, x20
0x000000000041a5d0:  aa1303e0      mov x0, x19
0x000000000041a5d4:  94001d03      bl #+0x740c (addr 0x4219e0)

----------------
IN: _IO_sgetn
0x00000000004219e0:  a9bc7bfd      stp x29, x30, [sp, #-64]!
0x00000000004219e4:  b0000423      adrp x3, #+0x85000 (addr 0x4a6000)
0x00000000004219e8:  910003fd      mov x29, sp
0x00000000004219ec:  f9470064      ldr x4, [x3, #3584]
0x00000000004219f0:  f9000bf3      str x19, [sp, #16]
0x00000000004219f4:  f9465063      ldr x3, [x3, #3232]
0x00000000004219f8:  f9406c13      ldr x19, [x0, #216]
0x00000000004219fc:  cb040063      sub x3, x3, x4
0x0000000000421a00:  cb040264      sub x4, x19, x4
0x0000000000421a04:  eb04007f      cmp x3, x4
0x0000000000421a08:  540000c9      b.ls #+0x18 (addr 0x421a20)

----------------
IN: _IO_sgetn
0x0000000000421a0c:  f9402263      ldr x3, [x19, #64]
0x0000000000421a10:  f9400bf3      ldr x19, [sp, #16]
0x0000000000421a14:  aa0303f0      mov x16, x3
0x0000000000421a18:  a8c47bfd      ldp x29, x30, [sp], #64
0x0000000000421a1c:  d61f0200      br x16

----------------
IN: _IO_file_xsgetn
0x000000000041f954:  a9ba7bfd      stp x29, x30, [sp, #-96]!
0x000000000041f958:  910003fd      mov x29, sp
0x000000000041f95c:  a90153f3      stp x19, x20, [sp, #16]
0x000000000041f960:  aa0003f3      mov x19, x0
0x000000000041f964:  f9401c00      ldr x0, [x0, #56]
0x000000000041f968:  a9025bf5      stp x21, x22, [sp, #32]
0x000000000041f96c:  a90363f7      stp x23, x24, [sp, #48]
0x000000000041f970:  aa0203f7      mov x23, x2
0x000000000041f974:  f90023f9      str x25, [sp, #64]
0x000000000041f978:  aa0103f9      mov x25, x1
0x000000000041f97c:  b4000f40      cbz x0, #+0x1e8 (addr 0x41fb64)

----------------
IN: _IO_file_xsgetn
0x000000000041fb64:  f9402660      ldr x0, [x19, #72]
0x000000000041fb68:  b40000a0      cbz x0, #+0x14 (addr 0x41fb7c)

----------------
IN: _IO_file_xsgetn
0x000000000041fb7c:  aa1303e0      mov x0, x19
0x000000000041fb80:  940006f9      bl #+0x1be4 (addr 0x421764)

----------------
IN: _IO_doallocbuf
0x0000000000421764:  a9bd7bfd      stp x29, x30, [sp, #-48]!
0x0000000000421768:  910003fd      mov x29, sp
0x000000000042176c:  a90153f3      stp x19, x20, [sp, #16]
0x0000000000421770:  aa0003f3      mov x19, x0
0x0000000000421774:  f9401c00      ldr x0, [x0, #56]
0x0000000000421778:  b4000080      cbz x0, #+0x10 (addr 0x421788)

----------------
IN: _IO_doallocbuf
0x0000000000421788:  b9400261      ldr w1, [x19]
0x000000000042178c:  f90013f5      str x21, [sp, #32]
0x0000000000421790:  36080081      tbz w1, #1, #+0x10 (addr 0x4217a0)

----------------
IN: _IO_doallocbuf
0x00000000004217a0:  b0000420      adrp x0, #+0x85000 (addr 0x4a6000)
0x00000000004217a4:  f9406e74      ldr x20, [x19, #216]
0x00000000004217a8:  f9465001      ldr x1, [x0, #3232]
0x00000000004217ac:  f9470000      ldr x0, [x0, #3584]
0x00000000004217b0:  cb000021      sub x1, x1, x0
0x00000000004217b4:  cb000280      sub x0, x20, x0
0x00000000004217b8:  eb00003f      cmp x1, x0
0x00000000004217bc:  540003a9      b.ls #+0x74 (addr 0x421830)

----------------
IN: _IO_doallocbuf
0x00000000004217c0:  f9403681      ldr x1, [x20, #104]
0x00000000004217c4:  aa1303e0      mov x0, x19
0x00000000004217c8:  d63f0020      blr x1

----------------
IN: _IO_file_doallocate
0x000000000044f120:  a9b37bfd      stp x29, x30, [sp, #-208]!
0x000000000044f124:  910003fd      mov x29, sp
0x000000000044f128:  a90153f3      stp x19, x20, [sp, #16]
0x000000000044f12c:  f00002b3      adrp x19, #+0x57000 (addr 0x4a6000)
0x000000000044f130:  aa0003f4      mov x20, x0
0x000000000044f134:  f945de61      ldr x1, [x19, #3000]
0x000000000044f138:  a9025bf5      stp x21, x22, [sp, #32]
0x000000000044f13c:  b9407000      ldr w0, [x0, #112]
0x000000000044f140:  f9400022      ldr x2, [x1]
0x000000000044f144:  f90067e2      str x2, [sp, #200]
0x000000000044f148:  d2800002      mov x2, #0x0
0x000000000044f14c:  37f802c0      tbnz w0, #31, #+0x58 (addr 0x44f1a4)

----------------
IN: _IO_file_doallocate
0x000000000044f150:  f9470260      ldr x0, [x19, #3584]
0x000000000044f154:  f9465261      ldr x1, [x19, #3232]
0x000000000044f158:  f9406e95      ldr x21, [x20, #216]
0x000000000044f15c:  cb000021      sub x1, x1, x0
0x000000000044f160:  cb0002a0      sub x0, x21, x0
0x000000000044f164:  eb00003f      cmp x1, x0
0x000000000044f168:  54000889      b.ls #+0x110 (addr 0x44f278)

----------------
IN: _IO_file_doallocate
0x000000000044f16c:  f9404aa2      ldr x2, [x21, #144]
0x000000000044f170:  910123e1      add x1, sp, #0x48 (72)
0x000000000044f174:  aa1403e0      mov x0, x20
0x000000000044f178:  d63f0040      blr x2

----------------
IN: _IO_file_stat
0x000000000041f774:  b9407000      ldr w0, [x0, #112]
0x000000000041f778:  14003f96      b #+0xfe58 (addr 0x42f5d0)

----------------
IN: __fstat64
0x000000000042f5d0:  aa0103e2      mov x2, x1
0x000000000042f5d4:  37f800a0      tbnz w0, #31, #+0x14 (addr 0x42f5e8)

----------------
IN: __fstat64
0x000000000042f5d8:  b0000201      adrp x1, #+0x41000 (addr 0x470000)
0x000000000042f5dc:  52820003      mov w3, #0x1000
0x000000000042f5e0:  9115c021      add x1, x1, #0x570 (1392)
0x000000000042f5e4:  1400000b      b #+0x2c (addr 0x42f610)

----------------
IN: fstatat64
0x000000000042f610:  93407c00      sxtw x0, w0
0x000000000042f614:  93407c63      sxtw x3, w3
0x000000000042f618:  d28009e8      mov x8, #0x4f
0x000000000042f61c:  d4000001      svc #0x0

----------------
IN: fstatat64
0x000000000042f620:  3140041f      cmn w0, #0x1000 (4096)
0x000000000042f624:  54000068      b.hi #+0xc (addr 0x42f630)

----------------
IN: fstatat64
0x000000000042f628:  52800000      mov w0, #0x0
0x000000000042f62c:  d65f03c0      ret

----------------
IN: _IO_file_doallocate
0x000000000044f17c:  37f80140      tbnz w0, #31, #+0x28 (addr 0x44f1a4)

----------------
IN: _IO_file_doallocate
0x000000000044f180:  b9405be0      ldr w0, [sp, #88]
0x000000000044f184:  12140c00      and w0, w0, #0xf000
0x000000000044f188:  7140081f      cmp w0, #0x2000 (8192)
0x000000000044f18c:  54000420      b.eq #+0x84 (addr 0x44f210)

----------------
IN: _IO_file_doallocate
0x000000000044f190:  b94083f5      ldr w21, [sp, #128]
0x000000000044f194:  5283ffc0      mov w0, #0x1ffe
0x000000000044f198:  510006a1      sub w1, w21, #0x1 (1)
0x000000000044f19c:  6b00003f      cmp w1, w0
0x000000000044f1a0:  540002a9      b.ls #+0x54 (addr 0x44f1f4)

----------------
IN: _IO_file_doallocate
0x000000000044f1f4:  93407eb5      sxtw x21, w21
0x000000000044f1f8:  aa1503e0      mov x0, x21
0x000000000044f1fc:  97ff6539      bl #-0x26b1c (addr 0x4286e0)

----------------
IN: _int_malloc
0x0000000000427240:  d352fe60      lsr x0, x19, #18
0x0000000000427244:  d346fe66      lsr x6, x19, #6
0x0000000000427248:  f100081f      cmp x0, #0x2 (2)
0x000000000042724c:  1100c0c2      add w2, w6, #0x30 (48)
0x0000000000427250:  d2800041      mov x1, #0x2
0x0000000000427254:  d349fe67      lsr x7, x19, #9
0x0000000000427258:  9a819000      csel x0, x0, x1, ls
0x000000000042725c:  d34cfe6f      lsr x15, x19, #12
0x0000000000427260:  d34ffe6d      lsr x13, x19, #15
0x0000000000427264:  1101f003      add w3, w0, #0x7c (124)
0x0000000000427268:  1101b9e1      add w1, w15, #0x6e (110)
0x000000000042726c:  11016ce0      add w0, w7, #0x5b (91)
0x0000000000427270:  a90573fb      stp x27, x28, [sp, #80]
0x0000000000427274:  b9006be2      str w2, [sp, #104]
0x0000000000427278:  b90083e2      str w2, [sp, #128]
0x000000000042727c:  1101dda2      add w2, w13, #0x77 (119)
0x0000000000427280:  b900a3e3      str w3, [sp, #160]
0x0000000000427284:  b900a7e2      str w2, [sp, #164]
0x0000000000427288:  291503e1      stp w1, w0, [sp, #168]
0x000000000042728c:  f100c0df      cmp x6, #0x30 (48)
0x0000000000427290:  54000109      b.ls #+0x20 (addr 0x4272b0)

----------------
IN: _int_malloc
0x0000000000427294:  b9006be0      str w0, [sp, #104]
0x0000000000427298:  f10050ff      cmp x7, #0x14 (20)
0x000000000042729c:  540000a9      b.ls #+0x14 (addr 0x4272b0)

----------------
IN: _int_malloc
0x00000000004272b0:  91002280      add x0, x20, #0x8 (8)
0x00000000004272b4:  b9400000      ldr w0, [x0]
0x00000000004272b8:  34001340      cbz w0, #+0x268 (addr 0x427520)

----------------
IN: _int_malloc
0x0000000000427520:  d53bd057      mrs x23, (unknown)
0x0000000000427524:  d100467a      sub x26, x19, #0x11 (17)
0x0000000000427528:  914002e0      add x0, x23, #0x0 (0)
0x000000000042752c:  91014000      add x0, x0, #0x50 (80)
0x0000000000427530:  d280000e      mov x14, #0x0
0x0000000000427534:  d344ff5a      lsr x26, x26, #4
0x0000000000427538:  f9400400      ldr x0, [x0, #8]
0x000000000042753c:  b40000a0      cbz x0, #+0x14 (addr 0x427550)

----------------
IN: _int_malloc
0x000000000042784c:  b9406be0      ldr w0, [sp, #104]
0x0000000000427850:  531f7801      lsl w1, w0, #1
0x0000000000427854:  11003021      add w1, w1, #0xc (12)
0x0000000000427858:  8b010e81      add x1, x20, x1, lsl #3
0x000000000042785c:  f85f0420      ldr x0, [x1], #-16
0x0000000000427860:  eb01001f      cmp x0, x1
0x0000000000427864:  54000080      b.eq #+0x10 (addr 0x427874)

----------------
IN: _IO_file_doallocate
0x000000000044f200:  aa0003e1      mov x1, x0
0x000000000044f204:  b5fffda0      cbnz x0, #-0x4c (addr 0x44f1b8)

----------------
IN: _IO_file_doallocate
0x000000000044f1b8:  8b150002      add x2, x0, x21
0x000000000044f1bc:  52800023      mov w3, #0x1
0x000000000044f1c0:  aa1403e0      mov x0, x20
0x000000000044f1c4:  97ff494f      bl #-0x2dac4 (addr 0x421700)

----------------
IN: _IO_setb
0x0000000000421700:  a9bd7bfd      stp x29, x30, [sp, #-48]!
0x0000000000421704:  910003fd      mov x29, sp
0x0000000000421708:  b9400004      ldr w4, [x0]
0x000000000042170c:  a90153f3      stp x19, x20, [sp, #16]
0x0000000000421710:  aa0003f3      mov x19, x0
0x0000000000421714:  aa0203f4      mov x20, x2
0x0000000000421718:  f9401c00      ldr x0, [x0, #56]
0x000000000042171c:  a9025bf5      stp x21, x22, [sp, #32]
0x0000000000421720:  aa0103f5      mov x21, x1
0x0000000000421724:  2a0303f6      mov w22, w3
0x0000000000421728:  b4000040      cbz x0, #+0x8 (addr 0x421730)

----------------
IN: _IO_setb
0x0000000000421730:  710002df      cmp w22, #0x0 (0)
0x0000000000421734:  121f7880      and w0, w4, #0xfffffffe
0x0000000000421738:  32000084      orr w4, w4, #0x1
0x000000000042173c:  a903d275      stp x21, x20, [x19, #56]
0x0000000000421740:  1a800084      csel w4, w4, w0, eq
0x0000000000421744:  b9000264      str w4, [x19]
0x0000000000421748:  a94153f3      ldp x19, x20, [sp, #16]
0x000000000042174c:  a9425bf5      ldp x21, x22, [sp, #32]
0x0000000000421750:  a8c37bfd      ldp x29, x30, [sp], #48
0x0000000000421754:  d65f03c0      ret

----------------
IN: _IO_file_doallocate
0x000000000044f1c8:  52800020      mov w0, #0x1
0x000000000044f1cc:  f945de73      ldr x19, [x19, #3000]
0x000000000044f1d0:  f94067e1      ldr x1, [sp, #200]
0x000000000044f1d4:  f9400262      ldr x2, [x19]
0x000000000044f1d8:  eb020021      subs x1, x1, x2
0x000000000044f1dc:  d2800002      mov x2, #0x0
0x000000000044f1e0:  54000501      b.ne #+0xa0 (addr 0x44f280)

----------------
IN: _IO_file_doallocate
0x000000000044f1e4:  a94153f3      ldp x19, x20, [sp, #16]
0x000000000044f1e8:  a9425bf5      ldp x21, x22, [sp, #32]
0x000000000044f1ec:  a8cd7bfd      ldp x29, x30, [sp], #208
0x000000000044f1f0:  d65f03c0      ret

----------------
IN: _IO_doallocbuf
0x00000000004217cc:  3100041f      cmn w0, #0x1 (1)
0x00000000004217d0:  540001c1      b.ne #+0x38 (addr 0x421808)

----------------
IN: _IO_doallocbuf
0x0000000000421808:  a94153f3      ldp x19, x20, [sp, #16]
0x000000000042180c:  f94013f5      ldr x21, [sp, #32]
0x0000000000421810:  a8c37bfd      ldp x29, x30, [sp], #48
0x0000000000421814:  d65f03c0      ret

----------------
IN: _IO_file_xsgetn
0x000000000041fb84:  17ffff7f      b #-0x204 (addr 0x41f980)

----------------
IN: _IO_file_xsgetn
0x000000000041f980:  aa1703f5      mov x21, x23
0x000000000041f984:  b4000597      cbz x23, #+0xb0 (addr 0x41fa34)

----------------
IN: _IO_file_xsgetn
0x000000000041f988:  f0000436      adrp x22, #+0x87000 (addr 0x4a6000)
0x000000000041f98c:  f94652d8      ldr x24, [x22, #3232]
0x000000000041f990:  f94702d6      ldr x22, [x22, #3584]
0x000000000041f994:  cb160318      sub x24, x24, x22
0x000000000041f998:  a940d261      ldp x1, x20, [x19, #8]
0x000000000041f99c:  cb010294      sub x20, x20, x1
0x000000000041f9a0:  eb15029f      cmp x20, x21
0x000000000041f9a4:  54000b02      b.hs #+0x160 (addr 0x41fb04)

----------------
IN: _IO_file_xsgetn
0x000000000041f9a8:  b50008f4      cbnz x20, #+0x11c (addr 0x41fac4)

----------------
IN: _IO_file_xsgetn
0x000000000041f9ac:  b9400260      ldr w0, [x19]
0x000000000041f9b0:  374009e0      tbnz w0, #8, #+0x13c (addr 0x41faec)

----------------
IN: _IO_file_xsgetn
0x000000000041f9b4:  f9401e63      ldr x3, [x19, #56]
0x000000000041f9b8:  b40004c3      cbz x3, #+0x98 (addr 0x41fa50)

----------------
IN: _IO_file_xsgetn
0x000000000041f9bc:  f9402260      ldr x0, [x19, #64]
0x000000000041f9c0:  cb030000      sub x0, x0, x3
0x000000000041f9c4:  eb15001f      cmp x0, x21
0x000000000041f9c8:  54000b88      b.hi #+0x170 (addr 0x41fb38)

----------------
IN: _IO_file_xsgetn
0x000000000041fb38:  aa1303e0      mov x0, x19
0x000000000041fb3c:  94000645      bl #+0x1914 (addr 0x421450)

----------------
IN: __underflow
0x0000000000421450:  a9be7bfd      stp x29, x30, [sp, #-32]!
0x0000000000421454:  910003fd      mov x29, sp
0x0000000000421458:  a90153f3      stp x19, x20, [sp, #16]
0x000000000042145c:  aa0003f3      mov x19, x0
0x0000000000421460:  b940c000      ldr w0, [x0, #192]
0x0000000000421464:  35000520      cbnz w0, #+0xa4 (addr 0x421508)

----------------
IN: __underflow
0x0000000000421468:  12800000      mov w0, #0xffffffff
0x000000000042146c:  b900c260      str w0, [x19, #192]
0x0000000000421470:  b9400260      ldr w0, [x19]
0x0000000000421474:  375807a0      tbnz w0, #11, #+0xf4 (addr 0x421568)

----------------
IN: __underflow
0x0000000000421478:  a9408660      ldp x0, x1, [x19, #8]
0x000000000042147c:  eb01001f      cmp x0, x1
0x0000000000421480:  540006c3      b.lo #+0xd8 (addr 0x421558)

----------------
IN: __underflow
0x0000000000421484:  b9400260      ldr w0, [x19]
0x0000000000421488:  36400180      tbz w0, #8, #+0x30 (addr 0x4214b8)

----------------
IN: __underflow
0x00000000004214b8:  f9403260      ldr x0, [x19, #96]
0x00000000004214bc:  b40002e0      cbz x0, #+0x5c (addr 0x421518)

----------------
IN: __underflow
0x0000000000421518:  f9402660      ldr x0, [x19, #72]
0x000000000042151c:  b4fffda0      cbz x0, #-0x4c (addr 0x4214d0)

----------------
IN: __underflow
0x00000000004214d0:  b0000420      adrp x0, #+0x85000 (addr 0x4a6000)
0x00000000004214d4:  f9406e74      ldr x20, [x19, #216]
0x00000000004214d8:  f9465001      ldr x1, [x0, #3232]
0x00000000004214dc:  f9470000      ldr x0, [x0, #3584]
0x00000000004214e0:  cb000021      sub x1, x1, x0
0x00000000004214e4:  cb000280      sub x0, x20, x0
0x00000000004214e8:  eb00003f      cmp x1, x0
0x00000000004214ec:  54000529      b.ls #+0xa4 (addr 0x421590)

----------------
IN: __underflow
0x00000000004214f0:  aa1303e0      mov x0, x19
0x00000000004214f4:  f9401281      ldr x1, [x20, #32]
0x00000000004214f8:  a94153f3      ldp x19, x20, [sp, #16]
0x00000000004214fc:  aa0103f0      mov x16, x1
0x0000000000421500:  a8c27bfd      ldp x29, x30, [sp], #32
0x0000000000421504:  d61f0200      br x16

----------------
IN: _IO_new_file_underflow
0x000000000041ea10:  a9bc7bfd      stp x29, x30, [sp, #-64]!
0x000000000041ea14:  910003fd      mov x29, sp
0x000000000041ea18:  a90153f3      stp x19, x20, [sp, #16]
0x000000000041ea1c:  aa0003f3      mov x19, x0
0x000000000041ea20:  b9400000      ldr w0, [x0]
0x000000000041ea24:  37201380      tbnz w0, #4, #+0x270 (addr 0x41ec94)

----------------
IN: _IO_new_file_underflow
0x000000000041ea28:  371013a0      tbnz w0, #2, #+0x274 (addr 0x41ec9c)

----------------
IN: _IO_new_file_underflow
0x000000000041ea2c:  a9408a61      ldp x1, x2, [x19, #8]
0x000000000041ea30:  eb02003f      cmp x1, x2
0x000000000041ea34:  54000ca3      b.lo #+0x194 (addr 0x41ebc8)

----------------
IN: _IO_new_file_underflow
0x000000000041ea38:  f9401e61      ldr x1, [x19, #56]
0x000000000041ea3c:  a9025bf5      stp x21, x22, [sp, #32]
0x000000000041ea40:  b4000f21      cbz x1, #+0x1e4 (addr 0x41ec24)

----------------
IN: _IO_new_file_underflow
0x000000000041ea44:  52804041      mov w1, #0x202
0x000000000041ea48:  90000455      adrp x21, #+0x88000 (addr 0x4a6000)
0x000000000041ea4c:  6a01001f      tst w0, w1
0x000000000041ea50:  540005e0      b.eq #+0xbc (addr 0x41eb0c)

----------------
IN: _IO_new_file_underflow
0x000000000041eb0c:  f94702a0      ldr x0, [x21, #3584]
0x000000000041eb10:  f94652b4      ldr x20, [x21, #3232]
0x000000000041eb14:  aa0003f6      mov x22, x0
0x000000000041eb18:  cb000294      sub x20, x20, x0
0x000000000041eb1c:  aa1303e0      mov x0, x19
0x000000000041eb20:  940009e8      bl #+0x27a0 (addr 0x4212c0)

----------------
IN: _IO_switch_to_get_mode
0x00000000004212c0:  a9be7bfd      stp x29, x30, [sp, #-32]!
0x00000000004212c4:  910003fd      mov x29, sp
0x00000000004212c8:  a90153f3      stp x19, x20, [sp, #16]
0x00000000004212cc:  aa0003f3      mov x19, x0
0x00000000004212d0:  f9401000      ldr x0, [x0, #32]
0x00000000004212d4:  f9401661      ldr x1, [x19, #40]
0x00000000004212d8:  eb00003f      cmp x1, x0
0x00000000004212dc:  54000209      b.ls #+0x40 (addr 0x42131c)

----------------
IN: _IO_switch_to_get_mode
0x000000000042131c:  b9400260      ldr w0, [x19]
0x0000000000421320:  37400200      tbnz w0, #8, #+0x40 (addr 0x421360)

----------------
IN: _IO_switch_to_get_mode
0x0000000000421324:  f9400a62      ldr x2, [x19, #16]
0x0000000000421328:  f9401e63      ldr x3, [x19, #56]
0x000000000042132c:  f9000e63      str x3, [x19, #24]
0x0000000000421330:  eb01005f      cmp x2, x1
0x0000000000421334:  54000042      b.hs #+0x8 (addr 0x42133c)

----------------
IN: _IO_switch_to_get_mode
0x000000000042133c:  12147802      and w2, w0, #0xfffff7ff
0x0000000000421340:  52800000      mov w0, #0x0
0x0000000000421344:  b9000262      str w2, [x19]
0x0000000000421348:  f9000661      str x1, [x19, #8]
0x000000000042134c:  f9001261      str x1, [x19, #32]
0x0000000000421350:  f9001a61      str x1, [x19, #48]
0x0000000000421354:  a94153f3      ldp x19, x20, [sp, #16]
0x0000000000421358:  a8c27bfd      ldp x29, x30, [sp], #32
0x000000000042135c:  d65f03c0      ret

----------------
IN: _IO_new_file_underflow
0x000000000041eb24:  f9406e75      ldr x21, [x19, #216]
0x000000000041eb28:  f9401e61      ldr x1, [x19, #56]
0x000000000041eb2c:  cb1602b6      sub x22, x21, x22
0x000000000041eb30:  a9008661      stp x1, x1, [x19, #8]
0x000000000041eb34:  a9018661      stp x1, x1, [x19, #24]
0x000000000041eb38:  a9028661      stp x1, x1, [x19, #40]
0x000000000041eb3c:  eb1402df      cmp x22, x20
0x000000000041eb40:  54000922      b.hs #+0x124 (addr 0x41ec64)

----------------
IN: _IO_new_file_underflow
0x000000000041eb44:  f9403aa3      ldr x3, [x21, #112]
0x000000000041eb48:  aa1303e0      mov x0, x19
0x000000000041eb4c:  f9402262      ldr x2, [x19, #64]
0x000000000041eb50:  cb010042      sub x2, x2, x1
0x000000000041eb54:  d63f0060      blr x3

----------------
IN: _IO_file_read
0x000000000041ff40:  b9407403      ldr w3, [x0, #116]
0x000000000041ff44:  b9407000      ldr w0, [x0, #112]
0x000000000041ff48:  37080043      tbnz w3, #1, #+0x8 (addr 0x41ff50)

----------------
IN: _IO_file_read
0x000000000041ff4c:  14003e15      b #+0xf854 (addr 0x42f7a0)

----------------
IN: __libc_read
0x000000000042f7a0:  a9bd7bfd      stp x29, x30, [sp, #-48]!
0x000000000042f7a4:  910003fd      mov x29, sp
0x000000000042f7a8:  a9025bf5      stp x21, x22, [sp, #32]
0x000000000042f7ac:  d53bd056      mrs x22, (unknown)
0x000000000042f7b0:  d11f02c3      sub x3, x22, #0x7c0 (1984)
0x000000000042f7b4:  a90153f3      stp x19, x20, [sp, #16]
0x000000000042f7b8:  93407c13      sxtw x19, w0
0x000000000042f7bc:  b9400060      ldr w0, [x3]
0x000000000042f7c0:  35000180      cbnz w0, #+0x30 (addr 0x42f7f0)

----------------
IN: __libc_read
0x000000000042f7c4:  aa1303e0      mov x0, x19
0x000000000042f7c8:  d28007e8      mov x8, #0x3f
0x000000000042f7cc:  d4000001      svc #0x0

----------------
IN: __libc_read
0x000000000042f7d0:  aa0003f3      mov x19, x0
0x000000000042f7d4:  b140041f      cmn x0, #0x1000 (4096)
0x000000000042f7d8:  54000328      b.hi #+0x64 (addr 0x42f83c)

----------------
IN: __libc_read
0x000000000042f7dc:  aa1303e0      mov x0, x19
0x000000000042f7e0:  a94153f3      ldp x19, x20, [sp, #16]
0x000000000042f7e4:  a9425bf5      ldp x21, x22, [sp, #32]
0x000000000042f7e8:  a8c37bfd      ldp x29, x30, [sp], #48
0x000000000042f7ec:  d65f03c0      ret

----------------
IN: _IO_new_file_underflow
0x000000000041eb58:  f100001f      cmp x0, #0x0 (0)
0x000000000041eb5c:  540001ed      b.le #+0x3c (addr 0x41eb98)

----------------
IN: _IO_new_file_underflow
0x000000000041eb60:  f9400a61      ldr x1, [x19, #16]
0x000000000041eb64:  f9404a62      ldr x2, [x19, #144]
0x000000000041eb68:  8b000021      add x1, x1, x0
0x000000000041eb6c:  f9000a61      str x1, [x19, #16]
0x000000000041eb70:  b100045f      cmn x2, #0x1 (1)
0x000000000041eb74:  54000060      b.eq #+0xc (addr 0x41eb80)

----------------
IN: _IO_new_file_underflow
0x000000000041eb80:  f9400660      ldr x0, [x19, #8]
0x000000000041eb84:  a9425bf5      ldp x21, x22, [sp, #32]
0x000000000041eb88:  39400000      ldrb w0, [x0]
0x000000000041eb8c:  a94153f3      ldp x19, x20, [sp, #16]
0x000000000041eb90:  a8c47bfd      ldp x29, x30, [sp], #64
0x000000000041eb94:  d65f03c0      ret

----------------
IN: _IO_file_xsgetn
0x000000000041fb40:  3100041f      cmn w0, #0x1 (1)
0x000000000041fb44:  54fff2a1      b.ne #-0x1ac (addr 0x41f998)

----------------
IN: _IO_file_xsgetn
0x000000000041f998:  a940d261      ldp x1, x20, [x19, #8]
0x000000000041f99c:  cb010294      sub x20, x20, x1
0x000000000041f9a0:  eb15029f      cmp x20, x21
0x000000000041f9a4:  54000b02      b.hs #+0x160 (addr 0x41fb04)

----------------
IN: _IO_file_xsgetn
0x000000000041fb04:  aa1503e2      mov x2, x21
0x000000000041fb08:  aa1903e0      mov x0, x25
0x000000000041fb0c:  97ff81e9      bl #-0x1f85c (addr 0x4002b0)

----------------
IN: _IO_file_xsgetn
0x000000000041fb10:  f9400661      ldr x1, [x19, #8]
0x000000000041fb14:  aa1703e0      mov x0, x23
0x000000000041fb18:  a94363f7      ldp x23, x24, [sp, #48]
0x000000000041fb1c:  8b150021      add x1, x1, x21
0x000000000041fb20:  f9000661      str x1, [x19, #8]
0x000000000041fb24:  a94153f3      ldp x19, x20, [sp, #16]
0x000000000041fb28:  a9425bf5      ldp x21, x22, [sp, #32]
0x000000000041fb2c:  f94023f9      ldr x25, [sp, #64]
0x000000000041fb30:  a8c67bfd      ldp x29, x30, [sp], #96
0x000000000041fb34:  d65f03c0      ret

----------------
IN: _IO_fread
0x000000000041a5d8:  b9400261      ldr w1, [x19]
0x000000000041a5dc:  aa0003f5      mov x21, x0
0x000000000041a5e0:  377800c1      tbnz w1, #15, #+0x18 (addr 0x41a5f8)

----------------
IN: _IO_fread
0x000000000041a5e4:  f9404673      ldr x19, [x19, #136]
0x000000000041a5e8:  b9400660      ldr w0, [x19, #4]
0x000000000041a5ec:  51000400      sub w0, w0, #0x1 (1)
0x000000000041a5f0:  b9000660      str w0, [x19, #4]
0x000000000041a5f4:  34000260      cbz w0, #+0x4c (addr 0x41a640)

----------------
IN: _IO_fread
0x000000000041a640:  f900067f      str xzr, [x19, #8]
0x000000000041a644:  aa1303e1      mov x1, x19
0x000000000041a648:  940127aa      bl #+0x49ea8 (addr 0x4644f0)

----------------
IN: _IO_fread
0x000000000041a64c:  7100041f      cmp w0, #0x1 (1)
0x000000000041a650:  54fffd4d      b.le #-0x58 (addr 0x41a5f8)

----------------
IN: _IO_fread
0x000000000041a5f8:  eb15029f      cmp x20, x21
0x000000000041a5fc:  54000120      b.eq #+0x24 (addr 0x41a620)

----------------
IN: _IO_fread
0x000000000041a620:  aa1803f4      mov x20, x24
0x000000000041a624:  aa1403e0      mov x0, x20
0x000000000041a628:  a94153f3      ldp x19, x20, [sp, #16]
0x000000000041a62c:  a9425bf5      ldp x21, x22, [sp, #32]
0x000000000041a630:  a94363f7      ldp x23, x24, [sp, #48]
0x000000000041a634:  f94023f9      ldr x25, [sp, #64]
0x000000000041a638:  a8c57bfd      ldp x29, x30, [sp], #80
0x000000000041a63c:  d65f03c0      ret

----------------
IN: read_checkpoint
0x0000000000400dc8:  f100041f      cmp x0, #0x1 (1)
0x0000000000400dcc:  54000060      b.eq #+0xc (addr 0x400dd8)

----------------
IN: read_checkpoint
0x0000000000400dd8:  f9401be0      ldr x0, [sp, #48]
0x0000000000400ddc:  b9401400      ldr w0, [x0, #20]
0x0000000000400de0:  7100001f      cmp w0, #0x0 (0)
0x0000000000400de4:  1a9fd7e0      cset w0, gt
0x0000000000400de8:  12001c00      and w0, w0, #0xff
0x0000000000400dec:  b9004fe0      str w0, [sp, #76]
0x0000000000400df0:  f9401be0      ldr x0, [sp, #48]
0x0000000000400df4:  b9401400      ldr w0, [x0, #20]
0x0000000000400df8:  7100001f      cmp w0, #0x0 (0)
0x0000000000400dfc:  5a80a401      cneg w1, w0, lt
0x0000000000400e00:  f9401be0      ldr x0, [sp, #48]
0x0000000000400e04:  b9001401      str w1, [x0, #20]
0x0000000000400e08:  52800042      mov w2, #0x2
0x0000000000400e0c:  d2800001      mov x1, #0x0
0x0000000000400e10:  f9402be0      ldr x0, [sp, #80]
0x0000000000400e14:  940074c7      bl #+0x1d31c (addr 0x41e130)

----------------
IN: fseek
0x000000000041e130:  a9bc7bfd      stp x29, x30, [sp, #-64]!
0x000000000041e134:  910003fd      mov x29, sp
0x000000000041e138:  a90153f3      stp x19, x20, [sp, #16]
0x000000000041e13c:  aa0003f3      mov x19, x0
0x000000000041e140:  b9400000      ldr w0, [x0]
0x000000000041e144:  a9025bf5      stp x21, x22, [sp, #32]
0x000000000041e148:  aa0103f5      mov x21, x1
0x000000000041e14c:  2a0203f6      mov w22, w2
0x000000000041e150:  f9001bf7      str x23, [sp, #48]
0x000000000041e154:  37780220      tbnz w0, #15, #+0x44 (addr 0x41e198)

----------------
IN: fseek
0x000000000041e158:  f9404674      ldr x20, [x19, #136]
0x000000000041e15c:  d53bd057      mrs x23, (unknown)
0x000000000041e160:  d11f02f7      sub x23, x23, #0x7c0 (1984)
0x000000000041e164:  f9400680      ldr x0, [x20, #8]
0x000000000041e168:  eb17001f      cmp x0, x23
0x000000000041e16c:  54000100      b.eq #+0x20 (addr 0x41e18c)

----------------
IN: fseek
0x000000000041e170:  aa1403e2      mov x2, x20
0x000000000041e174:  52800021      mov w1, #0x1
0x000000000041e178:  52800000      mov w0, #0x0
0x000000000041e17c:  94011849      bl #+0x46124 (addr 0x4642a0)

----------------
IN: fseek
0x000000000041e180:  35000440      cbnz w0, #+0x88 (addr 0x41e208)

----------------
IN: fseek
0x000000000041e184:  f9404674      ldr x20, [x19, #136]
0x000000000041e188:  f9000697      str x23, [x20, #8]
0x000000000041e18c:  b9400680      ldr w0, [x20, #4]
0x000000000041e190:  11000400      add w0, w0, #0x1 (1)
0x000000000041e194:  b9000680      str w0, [x20, #4]
0x000000000041e198:  2a1603e2      mov w2, w22
0x000000000041e19c:  aa1503e1      mov x1, x21
0x000000000041e1a0:  aa1303e0      mov x0, x19
0x000000000041e1a4:  52800063      mov w3, #0x3
0x000000000041e1a8:  97fff302      bl #-0x33f8 (addr 0x41adb0)

----------------
IN: _IO_seekoff_unlocked
0x000000000041adb0:  7100085f      cmp w2, #0x2 (2)
0x000000000041adb4:  54000788      b.hi #+0xf0 (addr 0x41aea4)

----------------
IN: _IO_seekoff_unlocked
0x000000000041adb8:  a9bc7bfd      stp x29, x30, [sp, #-64]!
0x000000000041adbc:  910003fd      mov x29, sp
0x000000000041adc0:  a90153f3      stp x19, x20, [sp, #16]
0x000000000041adc4:  2a0203f4      mov w20, w2
0x000000000041adc8:  aa0003f3      mov x19, x0
0x000000000041adcc:  a9025bf5      stp x21, x22, [sp, #32]
0x000000000041add0:  aa0103f6      mov x22, x1
0x000000000041add4:  2a0303f5      mov w21, w3
0x000000000041add8:  f9001bf7      str x23, [sp, #48]
0x000000000041addc:  340001a3      cbz w3, #+0x34 (addr 0x41ae10)

----------------
IN: _IO_seekoff_unlocked
0x000000000041ade0:  b940c000      ldr w0, [x0, #192]
0x000000000041ade4:  7100001f      cmp w0, #0x0 (0)
0x000000000041ade8:  540003ab      b.lt #+0x74 (addr 0x41ae5c)

----------------
IN: _IO_seekoff_unlocked
0x000000000041ae5c:  f9402660      ldr x0, [x19, #72]
0x000000000041ae60:  b4fffd80      cbz x0, #-0x50 (addr 0x41ae10)

----------------
IN: _IO_seekoff_unlocked
0x000000000041ae10:  90000464      adrp x4, #+0x8c000 (addr 0x4a6000)
0x000000000041ae14:  f9406e77      ldr x23, [x19, #216]
0x000000000041ae18:  f9465080      ldr x0, [x4, #3232]
0x000000000041ae1c:  f9470084      ldr x4, [x4, #3584]
0x000000000041ae20:  cb040000      sub x0, x0, x4
0x000000000041ae24:  cb0402e4      sub x4, x23, x4
0x000000000041ae28:  eb04001f      cmp x0, x4
0x000000000041ae2c:  54000269      b.ls #+0x4c (addr 0x41ae78)

----------------
IN: _IO_seekoff_unlocked
0x000000000041ae30:  2a1503e3      mov w3, w21
0x000000000041ae34:  2a1403e2      mov w2, w20
0x000000000041ae38:  aa1603e1      mov x1, x22
0x000000000041ae3c:  aa1303e0      mov x0, x19
0x000000000041ae40:  a94153f3      ldp x19, x20, [sp, #16]
0x000000000041ae44:  a9425bf5      ldp x21, x22, [sp, #32]
0x000000000041ae48:  f94026e4      ldr x4, [x23, #72]
0x000000000041ae4c:  f9401bf7      ldr x23, [sp, #48]
0x000000000041ae50:  aa0403f0      mov x16, x4
0x000000000041ae54:  a8c47bfd      ldp x29, x30, [sp], #64
0x000000000041ae58:  d61f0200      br x16

----------------
IN: _IO_file_seekoff
0x000000000041f240:  a9b07bfd      stp x29, x30, [sp, #-256]!
0x000000000041f244:  910003fd      mov x29, sp
0x000000000041f248:  a9025bf5      stp x21, x22, [sp, #32]
0x000000000041f24c:  f0000435      adrp x21, #+0x87000 (addr 0x4a6000)
0x000000000041f250:  2a0203f6      mov w22, w2
0x000000000041f254:  f945dea4      ldr x4, [x21, #3000]
0x000000000041f258:  a90153f3      stp x19, x20, [sp, #16]
0x000000000041f25c:  aa0003f3      mov x19, x0
0x000000000041f260:  f9400080      ldr x0, [x4]
0x000000000041f264:  f9007fe0      str x0, [sp, #248]
0x000000000041f268:  d2800000      mov x0, #0x0
0x000000000041f26c:  34001643      cbz w3, #+0x2c8 (addr 0x41f534)

----------------
IN: _IO_file_seekoff
0x000000000041f270:  a9410e62      ldp x2, x3, [x19, #16]
0x000000000041f274:  a9046bf9      stp x25, x26, [sp, #64]
0x000000000041f278:  aa0103f4      mov x20, x1
0x000000000041f27c:  a9420261      ldp x1, x0, [x19, #32]
0x000000000041f280:  eb02007f      cmp x3, x2
0x000000000041f284:  54000c40      b.eq #+0x188 (addr 0x41f40c)

----------------
IN: _IO_file_seekoff
0x000000000041f288:  52800019      mov w25, #0x0
0x000000000041f28c:  eb00003f      cmp x1, x0
0x000000000041f290:  54000c42      b.hs #+0x188 (addr 0x41f418)

----------------
IN: _IO_file_seekoff
0x000000000041f418:  b9400260      ldr w0, [x19]
0x000000000041f41c:  375ff3c0      tbnz w0, #11, #-0x188 (addr 0x41f294)

----------------
IN: _IO_file_seekoff
0x000000000041f420:  f9401e60      ldr x0, [x19, #56]
0x000000000041f424:  a90363f7      stp x23, x24, [sp, #48]
0x000000000041f428:  b5fff420      cbnz x0, #-0x17c (addr 0x41f2ac)

----------------
IN: _IO_file_seekoff
0x000000000041f2ac:  710006df      cmp w22, #0x1 (1)
0x000000000041f2b0:  54000da0      b.eq #+0x1b4 (addr 0x41f464)

----------------
IN: _IO_file_seekoff
0x000000000041f2b4:  71000adf      cmp w22, #0x2 (2)
0x000000000041f2b8:  540002c1      b.ne #+0x58 (addr 0x41f310)

----------------
IN: _IO_file_seekoff
0x000000000041f2bc:  f94702a0      ldr x0, [x21, #3584]
0x000000000041f2c0:  f94652b8      ldr x24, [x21, #3232]
0x000000000041f2c4:  aa0003f7      mov x23, x0
0x000000000041f2c8:  f9406e7a      ldr x26, [x19, #216]
0x000000000041f2cc:  cb000318      sub x24, x24, x0
0x000000000041f2d0:  cb000340      sub x0, x26, x0
0x000000000041f2d4:  eb18001f      cmp x0, x24
0x000000000041f2d8:  54002222      b.hs #+0x444 (addr 0x41f71c)

----------------
IN: _IO_file_seekoff
0x000000000041f2dc:  f9404b42      ldr x2, [x26, #144]
0x000000000041f2e0:  9101e3e1      add x1, sp, #0x78 (120)
0x000000000041f2e4:  aa1303e0      mov x0, x19
0x000000000041f2e8:  d63f0040      blr x2

----------------
IN: _IO_file_seekoff
0x000000000041f2ec:  35000e20      cbnz w0, #+0x1c4 (addr 0x41f4b0)

----------------
IN: _IO_file_seekoff
0x000000000041f2f0:  b9408be0      ldr w0, [sp, #136]
0x000000000041f2f4:  12140c00      and w0, w0, #0xf000
0x000000000041f2f8:  7140201f      cmp w0, #0x8000 (32768)
0x000000000041f2fc:  54000da1      b.ne #+0x1b4 (addr 0x41f4b0)

----------------
IN: _IO_file_seekoff
0x000000000041f300:  f94057e0      ldr x0, [sp, #168]
0x000000000041f304:  52800016      mov w22, #0x0
0x000000000041f308:  8b000294      add x20, x20, x0
0x000000000041f30c:  d503201f      nop
0x000000000041f310:  aa1303e0      mov x0, x19
0x000000000041f314:  94000818      bl #+0x2060 (addr 0x421374)

----------------
IN: _IO_free_backup_area
0x0000000000421374:  a9be7bfd      stp x29, x30, [sp, #-32]!
0x0000000000421378:  910003fd      mov x29, sp
0x000000000042137c:  b9400001      ldr w1, [x0]
0x0000000000421380:  f9000bf3      str x19, [sp, #16]
0x0000000000421384:  aa0003f3      mov x19, x0
0x0000000000421388:  f9402400      ldr x0, [x0, #72]
0x000000000042138c:  36400121      tbz w1, #8, #+0x24 (addr 0x4213b0)

----------------
IN: _IO_free_backup_area
0x00000000004213b0:  94001e2c      bl #+0x78b0 (addr 0x428c60)

----------------
IN: __free
0x0000000000428c60:  b4000700      cbz x0, #+0xe0 (addr 0x428d40)

----------------
IN: __free
0x0000000000428d40:  d65f03c0      ret

----------------
IN: _IO_free_backup_area
0x00000000004213b4:  a904fe7f      stp xzr, xzr, [x19, #72]
0x00000000004213b8:  f9002e7f      str xzr, [x19, #88]
0x00000000004213bc:  f9400bf3      ldr x19, [sp, #16]
0x00000000004213c0:  a8c27bfd      ldp x29, x30, [sp], #32
0x00000000004213c4:  d65f03c0      ret

----------------
IN: _IO_file_seekoff
0x000000000041f318:  f9404a61      ldr x1, [x19, #144]
0x000000000041f31c:  b100043f      cmn x1, #0x1 (1)
0x000000000041f320:  54000be0      b.eq #+0x17c (addr 0x41f49c)

----------------
IN: _IO_file_seekoff
0x000000000041f49c:  b9400260      ldr w0, [x19]
0x000000000041f4a0:  f94702b7      ldr x23, [x21, #3584]
0x000000000041f4a4:  f94652b8      ldr x24, [x21, #3232]
0x000000000041f4a8:  cb170318      sub x24, x24, x23
0x000000000041f4ac:  3617f4c0      tbz w0, #2, #-0x168 (addr 0x41f344)

----------------
IN: _IO_file_seekoff
0x000000000041f344:  a9438262      ldp x2, x0, [x19, #56]
0x000000000041f348:  cb000041      sub x1, x2, x0
0x000000000041f34c:  cb020000      sub x0, x0, x2
0x000000000041f350:  8a210296      bic x22, x20, x1
0x000000000041f354:  8a140021      and x1, x1, x20
0x000000000041f358:  eb16001f      cmp x0, x22
0x000000000041f35c:  540011eb      b.lt #+0x23c (addr 0x41f598)

----------------
IN: _IO_file_seekoff
0x000000000041f360:  f9406e7a      ldr x26, [x19, #216]
0x000000000041f364:  cb170340      sub x0, x26, x23
0x000000000041f368:  eb18001f      cmp x0, x24
0x000000000041f36c:  54001c82      b.hs #+0x390 (addr 0x41f6fc)

----------------
IN: _IO_file_seekoff
0x000000000041f370:  f9404343      ldr x3, [x26, #128]
0x000000000041f374:  aa1303e0      mov x0, x19
0x000000000041f378:  52800002      mov w2, #0x0
0x000000000041f37c:  d63f0060      blr x3

----------------
IN: _IO_file_seek
0x000000000041ef20:  b9407000      ldr w0, [x0, #112]
0x000000000041ef24:  14004287      b #+0x10a1c (addr 0x42f940)

----------------
IN: lseek64
0x000000000042f940:  93407c00      sxtw x0, w0
0x000000000042f944:  93407c42      sxtw x2, w2
0x000000000042f948:  d28007c8      mov x8, #0x3e
0x000000000042f94c:  d4000001      svc #0x0

----------------
IN: lseek64
0x000000000042f950:  b140041f      cmn x0, #0x1000 (4096)
0x000000000042f954:  54000048      b.hi #+0x8 (addr 0x42f95c)

----------------
IN: lseek64
0x000000000042f958:  d65f03c0      ret

----------------
IN: _IO_file_seekoff
0x000000000041f380:  aa0003fa      mov x26, x0
0x000000000041f384:  b7f81dc0      tbnz x0, #63, #+0x3b8 (addr 0x41f73c)

----------------
IN: _IO_file_seekoff
0x000000000041f388:  b40010f6      cbz x22, #+0x21c (addr 0x41f5a4)

----------------
IN: _IO_file_seekoff
0x000000000041f38c:  f9002bfb      str x27, [sp, #80]
0x000000000041f390:  f9406e7b      ldr x27, [x19, #216]
0x000000000041f394:  cb170360      sub x0, x27, x23
0x000000000041f398:  eb18001f      cmp x0, x24
0x000000000041f39c:  54001c42      b.hs #+0x388 (addr 0x41f724)

----------------
IN: _IO_file_seekoff
0x000000000041f3a0:  aa1603e2      mov x2, x22
0x000000000041f3a4:  f9401e61      ldr x1, [x19, #56]
0x000000000041f3a8:  f9403b63      ldr x3, [x27, #112]
0x000000000041f3ac:  35000079      cbnz w25, #+0xc (addr 0x41f3b8)

----------------
IN: _IO_file_seekoff
0x000000000041f3b0:  f9402262      ldr x2, [x19, #64]
0x000000000041f3b4:  cb010042      sub x2, x2, x1
0x000000000041f3b8:  aa1303e0      mov x0, x19
0x000000000041f3bc:  d63f0060      blr x3

----------------
IN: _IO_file_seekoff
0x000000000041f3c0:  aa0003e1      mov x1, x0
0x000000000041f3c4:  eb0002df      cmp x22, x0
0x000000000041f3c8:  540017ac      b.gt #+0x2f4 (addr 0x41f6bc)

----------------
IN: _IO_file_seekoff
0x000000000041f3cc:  f9402bfb      ldr x27, [sp, #80]
0x000000000041f3d0:  8b00035a      add x26, x26, x0
0x000000000041f3d4:  f9401e62      ldr x2, [x19, #56]
0x000000000041f3d8:  aa1403e0      mov x0, x20
0x000000000041f3dc:  b9400263      ldr w3, [x19]
0x000000000041f3e0:  8b160056      add x22, x2, x22
0x000000000041f3e4:  8b010041      add x1, x2, x1
0x000000000041f3e8:  121b7863      and w3, w3, #0xffffffef
0x000000000041f3ec:  a94363f7      ldp x23, x24, [sp, #48]
0x000000000041f3f0:  b9000263      str w3, [x19]
0x000000000041f3f4:  a9008676      stp x22, x1, [x19, #8]
0x000000000041f3f8:  a9018a62      stp x2, x2, [x19, #24]
0x000000000041f3fc:  a9028a62      stp x2, x2, [x19, #40]
0x000000000041f400:  f9004a7a      str x26, [x19, #144]
0x000000000041f404:  a9446bf9      ldp x25, x26, [sp, #64]
0x000000000041f408:  14000041      b #+0x104 (addr 0x41f50c)

----------------
IN: _IO_file_seekoff
0x000000000041f50c:  f945deb5      ldr x21, [x21, #3000]
0x000000000041f510:  f9407fe1      ldr x1, [sp, #248]
0x000000000041f514:  f94002a2      ldr x2, [x21]
0x000000000041f518:  eb020021      subs x1, x1, x2
0x000000000041f51c:  d2800002      mov x2, #0x0
0x000000000041f520:  54001221      b.ne #+0x244 (addr 0x41f764)

----------------
IN: _IO_file_seekoff
0x000000000041f524:  a94153f3      ldp x19, x20, [sp, #16]
0x000000000041f528:  a9425bf5      ldp x21, x22, [sp, #32]
0x000000000041f52c:  a8d07bfd      ldp x29, x30, [sp], #256
0x000000000041f530:  d65f03c0      ret

----------------
IN: fseek
0x000000000041e1ac:  b9400261      ldr w1, [x19]
0x000000000041e1b0:  b100041f      cmn x0, #0x1 (1)
0x000000000041e1b4:  5a9f13f4      csetm w20, eq
0x000000000041e1b8:  377800c1      tbnz w1, #15, #+0x18 (addr 0x41e1d0)

----------------
IN: fseek
0x000000000041e1bc:  f9404673      ldr x19, [x19, #136]
0x000000000041e1c0:  b9400660      ldr w0, [x19, #4]
0x000000000041e1c4:  51000400      sub w0, w0, #0x1 (1)
0x000000000041e1c8:  b9000660      str w0, [x19, #4]
0x000000000041e1cc:  340000e0      cbz w0, #+0x1c (addr 0x41e1e8)

----------------
IN: fseek
0x000000000041e1e8:  f900067f      str xzr, [x19, #8]
0x000000000041e1ec:  aa1303e1      mov x1, x19
0x000000000041e1f0:  940118c0      bl #+0x46300 (addr 0x4644f0)

----------------
IN: fseek
0x000000000041e1f4:  7100041f      cmp w0, #0x1 (1)
0x000000000041e1f8:  54fffecd      b.le #-0x28 (addr 0x41e1d0)

----------------
IN: fseek
0x000000000041e1d0:  2a1403e0      mov w0, w20
0x000000000041e1d4:  a94153f3      ldp x19, x20, [sp, #16]
0x000000000041e1d8:  a9425bf5      ldp x21, x22, [sp, #32]
0x000000000041e1dc:  f9401bf7      ldr x23, [sp, #48]
0x000000000041e1e0:  a8c47bfd      ldp x29, x30, [sp], #64
0x000000000041e1e4:  d65f03c0      ret

----------------
IN: read_checkpoint
0x0000000000400e18:  f9402be0      ldr x0, [sp, #80]
0x0000000000400e1c:  94006625      bl #+0x19894 (addr 0x41a6b0)

----------------
IN: _IO_ftell
0x000000000041a6b0:  a9bd7bfd      stp x29, x30, [sp, #-48]!
0x000000000041a6b4:  910003fd      mov x29, sp
0x000000000041a6b8:  a90153f3      stp x19, x20, [sp, #16]
0x000000000041a6bc:  aa0003f3      mov x19, x0
0x000000000041a6c0:  b9400000      ldr w0, [x0]
0x000000000041a6c4:  f90013f5      str x21, [sp, #32]
0x000000000041a6c8:  37780220      tbnz w0, #15, #+0x44 (addr 0x41a70c)

----------------
IN: _IO_ftell
0x000000000041a6cc:  f9404674      ldr x20, [x19, #136]
0x000000000041a6d0:  d53bd055      mrs x21, (unknown)
0x000000000041a6d4:  d11f02b5      sub x21, x21, #0x7c0 (1984)
0x000000000041a6d8:  f9400680      ldr x0, [x20, #8]
0x000000000041a6dc:  eb15001f      cmp x0, x21
0x000000000041a6e0:  54000100      b.eq #+0x20 (addr 0x41a700)

----------------
IN: _IO_ftell
0x000000000041a6e4:  aa1403e2      mov x2, x20
0x000000000041a6e8:  52800021      mov w1, #0x1
0x000000000041a6ec:  52800000      mov w0, #0x0
0x000000000041a6f0:  940126ec      bl #+0x49bb0 (addr 0x4642a0)

----------------
IN: _IO_ftell
0x000000000041a6f4:  350009e0      cbnz w0, #+0x13c (addr 0x41a830)

----------------
IN: _IO_ftell
0x000000000041a6f8:  f9404674      ldr x20, [x19, #136]
0x000000000041a6fc:  f9000695      str x21, [x20, #8]
0x000000000041a700:  b9400680      ldr w0, [x20, #4]
0x000000000041a704:  11000400      add w0, w0, #0x1 (1)
0x000000000041a708:  b9000680      str w0, [x20, #4]
0x000000000041a70c:  aa1303e0      mov x0, x19
0x000000000041a710:  52800003      mov w3, #0x0
0x000000000041a714:  52800022      mov w2, #0x1
0x000000000041a718:  d2800001      mov x1, #0x0
0x000000000041a71c:  940001a5      bl #+0x694 (addr 0x41adb0)

----------------
IN: _IO_file_seekoff
0x000000000041f534:  f9401e60      ldr x0, [x19, #56]
0x000000000041f538:  b4000760      cbz x0, #+0xec (addr 0x41f624)

----------------
IN: _IO_file_seekoff
0x000000000041f53c:  a9425262      ldp x2, x20, [x19, #32]
0x000000000041f540:  b9400260      ldr w0, [x19]
0x000000000041f544:  72140001      ands w1, w0, #0x1000
0x000000000041f548:  fa421280      ccmp x20, x2, #nzcv, ne
0x000000000041f54c:  540008c9      b.ls #+0x118 (addr 0x41f664)

----------------
IN: _IO_file_seekoff
0x000000000041f664:  f9404a60      ldr x0, [x19, #144]
0x000000000041f668:  eb02029f      cmp x20, x2
0x000000000041f66c:  54000508      b.hi #+0xa0 (addr 0x41f70c)

----------------
IN: _IO_file_seekoff
0x000000000041f670:  a9408674      ldp x20, x1, [x19, #8]
0x000000000041f674:  cb010294      sub x20, x20, x1
0x000000000041f678:  17ffffed      b #-0x4c (addr 0x41f62c)

----------------
IN: _IO_file_seekoff
0x000000000041f62c:  b100041f      cmn x0, #0x1 (1)
0x000000000041f630:  54000260      b.eq #+0x4c (addr 0x41f67c)

----------------
IN: _IO_file_seekoff
0x000000000041f634:  ab000280      adds x0, x20, x0
0x000000000041f638:  54fff6a5      b.pl #-0x12c (addr 0x41f50c)

----------------
IN: _IO_ftell
0x000000000041a720:  b9400261      ldr w1, [x19]
0x000000000041a724:  aa0003f4      mov x20, x0
0x000000000041a728:  12110020      and w0, w1, #0x8000
0x000000000041a72c:  364003c1      tbz w1, #8, #+0x78 (addr 0x41a7a4)

----------------
IN: _IO_ftell
0x000000000041a7a4:  35fffea0      cbnz w0, #-0x2c (addr 0x41a778)

----------------
IN: _IO_ftell
0x000000000041a7a8:  f9404661      ldr x1, [x19, #136]
0x000000000041a7ac:  b9400420      ldr w0, [x1, #4]
0x000000000041a7b0:  51000400      sub w0, w0, #0x1 (1)
0x000000000041a7b4:  b9000420      str w0, [x1, #4]
0x000000000041a7b8:  35fffe00      cbnz w0, #-0x40 (addr 0x41a778)

----------------
IN: _IO_ftell
0x000000000041a7bc:  f900043f      str xzr, [x1, #8]
0x000000000041a7c0:  aa0103f3      mov x19, x1
0x000000000041a7c4:  9401274b      bl #+0x49d2c (addr 0x4644f0)

----------------
IN: _IO_ftell
0x000000000041a7c8:  7100041f      cmp w0, #0x1 (1)
0x000000000041a7cc:  54fffd6d      b.le #-0x54 (addr 0x41a778)

----------------
IN: _IO_ftell
0x000000000041a778:  b100069f      cmn x20, #0x1 (1)
0x000000000041a77c:  54000380      b.eq #+0x70 (addr 0x41a7ec)

----------------
IN: _IO_ftell
0x000000000041a780:  aa1403e0      mov x0, x20
0x000000000041a784:  a94153f3      ldp x19, x20, [sp, #16]
0x000000000041a788:  f94013f5      ldr x21, [sp, #32]
0x000000000041a78c:  a8c37bfd      ldp x29, x30, [sp], #48
0x000000000041a790:  d65f03c0      ret

----------------
IN: read_checkpoint
0x0000000000400e20:  aa0003e1      mov x1, x0
0x0000000000400e24:  f9400be0      ldr x0, [sp, #16]
0x0000000000400e28:  f9000001      str x1, [x0]
0x0000000000400e2c:  f9402be0      ldr x0, [sp, #80]
0x0000000000400e30:  9400641c      bl #+0x19070 (addr 0x419ea0)

----------------
IN: _IO_new_fclose
0x0000000000419ea0:  a9bc7bfd      stp x29, x30, [sp, #-64]!
0x0000000000419ea4:  910003fd      mov x29, sp
0x0000000000419ea8:  b9400001      ldr w1, [x0]
0x0000000000419eac:  a90153f3      stp x19, x20, [sp, #16]
0x0000000000419eb0:  aa0003f3      mov x19, x0
0x0000000000419eb4:  a9025bf5      stp x21, x22, [sp, #32]
0x0000000000419eb8:  a90363f7      stp x23, x24, [sp, #48]
0x0000000000419ebc:  37680b01      tbnz w1, #13, #+0x160 (addr 0x41a01c)

----------------
IN: _IO_new_fclose
0x000000000041a01c:  94001c06      bl #+0x7018 (addr 0x421034)

----------------
IN: _IO_un_link
0x0000000000421034:  b9400001      ldr w1, [x0]
0x0000000000421038:  37380041      tbnz w1, #7, #+0x8 (addr 0x421040)

----------------
IN: _IO_un_link
0x0000000000421040:  17ffff64      b #-0x270 (addr 0x420dd0)

----------------
IN: _IO_un_link.part.0
0x0000000000420dd0:  a9b97bfd      stp x29, x30, [sp, #-112]!
0x0000000000420dd4:  90000001      adrp x1, #+0x0 (addr 0x420000)
0x0000000000420dd8:  912e0021      add x1, x1, #0xb80 (2944)
0x0000000000420ddc:  910003fd      mov x29, sp
0x0000000000420de0:  a9025bf5      stp x21, x22, [sp, #32]
0x0000000000420de4:  d0000435      adrp x21, #+0x86000 (addr 0x4a6000)
0x0000000000420de8:  910123f6      add x22, sp, #0x48 (72)
0x0000000000420dec:  f945dea2      ldr x2, [x21, #3000]
0x0000000000420df0:  a90153f3      stp x19, x20, [sp, #16]
0x0000000000420df4:  aa0003f3      mov x19, x0
0x0000000000420df8:  a90363f7      stp x23, x24, [sp, #48]
0x0000000000420dfc:  aa1603e0      mov x0, x22
0x0000000000420e00:  b0000454      adrp x20, #+0x89000 (addr 0x4a9000)
0x0000000000420e04:  f9400043      ldr x3, [x2]
0x0000000000420e08:  f90037e3      str x3, [sp, #104]
0x0000000000420e0c:  d2800003      mov x3, #0x0
0x0000000000420e10:  a904ffe1      stp x1, xzr, [sp, #72]
0x0000000000420e14:  d53bd057      mrs x23, (unknown)
0x0000000000420e18:  d11f02f7      sub x23, x23, #0x7c0 (1984)
0x0000000000420e1c:  940009e1      bl #+0x2784 (addr 0x4235a0)

----------------
IN: _IO_un_link.part.0
0x0000000000420e20:  913be282      add x2, x20, #0xef8 (3832)
0x0000000000420e24:  f9400840      ldr x0, [x2, #16]
0x0000000000420e28:  eb0002ff      cmp x23, x0
0x0000000000420e2c:  54000120      b.eq #+0x24 (addr 0x420e50)

----------------
IN: _IO_un_link.part.0
0x0000000000420e30:  91002058      add x24, x2, #0x8 (8)
0x0000000000420e34:  52800021      mov w1, #0x1
0x0000000000420e38:  aa1803e2      mov x2, x24
0x0000000000420e3c:  52800000      mov w0, #0x0
0x0000000000420e40:  94010d18      bl #+0x43460 (addr 0x4642a0)

----------------
IN: _IO_un_link.part.0
0x0000000000420e44:  35000ea0      cbnz w0, #+0x1d4 (addr 0x421018)

----------------
IN: _IO_un_link.part.0
0x0000000000420e48:  913be280      add x0, x20, #0xef8 (3832)
0x0000000000420e4c:  f9000817      str x23, [x0, #16]
0x0000000000420e50:  913be280      add x0, x20, #0xef8 (3832)
0x0000000000420e54:  b9400263      ldr w3, [x19]
0x0000000000420e58:  f9077e93      str x19, [x20, #3832]
0x0000000000420e5c:  12110064      and w4, w3, #0x8000
0x0000000000420e60:  b9400c01      ldr w1, [x0, #12]
0x0000000000420e64:  11000422      add w2, w1, #0x1 (1)
0x0000000000420e68:  b9000c02      str w2, [x0, #12]
0x0000000000420e6c:  37780743      tbnz w3, #15, #+0xe8 (addr 0x420f54)

----------------
IN: _IO_un_link.part.0
0x0000000000420e70:  f9404678      ldr x24, [x19, #136]
0x0000000000420e74:  f9400700      ldr x0, [x24, #8]
0x0000000000420e78:  eb0002ff      cmp x23, x0
0x0000000000420e7c:  54000bc0      b.eq #+0x178 (addr 0x420ff4)

----------------
IN: _IO_un_link.part.0
0x0000000000420e80:  aa1803e2      mov x2, x24
0x0000000000420e84:  52800021      mov w1, #0x1
0x0000000000420e88:  52800000      mov w0, #0x0
0x0000000000420e8c:  94010d05      bl #+0x43414 (addr 0x4642a0)

----------------
IN: _IO_un_link.part.0
0x0000000000420e90:  35000ca0      cbnz w0, #+0x194 (addr 0x421024)

----------------
IN: _IO_un_link.part.0
0x0000000000420e94:  f9404678      ldr x24, [x19, #136]
0x0000000000420e98:  f0000422      adrp x2, #+0x87000 (addr 0x4a7000)
0x0000000000420e9c:  b9400263      ldr w3, [x19]
0x0000000000420ea0:  f9403040      ldr x0, [x2, #96]
0x0000000000420ea4:  f9000717      str x23, [x24, #8]
0x0000000000420ea8:  b9400701      ldr w1, [x24, #4]
0x0000000000420eac:  12110064      and w4, w3, #0x8000
0x0000000000420eb0:  11000421      add w1, w1, #0x1 (1)
0x0000000000420eb4:  b9000701      str w1, [x24, #4]
0x0000000000420eb8:  b4000160      cbz x0, #+0x2c (addr 0x420ee4)

----------------
IN: _IO_un_link.part.0
0x0000000000420ebc:  f9403401      ldr x1, [x0, #104]
0x0000000000420ec0:  eb00027f      cmp x19, x0
0x0000000000420ec4:  540006e0      b.eq #+0xdc (addr 0x420fa0)

----------------
IN: _IO_un_link.part.0
0x0000000000420fa0:  f9003041      str x1, [x2, #96]
0x0000000000420fa4:  12187863      and w3, w3, #0xffffff7f
0x0000000000420fa8:  b9000263      str w3, [x19]
0x0000000000420fac:  34fffa24      cbz w4, #-0xbc (addr 0x420ef0)

----------------
IN: _IO_un_link.part.0
0x0000000000420ef0:  f9404678      ldr x24, [x19, #136]
0x0000000000420ef4:  b9400700      ldr w0, [x24, #4]
0x0000000000420ef8:  51000400      sub w0, w0, #0x1 (1)
0x0000000000420efc:  b9000700      str w0, [x24, #4]
0x0000000000420f00:  34000680      cbz w0, #+0xd0 (addr 0x420fd0)

----------------
IN: _IO_un_link.part.0
0x0000000000420fd0:  f900071f      str xzr, [x24, #8]
0x0000000000420fd4:  aa1803e1      mov x1, x24
0x0000000000420fd8:  52800000      mov w0, #0x0
0x0000000000420fdc:  94010d45      bl #+0x43514 (addr 0x4644f0)

----------------
IN: _IO_un_link.part.0
0x0000000000420fe0:  7100041f      cmp w0, #0x1 (1)
0x0000000000420fe4:  54fff90d      b.le #-0xe0 (addr 0x420f04)

----------------
IN: _IO_un_link.part.0
0x0000000000420f04:  913be280      add x0, x20, #0xef8 (3832)
0x0000000000420f08:  913be282      add x2, x20, #0xef8 (3832)
0x0000000000420f0c:  f9077e9f      str xzr, [x20, #3832]
0x0000000000420f10:  b9400c01      ldr w1, [x0, #12]
0x0000000000420f14:  51000421      sub w1, w1, #0x1 (1)
0x0000000000420f18:  b9000c41      str w1, [x2, #12]
0x0000000000420f1c:  340002e1      cbz w1, #+0x5c (addr 0x420f78)

----------------
IN: _IO_un_link.part.0
0x0000000000420f78:  f900085f      str xzr, [x2, #16]
0x0000000000420f7c:  91002053      add x19, x2, #0x8 (8)
0x0000000000420f80:  aa1303e1      mov x1, x19
0x0000000000420f84:  52800000      mov w0, #0x0
0x0000000000420f88:  94010d5a      bl #+0x43568 (addr 0x4644f0)

----------------
IN: _IO_un_link.part.0
0x0000000000420f8c:  7100041f      cmp w0, #0x1 (1)
0x0000000000420f90:  54fffc8d      b.le #-0x70 (addr 0x420f20)

----------------
IN: _IO_un_link.part.0
0x0000000000420f20:  aa1603e0      mov x0, x22
0x0000000000420f24:  940009a8      bl #+0x26a0 (addr 0x4235c4)

----------------
IN: _IO_un_link.part.0
0x0000000000420f28:  f945deb5      ldr x21, [x21, #3000]
0x0000000000420f2c:  f94037e0      ldr x0, [sp, #104]
0x0000000000420f30:  f94002a1      ldr x1, [x21]
0x0000000000420f34:  eb010000      subs x0, x0, x1
0x0000000000420f38:  d2800001      mov x1, #0x0
0x0000000000420f3c:  540007a1      b.ne #+0xf4 (addr 0x421030)

----------------
IN: _IO_un_link.part.0
0x0000000000420f40:  a94153f3      ldp x19, x20, [sp, #16]
0x0000000000420f44:  a9425bf5      ldp x21, x22, [sp, #32]
0x0000000000420f48:  a94363f7      ldp x23, x24, [sp, #48]
0x0000000000420f4c:  a8c77bfd      ldp x29, x30, [sp], #112
0x0000000000420f50:  d65f03c0      ret

----------------
IN: _IO_new_fclose
0x000000000041a020:  b9400261      ldr w1, [x19]
0x000000000041a024:  377ff741      tbnz w1, #15, #-0x118 (addr 0x419f0c)

----------------
IN: _IO_new_fclose
0x000000000041a028:  f9404674      ldr x20, [x19, #136]
0x000000000041a02c:  d53bd055      mrs x21, (unknown)
0x000000000041a030:  d11f02b5      sub x21, x21, #0x7c0 (1984)
0x000000000041a034:  f9400680      ldr x0, [x20, #8]
0x000000000041a038:  eb15001f      cmp x0, x21
0x000000000041a03c:  54fff521      b.ne #-0x15c (addr 0x419ee0)

----------------
IN: _IO_new_fclose
0x0000000000419ee0:  aa1403e2      mov x2, x20
0x0000000000419ee4:  52800021      mov w1, #0x1
0x0000000000419ee8:  52800000      mov w0, #0x0
0x0000000000419eec:  940128ed      bl #+0x4a3b4 (addr 0x4642a0)

----------------
IN: _IO_new_fclose
0x0000000000419ef0:  35000ca0      cbnz w0, #+0x194 (addr 0x41a084)

----------------
IN: _IO_new_fclose
0x0000000000419ef4:  f9404674      ldr x20, [x19, #136]
0x0000000000419ef8:  b9400261      ldr w1, [x19]
0x0000000000419efc:  f9000695      str x21, [x20, #8]
0x0000000000419f00:  b9400680      ldr w0, [x20, #4]
0x0000000000419f04:  11000400      add w0, w0, #0x1 (1)
0x0000000000419f08:  b9000680      str w0, [x20, #4]
0x0000000000419f0c:  12110020      and w0, w1, #0x8000
0x0000000000419f10:  37680701      tbnz w1, #13, #+0xe0 (addr 0x419ff0)

----------------
IN: _IO_new_fclose
0x0000000000419ff0:  aa1303e0      mov x0, x19
0x0000000000419ff4:  940018a0      bl #+0x6280 (addr 0x420274)

----------------
IN: _IO_file_close_it
0x0000000000420274:  a9bd7bfd      stp x29, x30, [sp, #-48]!
0x0000000000420278:  910003fd      mov x29, sp
0x000000000042027c:  a90153f3      stp x19, x20, [sp, #16]
0x0000000000420280:  b9407014      ldr w20, [x0, #112]
0x0000000000420284:  3100069f      cmn w20, #0x1 (1)
0x0000000000420288:  540007e0      b.eq #+0xfc (addr 0x420384)

----------------
IN: _IO_file_close_it
0x000000000042028c:  f9400001      ldr x1, [x0]
0x0000000000420290:  d2810102      mov x2, #0x808
0x0000000000420294:  f90013f5      str x21, [sp, #32]
0x0000000000420298:  aa0003f3      mov x19, x0
0x000000000042029c:  8a020021      and x1, x1, x2
0x00000000004202a0:  52800015      mov w21, #0x0
0x00000000004202a4:  f120003f      cmp x1, #0x800 (2048)
0x00000000004202a8:  54000760      b.eq #+0xec (addr 0x420394)

----------------
IN: _IO_file_close_it
0x00000000004202ac:  aa1303e0      mov x0, x19
0x00000000004202b0:  940009cc      bl #+0x2730 (addr 0x4229e0)

----------------
IN: _IO_unsave_markers
0x00000000004229e0:  a9be7bfd      stp x29, x30, [sp, #-32]!
0x00000000004229e4:  910003fd      mov x29, sp
0x00000000004229e8:  f9000bf3      str x19, [sp, #16]
0x00000000004229ec:  aa0003f3      mov x19, x0
0x00000000004229f0:  f9403000      ldr x0, [x0, #96]
0x00000000004229f4:  b4000040      cbz x0, #+0x8 (addr 0x4229fc)

----------------
IN: _IO_unsave_markers
0x00000000004229fc:  f9402660      ldr x0, [x19, #72]
0x0000000000422a00:  b40000c0      cbz x0, #+0x18 (addr 0x422a18)

----------------
IN: _IO_unsave_markers
0x0000000000422a18:  f9400bf3      ldr x19, [sp, #16]
0x0000000000422a1c:  a8c27bfd      ldp x29, x30, [sp], #32
0x0000000000422a20:  d65f03c0      ret

----------------
IN: _IO_file_close_it
0x00000000004202b4:  b9407660      ldr w0, [x19, #116]
0x00000000004202b8:  52800014      mov w20, #0x0
0x00000000004202bc:  372801a0      tbnz w0, #5, #+0x34 (addr 0x4202f0)

----------------
IN: _IO_file_close_it
0x00000000004202c0:  d0000421      adrp x1, #+0x86000 (addr 0x4a6000)
0x00000000004202c4:  f9406e74      ldr x20, [x19, #216]
0x00000000004202c8:  f9465020      ldr x0, [x1, #3232]
0x00000000004202cc:  f9470021      ldr x1, [x1, #3584]
0x00000000004202d0:  cb010000      sub x0, x0, x1
0x00000000004202d4:  cb010281      sub x1, x20, x1
0x00000000004202d8:  eb01001f      cmp x0, x1
0x00000000004202dc:  540007a9      b.ls #+0xf4 (addr 0x4203d0)

----------------
IN: _IO_file_close_it
0x00000000004202e0:  f9404681      ldr x1, [x20, #136]
0x00000000004202e4:  aa1303e0      mov x0, x19
0x00000000004202e8:  d63f0020      blr x1

----------------
IN: _IO_file_close
0x000000000041e870:  b9407000      ldr w0, [x0, #112]
0x000000000041e874:  1400461f      b #+0x1187c (addr 0x4300f0)

----------------
IN: __close_nocancel
0x00000000004300f0:  93407c00      sxtw x0, w0
0x00000000004300f4:  d2800728      mov x8, #0x39
0x00000000004300f8:  d4000001      svc #0x0

----------------
IN: __close_nocancel
0x00000000004300fc:  b140041f      cmn x0, #0x1000 (4096)
0x0000000000430100:  54000048      b.hi #+0x8 (addr 0x430108)

----------------
IN: __close_nocancel
0x0000000000430104:  d65f03c0      ret

----------------
IN: _IO_file_close_it
0x00000000004202ec:  2a0003f4      mov w20, w0
0x00000000004202f0:  b940c260      ldr w0, [x19, #192]
0x00000000004202f4:  7100001f      cmp w0, #0x0 (0)
0x00000000004202f8:  540001ed      b.le #+0x3c (addr 0x420334)

----------------
IN: _IO_file_close_it
0x0000000000420334:  d2800002      mov x2, #0x0
0x0000000000420338:  d2800001      mov x1, #0x0
0x000000000042033c:  aa1303e0      mov x0, x19
0x0000000000420340:  52800003      mov w3, #0x0
0x0000000000420344:  940004ef      bl #+0x13bc (addr 0x421700)

----------------
IN: _IO_setb
0x000000000042172c:  36000164      tbz w4, #0, #+0x2c (addr 0x421758)

----------------
IN: _IO_setb
0x0000000000421758:  94001d42      bl #+0x7508 (addr 0x428c60)

----------------
IN: __free
0x0000000000428c64:  a9bc7bfd      stp x29, x30, [sp, #-64]!
0x0000000000428c68:  d1004001      sub x1, x0, #0x10 (16)
0x0000000000428c6c:  910003fd      mov x29, sp
0x0000000000428c70:  a90153f3      stp x19, x20, [sp, #16]
0x0000000000428c74:  d53bd053      mrs x19, (unknown)
0x0000000000428c78:  d00003f4      adrp x20, #+0x7e000 (addr 0x4a6000)
0x0000000000428c7c:  f946ea94      ldr x20, [x20, #3536]
0x0000000000428c80:  f9400420      ldr x0, [x1, #8]
0x0000000000428c84:  f90013f5      str x21, [sp, #32]
0x0000000000428c88:  b8746a75      ldr w21, [x19, x20]
0x0000000000428c8c:  36080220      tbz w0, #1, #+0x44 (addr 0x428cd0)

----------------
IN: __free
0x0000000000428cd0:  91400262      add x2, x19, #0x0 (0)
0x0000000000428cd4:  91014042      add x2, x2, #0x50 (80)
0x0000000000428cd8:  f9400443      ldr x3, [x2, #8]
0x0000000000428cdc:  b4000343      cbz x3, #+0x68 (addr 0x428d44)

----------------
IN: __free
0x0000000000428ce0:  36100200      tbz w0, #2, #+0x40 (addr 0x428d20)

----------------
IN: __free
0x0000000000428d20:  f00003e0      adrp x0, #+0x7f000 (addr 0x4a7000)
0x0000000000428d24:  9119e000      add x0, x0, #0x678 (1656)
0x0000000000428d28:  17fffff7      b #-0x24 (addr 0x428d04)

----------------
IN: __free
0x0000000000428d04:  52800002      mov w2, #0x0
0x0000000000428d08:  97fff48e      bl #-0x2dc8 (addr 0x425f40)

----------------
IN: _int_free
0x0000000000425f40:  a9b67bfd      stp x29, x30, [sp, #-160]!
0x0000000000425f44:  910003fd      mov x29, sp
0x0000000000425f48:  a90363f7      stp x23, x24, [sp, #48]
0x0000000000425f4c:  b0000417      adrp x23, #+0x81000 (addr 0x4a6000)
0x0000000000425f50:  a90153f3      stp x19, x20, [sp, #16]
0x0000000000425f54:  aa0103f3      mov x19, x1
0x0000000000425f58:  f9400421      ldr x1, [x1, #8]
0x0000000000425f5c:  a9025bf5      stp x21, x22, [sp, #32]
0x0000000000425f60:  aa0003f6      mov x22, x0
0x0000000000425f64:  f945dee3      ldr x3, [x23, #3000]
0x0000000000425f68:  927df034      and x20, x1, #0xfffffffffffffff8
0x0000000000425f6c:  cb1403e0      neg x0, x20
0x0000000000425f70:  f9400064      ldr x4, [x3]
0x0000000000425f74:  f9004fe4      str x4, [sp, #152]
0x0000000000425f78:  d2800004      mov x4, #0x0
0x0000000000425f7c:  a9046bf9      stp x25, x26, [sp, #64]
0x0000000000425f80:  eb13001f      cmp x0, x19
0x0000000000425f84:  54001983      b.lo #+0x330 (addr 0x4262b4)

----------------
IN: _int_free
0x0000000000425f88:  f2400e7f      tst x19, #0xf
0x0000000000425f8c:  54001941      b.ne #+0x328 (addr 0x4262b4)

----------------
IN: _int_free
0x0000000000425f90:  f1007e9f      cmp x20, #0x1f (31)
0x0000000000425f94:  54001989      b.ls #+0x330 (addr 0x4262c4)

----------------
IN: _int_free
0x0000000000425f98:  927d0023      and x3, x1, #0x8
0x0000000000425f9c:  37181941      tbnz w1, #3, #+0x328 (addr 0x4262c4)

----------------
IN: _int_free
0x0000000000425fa0:  d53bd055      mrs x21, (unknown)
0x0000000000425fa4:  2a0203f8      mov w24, w2
0x0000000000425fa8:  914002a0      add x0, x21, #0x0 (0)
0x0000000000425fac:  91014000      add x0, x0, #0x50 (80)
0x0000000000425fb0:  9000045a      adrp x26, #+0x88000 (addr 0x4ad000)
0x0000000000425fb4:  f9400409      ldr x9, [x0, #8]
0x0000000000425fb8:  b4000289      cbz x9, #+0x50 (addr 0x426008)

----------------
IN: _int_free
0x0000000000425fbc:  d0000402      adrp x2, #+0x82000 (addr 0x4a7000)
0x0000000000425fc0:  91178042      add x2, x2, #0x5e0 (1504)
0x0000000000425fc4:  d1004680      sub x0, x20, #0x11 (17)
0x0000000000425fc8:  9000045a      adrp x26, #+0x88000 (addr 0x4ad000)
0x0000000000425fcc:  f9403444      ldr x4, [x2, #104]
0x0000000000425fd0:  d344fc00      lsr x0, x0, #4
0x0000000000425fd4:  eb00009f      cmp x4, x0
0x0000000000425fd8:  54000189      b.ls #+0x30 (addr 0x426008)

----------------
IN: _int_free
0x0000000000426008:  913d6340      add x0, x26, #0xf58 (3928)
0x000000000042600c:  f9400400      ldr x0, [x0, #8]
0x0000000000426010:  eb00029f      cmp x20, x0
0x0000000000426014:  540005c8      b.hi #+0xb8 (addr 0x4260cc)

----------------
IN: _int_free
0x00000000004260cc:  37080ca1      tbnz w1, #1, #+0x194 (addr 0x426260)

----------------
IN: _int_free
0x00000000004260d0:  d11f02a0      sub x0, x21, #0x7c0 (1984)
0x00000000004260d4:  52800021      mov w1, #0x1
0x00000000004260d8:  52000318      eor w24, w24, #0x1
0x00000000004260dc:  b9007fe1      str w1, [sp, #124]
0x00000000004260e0:  b9400000      ldr w0, [x0]
0x00000000004260e4:  7100001f      cmp w0, #0x0 (0)
0x00000000004260e8:  1a9f07e0      cset w0, ne
0x00000000004260ec:  6a00031f      tst w24, w0
0x00000000004260f0:  540013c1      b.ne #+0x278 (addr 0x426368)

----------------
IN: _int_free
0x00000000004260f4:  f94032c0      ldr x0, [x22, #96]
0x00000000004260f8:  8b140279      add x25, x19, x20
0x00000000004260fc:  eb13001f      cmp x0, x19
0x0000000000426100:  54002a60      b.eq #+0x54c (addr 0x42664c)

----------------
IN: _int_free
0x0000000000426104:  b94006c1      ldr w1, [x22, #4]
0x0000000000426108:  36082ae1      tbz w1, #1, #+0x55c (addr 0x426664)

----------------
IN: _int_free
0x0000000000426664:  f9400401      ldr x1, [x0, #8]
0x0000000000426668:  927df021      and x1, x1, #0xfffffffffffffff8
0x000000000042666c:  8b010000      add x0, x0, x1
0x0000000000426670:  eb00033f      cmp x25, x0
0x0000000000426674:  54ffd4c3      b.lo #-0x568 (addr 0x42610c)

----------------
IN: _int_free
0x000000000042610c:  f9400720      ldr x0, [x25, #8]
0x0000000000426110:  36002bc0      tbz w0, #0, #+0x578 (addr 0x426688)

----------------
IN: _int_free
0x0000000000426114:  927df018      and x24, x0, #0xfffffffffffffff8
0x0000000000426118:  f100401f      cmp x0, #0x10 (16)
0x000000000042611c:  540020c9      b.ls #+0x418 (addr 0x426534)

----------------
IN: _int_free
0x0000000000426120:  f94446c0      ldr x0, [x22, #2184]
0x0000000000426124:  eb18001f      cmp x0, x24
0x0000000000426128:  54002069      b.ls #+0x40c (addr 0x426534)

----------------
IN: _int_free
0x000000000042612c:  b94f5b41      ldr w1, [x26, #3928]
0x0000000000426130:  35002b41      cbnz w1, #+0x568 (addr 0x426698)

----------------
IN: _int_free
0x0000000000426134:  f9400660      ldr x0, [x19, #8]
0x0000000000426138:  37000140      tbnz w0, #0, #+0x28 (addr 0x426160)

----------------
IN: _int_free
0x0000000000426160:  f94032c0      ldr x0, [x22, #96]
0x0000000000426164:  eb19001f      cmp x0, x25
0x0000000000426168:  54001dc0      b.eq #+0x3b8 (addr 0x426520)

----------------
IN: _int_free
0x0000000000426520:  8b180294      add x20, x20, x24
0x0000000000426524:  b2400280      orr x0, x20, #0x1
0x0000000000426528:  f9000660      str x0, [x19, #8]
0x000000000042652c:  f90032d3      str x19, [x22, #96]
0x0000000000426530:  17ffff22      b #-0x378 (addr 0x4261b8)

----------------
IN: _int_free
0x00000000004261b8:  d29fffe0      mov x0, #0xffff
0x00000000004261bc:  eb00029f      cmp x20, x0
0x00000000004261c0:  54000e48      b.hi #+0x1c8 (addr 0x426388)

----------------
IN: _int_free
0x0000000000426388:  910022c0      add x0, x22, #0x8 (8)
0x000000000042638c:  b9400000      ldr w0, [x0]
0x0000000000426390:  350018c0      cbnz w0, #+0x318 (addr 0x4266a8)

----------------
IN: _int_free
0x0000000000426394:  b0000400      adrp x0, #+0x81000 (addr 0x4a7000)
0x0000000000426398:  9119e000      add x0, x0, #0x678 (1656)
0x000000000042639c:  eb0002df      cmp x22, x0
0x00000000004263a0:  540018a0      b.eq #+0x314 (addr 0x4266b4)

----------------
IN: _int_free
0x00000000004266b4:  f94032c2      ldr x2, [x22, #96]
0x00000000004266b8:  b0000400      adrp x0, #+0x81000 (addr 0x4a7000)
0x00000000004266bc:  91178003      add x3, x0, #0x5e0 (1504)
0x00000000004266c0:  f942f001      ldr x1, [x0, #1504]
0x00000000004266c4:  f9400440      ldr x0, [x2, #8]
0x00000000004266c8:  927df000      and x0, x0, #0xfffffffffffffff8
0x00000000004266cc:  eb01001f      cmp x0, x1
0x00000000004266d0:  54ffd7a3      b.lo #-0x50c (addr 0x4261c4)

----------------
IN: _int_free
0x00000000004266d4:  f9400460      ldr x0, [x3, #8]
0x00000000004266d8:  97fffdd2      bl #-0x8b8 (addr 0x425e20)

----------------
IN: systrim.constprop.0
0x0000000000425e20:  a9bc7bfd      stp x29, x30, [sp, #-64]!
0x0000000000425e24:  910003fd      mov x29, sp
0x0000000000425e28:  a9025bf5      stp x21, x22, [sp, #32]
0x0000000000425e2c:  d0000415      adrp x21, #+0x82000 (addr 0x4a7000)
0x0000000000425e30:  9119e2a1      add x1, x21, #0x678 (1656)
0x0000000000425e34:  a90153f3      stp x19, x20, [sp, #16]
0x0000000000425e38:  f9403021      ldr x1, [x1, #96]
0x0000000000425e3c:  f9400434      ldr x20, [x1, #8]
0x0000000000425e40:  927df294      and x20, x20, #0xfffffffffffffff8
0x0000000000425e44:  d1008681      sub x1, x20, #0x21 (33)
0x0000000000425e48:  eb00003f      cmp x1, x0
0x0000000000425e4c:  54000169      b.ls #+0x2c (addr 0x425e78)

----------------
IN: systrim.constprop.0
0x0000000000425e50:  d0000402      adrp x2, #+0x82000 (addr 0x4a7000)
0x0000000000425e54:  cb000021      sub x1, x1, x0
0x0000000000425e58:  f9430440      ldr x0, [x2, #1544]
0x0000000000425e5c:  b5000080      cbnz x0, #+0x10 (addr 0x425e6c)

----------------
IN: systrim.constprop.0
0x0000000000425e60:  b0000400      adrp x0, #+0x81000 (addr 0x4a6000)
0x0000000000425e64:  f947d800      ldr x0, [x0, #4016]
0x0000000000425e68:  f9400000      ldr x0, [x0]
0x0000000000425e6c:  cb0003e0      neg x0, x0
0x0000000000425e70:  8a010013      and x19, x0, x1
0x0000000000425e74:  b50000d3      cbnz x19, #+0x18 (addr 0x425e8c)

----------------
IN: systrim.constprop.0
0x0000000000425e78:  52800000      mov w0, #0x0
0x0000000000425e7c:  a94153f3      ldp x19, x20, [sp, #16]
0x0000000000425e80:  a9425bf5      ldp x21, x22, [sp, #32]
0x0000000000425e84:  a8c47bfd      ldp x29, x30, [sp], #64
0x0000000000425e88:  d65f03c0      ret

----------------
IN: _int_free
0x00000000004266dc:  17fffeba      b #-0x518 (addr 0x4261c4)

----------------
IN: _int_free
0x00000000004261c4:  b9407fe0      ldr w0, [sp, #124]
0x00000000004261c8:  35fff6a0      cbnz w0, #-0x12c (addr 0x42609c)

----------------
IN: _int_free
0x000000000042609c:  f945def7      ldr x23, [x23, #3000]
0x00000000004260a0:  f9404fe0      ldr x0, [sp, #152]
0x00000000004260a4:  f94002e1      ldr x1, [x23]
0x00000000004260a8:  eb010000      subs x0, x0, x1
0x00000000004260ac:  d2800001      mov x1, #0x0
0x00000000004260b0:  54003981      b.ne #+0x730 (addr 0x4267e0)

----------------
IN: _int_free
0x00000000004260b4:  a94153f3      ldp x19, x20, [sp, #16]
0x00000000004260b8:  a9425bf5      ldp x21, x22, [sp, #32]
0x00000000004260bc:  a94363f7      ldp x23, x24, [sp, #48]
0x00000000004260c0:  a9446bf9      ldp x25, x26, [sp, #64]
0x00000000004260c4:  a8ca7bfd      ldp x29, x30, [sp], #160
0x00000000004260c8:  d65f03c0      ret

----------------
IN: __free
0x0000000000428d0c:  b8346a75      str w21, [x19, x20]
0x0000000000428d10:  a94153f3      ldp x19, x20, [sp, #16]
0x0000000000428d14:  f94013f5      ldr x21, [sp, #32]
0x0000000000428d18:  a8c47bfd      ldp x29, x30, [sp], #64
0x0000000000428d1c:  d65f03c0      ret

----------------
IN: _IO_setb
0x000000000042175c:  b9400264      ldr w4, [x19]
0x0000000000421760:  17fffff4      b #-0x30 (addr 0x421730)

----------------
IN: _IO_file_close_it
0x0000000000420348:  a900fe7f      stp xzr, xzr, [x19, #8]
0x000000000042034c:  aa1303e0      mov x0, x19
0x0000000000420350:  a901fe7f      stp xzr, xzr, [x19, #24]
0x0000000000420354:  a902fe7f      stp xzr, xzr, [x19, #40]
0x0000000000420358:  94000337      bl #+0xcdc (addr 0x421034)

----------------
IN: _IO_un_link
0x000000000042103c:  d65f03c0      ret

----------------
IN: _IO_file_close_it
0x000000000042035c:  7100029f      cmp w20, #0x0 (0)
0x0000000000420360:  52848182      mov w2, #0x240c
0x0000000000420364:  1a951294      csel w20, w20, w21, ne
0x0000000000420368:  72bf75a2      movk w2, #0xfbad, lsl #16
0x000000000042036c:  12800001      mov w1, #0xffffffff
0x0000000000420370:  92800000      mov x0, #0xffffffffffffffff
0x0000000000420374:  f94013f5      ldr x21, [sp, #32]
0x0000000000420378:  b9000262      str w2, [x19]
0x000000000042037c:  b9007261      str w1, [x19, #112]
0x0000000000420380:  f9004a60      str x0, [x19, #144]
0x0000000000420384:  2a1403e0      mov w0, w20
0x0000000000420388:  a94153f3      ldp x19, x20, [sp, #16]
0x000000000042038c:  a8c37bfd      ldp x29, x30, [sp], #48
0x0000000000420390:  d65f03c0      ret

----------------
IN: _IO_new_fclose
0x0000000000419ff8:  b9400262      ldr w2, [x19]
0x0000000000419ffc:  2a0003f5      mov w21, w0

----------------
IN: _IO_new_fclose
0x000000000041a000:  12110040      and w0, w2, #0x8000
0x000000000041a004:  17ffffc5      b #-0xec (addr 0x419f18)

----------------
IN: _IO_new_fclose
0x0000000000419f18:  350000c0      cbnz w0, #+0x18 (addr 0x419f30)

----------------
IN: _IO_new_fclose
0x0000000000419f1c:  f9404674      ldr x20, [x19, #136]
0x0000000000419f20:  b9400680      ldr w0, [x20, #4]
0x0000000000419f24:  51000400      sub w0, w0, #0x1 (1)
0x0000000000419f28:  b9000680      str w0, [x20, #4]
0x0000000000419f2c:  340008c0      cbz w0, #+0x118 (addr 0x41a044)

----------------
IN: _IO_new_fclose
0x000000000041a044:  f900069f      str xzr, [x20, #8]
0x000000000041a048:  aa1403e1      mov x1, x20
0x000000000041a04c:  94012929      bl #+0x4a4a4 (addr 0x4644f0)

----------------
IN: _IO_new_fclose
0x000000000041a050:  7100041f      cmp w0, #0x1 (1)
0x000000000041a054:  54fff6ed      b.le #-0x124 (addr 0x419f30)

----------------
IN: _IO_new_fclose
0x0000000000419f30:  b0000474      adrp x20, #+0x8d000 (addr 0x4a6000)
0x0000000000419f34:  f9406e76      ldr x22, [x19, #216]
0x0000000000419f38:  f9470280      ldr x0, [x20, #3584]
0x0000000000419f3c:  f9465281      ldr x1, [x20, #3232]
0x0000000000419f40:  cb000021      sub x1, x1, x0
0x0000000000419f44:  cb0002c0      sub x0, x22, x0
0x0000000000419f48:  eb00003f      cmp x1, x0
0x0000000000419f4c:  540008c9      b.ls #+0x118 (addr 0x41a064)

----------------
IN: _IO_new_fclose
0x0000000000419f50:  f9400ac2      ldr x2, [x22, #16]
0x0000000000419f54:  aa1303e0      mov x0, x19
0x0000000000419f58:  52800001      mov w1, #0x0
0x0000000000419f5c:  d63f0040      blr x2

----------------
IN: _IO_file_finish
0x0000000000420814:  a9be7bfd      stp x29, x30, [sp, #-32]!
0x0000000000420818:  910003fd      mov x29, sp
0x000000000042081c:  b9407001      ldr w1, [x0, #112]
0x0000000000420820:  a90153f3      stp x19, x20, [sp, #16]
0x0000000000420824:  aa0003f3      mov x19, x0
0x0000000000420828:  3100043f      cmn w1, #0x1 (1)
0x000000000042082c:  540002c0      b.eq #+0x58 (addr 0x420884)

----------------
IN: _IO_file_finish
0x0000000000420884:  aa1303e0      mov x0, x19
0x0000000000420888:  52800001      mov w1, #0x0
0x000000000042088c:  a94153f3      ldp x19, x20, [sp, #16]
0x0000000000420890:  a8c27bfd      ldp x29, x30, [sp], #32
0x0000000000420894:  14000597      b #+0x165c (addr 0x421ef0)

----------------
IN: _IO_default_finish
0x0000000000421ef0:  a9be7bfd      stp x29, x30, [sp, #-32]!
0x0000000000421ef4:  910003fd      mov x29, sp
0x0000000000421ef8:  f9000bf3      str x19, [sp, #16]
0x0000000000421efc:  aa0003f3      mov x19, x0
0x0000000000421f00:  f9401c00      ldr x0, [x0, #56]
0x0000000000421f04:  b4000060      cbz x0, #+0xc (addr 0x421f10)

----------------
IN: _IO_default_finish
0x0000000000421f10:  f9403261      ldr x1, [x19, #96]
0x0000000000421f14:  b4000081      cbz x1, #+0x10 (addr 0x421f24)

----------------
IN: _IO_default_finish
0x0000000000421f24:  f9402660      ldr x0, [x19, #72]
0x0000000000421f28:  b4000060      cbz x0, #+0xc (addr 0x421f34)

----------------
IN: _IO_default_finish
0x0000000000421f34:  b9400260      ldr w0, [x19]
0x0000000000421f38:  373800e0      tbnz w0, #7, #+0x1c (addr 0x421f54)

----------------
IN: _IO_default_finish
0x0000000000421f3c:  f9400bf3      ldr x19, [sp, #16]
0x0000000000421f40:  a8c27bfd      ldp x29, x30, [sp], #32
0x0000000000421f44:  d65f03c0      ret

----------------
IN: _IO_new_fclose
0x0000000000419f60:  b940c260      ldr w0, [x19, #192]
0x0000000000419f64:  7100001f      cmp w0, #0x0 (0)
0x0000000000419f68:  5400050d      b.le #+0xa0 (addr 0x41a008)

----------------
IN: _IO_new_fclose
0x000000000041a008:  f9402660      ldr x0, [x19, #72]
0x000000000041a00c:  b4fffd40      cbz x0, #-0x58 (addr 0x419fb4)

----------------
IN: _IO_new_fclose
0x0000000000419fb4:  f9460a81      ldr x1, [x20, #3088]
0x0000000000419fb8:  f9464a80      ldr x0, [x20, #3216]
0x0000000000419fbc:  eb01027f      cmp x19, x1
0x0000000000419fc0:  f947e294      ldr x20, [x20, #4032]
0x0000000000419fc4:  fa401264      ccmp x19, x0, #nZcv, ne
0x0000000000419fc8:  fa541264      ccmp x19, x20, #nZcv, ne
0x0000000000419fcc:  54000060      b.eq #+0xc (addr 0x419fd8)

----------------
IN: _IO_new_fclose
0x0000000000419fd0:  aa1303e0      mov x0, x19
0x0000000000419fd4:  94003b23      bl #+0xec8c (addr 0x428c60)

----------------
IN: _int_free
0x0000000000425fdc:  913d6344      add x4, x26, #0xf58 (3928)
0x0000000000425fe0:  91004265      add x5, x19, #0x10 (16)
0x0000000000425fe4:  f9400e67      ldr x7, [x19, #24]
0x0000000000425fe8:  f9400c86      ldr x6, [x4, #24]
0x0000000000425fec:  f9403c44      ldr x4, [x2, #120]
0x0000000000425ff0:  eb0600ff      cmp x7, x6
0x0000000000425ff4:  54003040      b.eq #+0x608 (addr 0x4265fc)

----------------
IN: _int_free
0x0000000000425ff8:  d37ff803      lsl x3, x0, #1
0x0000000000425ffc:  78636922      ldrh w2, [x9, x3]

----------------
IN: _int_free
0x0000000000426000:  eb22209f      cmp x4, w2, uxth
0x0000000000426004:  54001488      b.hi #+0x290 (addr 0x426294)

----------------
IN: _int_free
0x0000000000426294:  8b000d20      add x0, x9, x0, lsl #3
0x0000000000426298:  11000442      add w2, w2, #0x1 (1)
0x000000000042629c:  f9404001      ldr x1, [x0, #128]
0x00000000004262a0:  ca453021      eor x1, x1, x5, lsr #12
0x00000000004262a4:  a9011a61      stp x1, x6, [x19, #16]
0x00000000004262a8:  f9004005      str x5, [x0, #128]
0x00000000004262ac:  78236922      strh w2, [x9, x3]
0x00000000004262b0:  17ffff7b      b #-0x214 (addr 0x42609c)

----------------
IN: _IO_new_fclose
0x0000000000419fd8:  2a1503e0      mov w0, w21
0x0000000000419fdc:  a94153f3      ldp x19, x20, [sp, #16]
0x0000000000419fe0:  a9425bf5      ldp x21, x22, [sp, #32]
0x0000000000419fe4:  a94363f7      ldp x23, x24, [sp, #48]
0x0000000000419fe8:  a8c47bfd      ldp x29, x30, [sp], #64
0x0000000000419fec:  d65f03c0      ret

----------------
IN: read_checkpoint
0x0000000000400e34:  52800001      mov w1, #0x0
0x0000000000400e38:  f9401fe0      ldr x0, [sp, #56]
0x0000000000400e3c:  9400ba05      bl #+0x2e814 (addr 0x42f650)

----------------
IN: read_checkpoint
0x0000000000400e40:  2a0003e1      mov w1, w0
0x0000000000400e44:  f94013e0      ldr x0, [sp, #32]
0x0000000000400e48:  b9000001      str w1, [x0]
0x0000000000400e4c:  f94013e0      ldr x0, [sp, #32]
0x0000000000400e50:  b9400000      ldr w0, [x0]
0x0000000000400e54:  3100041f      cmn w0, #0x1 (1)
0x0000000000400e58:  54000181      b.ne #+0x30 (addr 0x400e88)

----------------
IN: read_checkpoint
0x0000000000400e88:  f9400be0      ldr x0, [sp, #16]
0x0000000000400e8c:  f9400000      ldr x0, [x0]
0x0000000000400e90:  aa0003e1      mov x1, x0
0x0000000000400e94:  f94013e0      ldr x0, [sp, #32]
0x0000000000400e98:  b9400000      ldr w0, [x0]
0x0000000000400e9c:  d2800005      mov x5, #0x0
0x0000000000400ea0:  2a0003e4      mov w4, w0
0x0000000000400ea4:  52800043      mov w3, #0x2
0x0000000000400ea8:  52800022      mov w2, #0x1
0x0000000000400eac:  d2800000      mov x0, #0x0
0x0000000000400eb0:  9400bdd4      bl #+0x2f750 (addr 0x430600)

----------------
IN: mmap
0x0000000000430600:  f2402cbf      tst x5, #0xfff
0x0000000000430604:  54000121      b.ne #+0x24 (addr 0x430628)

----------------
IN: mmap
0x0000000000430608:  93407c42      sxtw x2, w2
0x000000000043060c:  93407c63      sxtw x3, w3
0x0000000000430610:  93407c84      sxtw x4, w4
0x0000000000430614:  d2801bc8      mov x8, #0xde
0x0000000000430618:  d4000001      svc #0x0

----------------
IN: mmap
0x000000000043061c:  b140041f      cmn x0, #0x1000 (4096)
0x0000000000430620:  54000128      b.hi #+0x24 (addr 0x430644)

----------------
IN: mmap
0x0000000000430624:  d65f03c0      ret

----------------
IN: read_checkpoint
0x0000000000400eb4:  aa0003e1      mov x1, x0
0x0000000000400eb8:  f9400fe0      ldr x0, [sp, #24]
0x0000000000400ebc:  f9000001      str x1, [x0]
0x0000000000400ec0:  f9400fe0      ldr x0, [sp, #24]
0x0000000000400ec4:  f9400000      ldr x0, [x0]
0x0000000000400ec8:  b100041f      cmn x0, #0x1 (1)
0x0000000000400ecc:  54000181      b.ne #+0x30 (addr 0x400efc)

----------------
IN: read_checkpoint
0x0000000000400efc:  f9400fe0      ldr x0, [sp, #24]
0x0000000000400f00:  f9400000      ldr x0, [x0]
0x0000000000400f04:  91007000      add x0, x0, #0x1c (28)
0x0000000000400f08:  f9002fe0      str x0, [sp, #88]
0x0000000000400f0c:  b9404fe3      ldr w3, [sp, #76]
0x0000000000400f10:  f9402fe2      ldr x2, [sp, #88]
0x0000000000400f14:  f9401be1      ldr x1, [sp, #48]
0x0000000000400f18:  f94017e0      ldr x0, [sp, #40]
0x0000000000400f1c:  97fffeb2      bl #-0x538 (addr 0x4009e4)

----------------
IN: memory_map_weights
0x00000000004009e4:  d100c3ff      sub sp, sp, #0x30 (48)
0x00000000004009e8:  f9000fe0      str x0, [sp, #24]
0x00000000004009ec:  f9000be1      str x1, [sp, #16]
0x00000000004009f0:  f90007e2      str x2, [sp, #8]
0x00000000004009f4:  b90007e3      str w3, [sp, #4]
0x00000000004009f8:  f9400be0      ldr x0, [sp, #16]
0x00000000004009fc:  b9400001      ldr w1, [x0]
0x0000000000400a00:  f9400be0      ldr x0, [sp, #16]
0x0000000000400a04:  b9400c00      ldr w0, [x0, #12]
0x0000000000400a08:  1ac00c20      sdiv w0, w1, w0
0x0000000000400a0c:  b90027e0      str w0, [sp, #36]
0x0000000000400a10:  f9400be0      ldr x0, [sp, #16]
0x0000000000400a14:  b9400800      ldr w0, [x0, #8]
0x0000000000400a18:  93407c00      sxtw x0, w0
0x0000000000400a1c:  f90017e0      str x0, [sp, #40]
0x0000000000400a20:  f9400fe0      ldr x0, [sp, #24]
0x0000000000400a24:  f94007e1      ldr x1, [sp, #8]
0x0000000000400a28:  f9000001      str x1, [x0]
0x0000000000400a2c:  f9400be0      ldr x0, [sp, #16]
0x0000000000400a30:  b9401401      ldr w1, [x0, #20]
0x0000000000400a34:  f9400be0      ldr x0, [sp, #16]
0x0000000000400a38:  b9400000      ldr w0, [x0]
0x0000000000400a3c:  1b007c20      mul w0, w1, w0
0x0000000000400a40:  93407c00      sxtw x0, w0
0x0000000000400a44:  d37ef400      lsl x0, x0, #2
0x0000000000400a48:  f94007e1      ldr x1, [sp, #8]
0x0000000000400a4c:  8b000020      add x0, x1, x0
0x0000000000400a50:  f90007e0      str x0, [sp, #8]
0x0000000000400a54:  f9400fe0      ldr x0, [sp, #24]
0x0000000000400a58:  f94007e1      ldr x1, [sp, #8]
0x0000000000400a5c:  f9000401      str x1, [x0, #8]
0x0000000000400a60:  f9400be0      ldr x0, [sp, #16]
0x0000000000400a64:  b9400000      ldr w0, [x0]
0x0000000000400a68:  93407c01      sxtw x1, w0
0x0000000000400a6c:  f94017e0      ldr x0, [sp, #40]
0x0000000000400a70:  9b007c20      mul x0, x1, x0
0x0000000000400a74:  d37ef400      lsl x0, x0, #2
0x0000000000400a78:  f94007e1      ldr x1, [sp, #8]
0x0000000000400a7c:  8b000020      add x0, x1, x0
0x0000000000400a80:  f90007e0      str x0, [sp, #8]
0x0000000000400a84:  f9400fe0      ldr x0, [sp, #24]
0x0000000000400a88:  f94007e1      ldr x1, [sp, #8]
0x0000000000400a8c:  f9000c01      str x1, [x0, #24]
0x0000000000400a90:  f9400be0      ldr x0, [sp, #16]
0x0000000000400a94:  b9400000      ldr w0, [x0]
0x0000000000400a98:  93407c01      sxtw x1, w0
0x0000000000400a9c:  f94017e0      ldr x0, [sp, #40]
0x0000000000400aa0:  9b007c21      mul x1, x1, x0
0x0000000000400aa4:  f9400be0      ldr x0, [sp, #16]
0x0000000000400aa8:  b9400c02      ldr w2, [x0, #12]
0x0000000000400aac:  b94027e0      ldr w0, [sp, #36]
0x0000000000400ab0:  1b007c40      mul w0, w2, w0
0x0000000000400ab4:  93407c00      sxtw x0, w0
0x0000000000400ab8:  9b007c20      mul x0, x1, x0
0x0000000000400abc:  d37ef400      lsl x0, x0, #2
0x0000000000400ac0:  f94007e1      ldr x1, [sp, #8]
0x0000000000400ac4:  8b000020      add x0, x1, x0
0x0000000000400ac8:  f90007e0      str x0, [sp, #8]
0x0000000000400acc:  f9400fe0      ldr x0, [sp, #24]
0x0000000000400ad0:  f94007e1      ldr x1, [sp, #8]
0x0000000000400ad4:  f9001001      str x1, [x0, #32]
0x0000000000400ad8:  f9400be0      ldr x0, [sp, #16]
0x0000000000400adc:  b9400000      ldr w0, [x0]
0x0000000000400ae0:  93407c01      sxtw x1, w0
0x0000000000400ae4:  f94017e0      ldr x0, [sp, #40]
0x0000000000400ae8:  9b007c21      mul x1, x1, x0
0x0000000000400aec:  f9400be0      ldr x0, [sp, #16]
0x0000000000400af0:  b9401002      ldr w2, [x0, #16]
0x0000000000400af4:  b94027e0      ldr w0, [sp, #36]
0x0000000000400af8:  1b007c40      mul w0, w2, w0
0x0000000000400afc:  93407c00      sxtw x0, w0
0x0000000000400b00:  9b007c20      mul x0, x1, x0
0x0000000000400b04:  d37ef400      lsl x0, x0, #2
0x0000000000400b08:  f94007e1      ldr x1, [sp, #8]
0x0000000000400b0c:  8b000020      add x0, x1, x0
0x0000000000400b10:  f90007e0      str x0, [sp, #8]
0x0000000000400b14:  f9400fe0      ldr x0, [sp, #24]
0x0000000000400b18:  f94007e1      ldr x1, [sp, #8]
0x0000000000400b1c:  f9001401      str x1, [x0, #40]
0x0000000000400b20:  f9400be0      ldr x0, [sp, #16]
0x0000000000400b24:  b9400000      ldr w0, [x0]
0x0000000000400b28:  93407c01      sxtw x1, w0
0x0000000000400b2c:  f94017e0      ldr x0, [sp, #40]
0x0000000000400b30:  9b007c21      mul x1, x1, x0
0x0000000000400b34:  f9400be0      ldr x0, [sp, #16]
0x0000000000400b38:  b9401002      ldr w2, [x0, #16]
0x0000000000400b3c:  b94027e0      ldr w0, [sp, #36]
0x0000000000400b40:  1b007c40      mul w0, w2, w0
0x0000000000400b44:  93407c00      sxtw x0, w0
0x0000000000400b48:  9b007c20      mul x0, x1, x0
0x0000000000400b4c:  d37ef400      lsl x0, x0, #2
0x0000000000400b50:  f94007e1      ldr x1, [sp, #8]
0x0000000000400b54:  8b000020      add x0, x1, x0
0x0000000000400b58:  f90007e0      str x0, [sp, #8]
0x0000000000400b5c:  f9400fe0      ldr x0, [sp, #24]
0x0000000000400b60:  f94007e1      ldr x1, [sp, #8]
0x0000000000400b64:  f9001801      str x1, [x0, #48]
0x0000000000400b68:  f9400be0      ldr x0, [sp, #16]
0x0000000000400b6c:  b9400c01      ldr w1, [x0, #12]
0x0000000000400b70:  b94027e0      ldr w0, [sp, #36]
0x0000000000400b74:  1b007c20      mul w0, w1, w0
0x0000000000400b78:  93407c01      sxtw x1, w0
0x0000000000400b7c:  f94017e0      ldr x0, [sp, #40]
0x0000000000400b80:  9b007c21      mul x1, x1, x0
0x0000000000400b84:  f9400be0      ldr x0, [sp, #16]
0x0000000000400b88:  b9400000      ldr w0, [x0]
0x0000000000400b8c:  93407c00      sxtw x0, w0
0x0000000000400b90:  9b007c20      mul x0, x1, x0
0x0000000000400b94:  d37ef400      lsl x0, x0, #2
0x0000000000400b98:  f94007e1      ldr x1, [sp, #8]
0x0000000000400b9c:  8b000020      add x0, x1, x0
0x0000000000400ba0:  f90007e0      str x0, [sp, #8]
0x0000000000400ba4:  f9400fe0      ldr x0, [sp, #24]
0x0000000000400ba8:  f94007e1      ldr x1, [sp, #8]
0x0000000000400bac:  f9000801      str x1, [x0, #16]
0x0000000000400bb0:  f9400be0      ldr x0, [sp, #16]
0x0000000000400bb4:  b9400000      ldr w0, [x0]
0x0000000000400bb8:  93407c01      sxtw x1, w0
0x0000000000400bbc:  f94017e0      ldr x0, [sp, #40]
0x0000000000400bc0:  9b007c20      mul x0, x1, x0
0x0000000000400bc4:  d37ef400      lsl x0, x0, #2
0x0000000000400bc8:  f94007e1      ldr x1, [sp, #8]
0x0000000000400bcc:  8b000020      add x0, x1, x0
0x0000000000400bd0:  f90007e0      str x0, [sp, #8]
0x0000000000400bd4:  f9400fe0      ldr x0, [sp, #24]
0x0000000000400bd8:  f94007e1      ldr x1, [sp, #8]
0x0000000000400bdc:  f9001c01      str x1, [x0, #56]
0x0000000000400be0:  f9400be0      ldr x0, [sp, #16]
0x0000000000400be4:  b9400000      ldr w0, [x0]
0x0000000000400be8:  93407c01      sxtw x1, w0
0x0000000000400bec:  f94017e0      ldr x0, [sp, #40]
0x0000000000400bf0:  9b007c21      mul x1, x1, x0
0x0000000000400bf4:  f9400be0      ldr x0, [sp, #16]
0x0000000000400bf8:  b9400400      ldr w0, [x0, #4]
0x0000000000400bfc:  93407c00      sxtw x0, w0
0x0000000000400c00:  9b007c20      mul x0, x1, x0
0x0000000000400c04:  d37ef400      lsl x0, x0, #2
0x0000000000400c08:  f94007e1      ldr x1, [sp, #8]
0x0000000000400c0c:  8b000020      add x0, x1, x0
0x0000000000400c10:  f90007e0      str x0, [sp, #8]
0x0000000000400c14:  f9400fe0      ldr x0, [sp, #24]
0x0000000000400c18:  f94007e1      ldr x1, [sp, #8]
0x0000000000400c1c:  f9002001      str x1, [x0, #64]
0x0000000000400c20:  f9400be0      ldr x0, [sp, #16]
0x0000000000400c24:  b9400400      ldr w0, [x0, #4]
0x0000000000400c28:  93407c01      sxtw x1, w0
0x0000000000400c2c:  f94017e0      ldr x0, [sp, #40]
0x0000000000400c30:  9b007c21      mul x1, x1, x0
0x0000000000400c34:  f9400be0      ldr x0, [sp, #16]
0x0000000000400c38:  b9400000      ldr w0, [x0]
0x0000000000400c3c:  93407c00      sxtw x0, w0
0x0000000000400c40:  9b007c20      mul x0, x1, x0
0x0000000000400c44:  d37ef400      lsl x0, x0, #2
0x0000000000400c48:  f94007e1      ldr x1, [sp, #8]
0x0000000000400c4c:  8b000020      add x0, x1, x0
0x0000000000400c50:  f90007e0      str x0, [sp, #8]
0x0000000000400c54:  f9400fe0      ldr x0, [sp, #24]
0x0000000000400c58:  f94007e1      ldr x1, [sp, #8]
0x0000000000400c5c:  f9002401      str x1, [x0, #72]
0x0000000000400c60:  f9400be0      ldr x0, [sp, #16]
0x0000000000400c64:  b9400000      ldr w0, [x0]
0x0000000000400c68:  93407c01      sxtw x1, w0
0x0000000000400c6c:  f94017e0      ldr x0, [sp, #40]
0x0000000000400c70:  9b007c21      mul x1, x1, x0
0x0000000000400c74:  f9400be0      ldr x0, [sp, #16]
0x0000000000400c78:  b9400400      ldr w0, [x0, #4]
0x0000000000400c7c:  93407c00      sxtw x0, w0
0x0000000000400c80:  9b007c20      mul x0, x1, x0
0x0000000000400c84:  d37ef400      lsl x0, x0, #2
0x0000000000400c88:  f94007e1      ldr x1, [sp, #8]
0x0000000000400c8c:  8b000020      add x0, x1, x0
0x0000000000400c90:  f90007e0      str x0, [sp, #8]
0x0000000000400c94:  f9400fe0      ldr x0, [sp, #24]
0x0000000000400c98:  f94007e1      ldr x1, [sp, #8]
0x0000000000400c9c:  f9002801      str x1, [x0, #80]
0x0000000000400ca0:  f9400be0      ldr x0, [sp, #16]
0x0000000000400ca4:  b9400000      ldr w0, [x0]
0x0000000000400ca8:  93407c00      sxtw x0, w0
0x0000000000400cac:  d37ef400      lsl x0, x0, #2
0x0000000000400cb0:  f94007e1      ldr x1, [sp, #8]
0x0000000000400cb4:  8b000020      add x0, x1, x0
0x0000000000400cb8:  f90007e0      str x0, [sp, #8]
0x0000000000400cbc:  f9400be0      ldr x0, [sp, #16]
0x0000000000400cc0:  b9401801      ldr w1, [x0, #24]
0x0000000000400cc4:  b94027e0      ldr w0, [sp, #36]
0x0000000000400cc8:  1b007c20      mul w0, w1, w0
0x0000000000400ccc:  531f7c01      lsr w1, w0, #31
0x0000000000400cd0:  0b000020      add w0, w1, w0
0x0000000000400cd4:  13017c00      asr w0, w0, #1
0x0000000000400cd8:  93407c00      sxtw x0, w0
0x0000000000400cdc:  d37ef400      lsl x0, x0, #2
0x0000000000400ce0:  f94007e1      ldr x1, [sp, #8]
0x0000000000400ce4:  8b000020      add x0, x1, x0
0x0000000000400ce8:  f90007e0      str x0, [sp, #8]
0x0000000000400cec:  f9400be0      ldr x0, [sp, #16]
0x0000000000400cf0:  b9401801      ldr w1, [x0, #24]
0x0000000000400cf4:  b94027e0      ldr w0, [sp, #36]
0x0000000000400cf8:  1b007c20      mul w0, w1, w0
0x0000000000400cfc:  531f7c01      lsr w1, w0, #31
0x0000000000400d00:  0b000020      add w0, w1, w0
0x0000000000400d04:  13017c00      asr w0, w0, #1
0x0000000000400d08:  93407c00      sxtw x0, w0
0x0000000000400d0c:  d37ef400      lsl x0, x0, #2
0x0000000000400d10:  f94007e1      ldr x1, [sp, #8]
0x0000000000400d14:  8b000020      add x0, x1, x0
0x0000000000400d18:  f90007e0      str x0, [sp, #8]
0x0000000000400d1c:  b94007e0      ldr w0, [sp, #4]
0x0000000000400d20:  7100001f      cmp w0, #0x0 (0)
0x0000000000400d24:  54000080      b.eq #+0x10 (addr 0x400d34)

----------------
IN: memory_map_weights
0x0000000000400d28:  f9400fe0      ldr x0, [sp, #24]
0x0000000000400d2c:  f9400000      ldr x0, [x0]
0x0000000000400d30:  14000002      b #+0x8 (addr 0x400d38)

----------------
IN: memory_map_weights
0x0000000000400d38:  f9400fe1      ldr x1, [sp, #24]
0x0000000000400d3c:  f9002c20      str x0, [x1, #88]
0x0000000000400d40:  d503201f      nop
0x0000000000400d44:  9100c3ff      add sp, sp, #0x30 (48)
0x0000000000400d48:  d65f03c0      ret

----------------
IN: read_checkpoint
0x0000000000400f20:  d503201f      nop
0x0000000000400f24:  a8c67bfd      ldp x29, x30, [sp], #96
0x0000000000400f28:  d65f03c0      ret

----------------
IN: build_transformer
0x0000000000400f6c:  f9400fe0      ldr x0, [sp, #24]
0x0000000000400f70:  91020000      add x0, x0, #0x80 (128)
0x0000000000400f74:  f9400fe1      ldr x1, [sp, #24]
0x0000000000400f78:  97fffdd7      bl #-0x8a4 (addr 0x4006d4)

----------------
IN: malloc_run_state
0x00000000004006d4:  a9bd7bfd      stp x29, x30, [sp, #-48]!
0x00000000004006d8:  910003fd      mov x29, sp
0x00000000004006dc:  f9000fe0      str x0, [sp, #24]
0x00000000004006e0:  f9000be1      str x1, [sp, #16]
0x00000000004006e4:  f9400be0      ldr x0, [sp, #16]
0x00000000004006e8:  b9400001      ldr w1, [x0]
0x00000000004006ec:  f9400be0      ldr x0, [sp, #16]
0x00000000004006f0:  b9401000      ldr w0, [x0, #16]
0x00000000004006f4:  1b007c21      mul w1, w1, w0
0x00000000004006f8:  f9400be0      ldr x0, [sp, #16]
0x00000000004006fc:  b9400c00      ldr w0, [x0, #12]
0x0000000000400700:  1ac00c20      sdiv w0, w1, w0
0x0000000000400704:  b9002fe0      str w0, [sp, #44]
0x0000000000400708:  f9400be0      ldr x0, [sp, #16]
0x000000000040070c:  b9400000      ldr w0, [x0]
0x0000000000400710:  93407c00      sxtw x0, w0
0x0000000000400714:  d2800081      mov x1, #0x4
0x0000000000400718:  9400a372      bl #+0x28dc8 (addr 0x4294e0)

----------------
IN: __libc_calloc
0x00000000004294e0:  a9bb7bfd      stp x29, x30, [sp, #-80]!
0x00000000004294e4:  9bc17c02      umulh x2, x0, x1
0x00000000004294e8:  910003fd      mov x29, sp
0x00000000004294ec:  a90153f3      stp x19, x20, [sp, #16]
0x00000000004294f0:  9b017c13      mul x19, x0, x1
0x00000000004294f4:  f100005f      cmp x2, #0x0 (0)
0x00000000004294f8:  9a9f07e0      cset x0, ne
0x00000000004294fc:  b7f81553      tbnz x19, #63, #+0x2a8 (addr 0x4297a4)

----------------
IN: __libc_calloc
0x0000000000429500:  b5001520      cbnz x0, #+0x2a4 (addr 0x4297a4)

----------------
IN: __libc_calloc
0x0000000000429504:  a9025bf5      stp x21, x22, [sp, #32]
0x0000000000429508:  90000435      adrp x21, #+0x84000 (addr 0x4ad000)
0x000000000042950c:  913d62a0      add x0, x21, #0xf58 (3928)
0x0000000000429510:  a90363f7      stp x23, x24, [sp, #48]
0x0000000000429514:  39404000      ldrb w0, [x0, #16]
0x0000000000429518:  a9046bf9      stp x25, x26, [sp, #64]
0x000000000042951c:  34000840      cbz w0, #+0x108 (addr 0x429624)

----------------
IN: __libc_calloc
0x0000000000429520:  d53bd054      mrs x20, (unknown)
0x0000000000429524:  91400280      add x0, x20, #0x0 (0)
0x0000000000429528:  91014000      add x0, x0, #0x50 (80)
0x000000000042952c:  f9400401      ldr x1, [x0, #8]
0x0000000000429530:  b40014e1      cbz x1, #+0x29c (addr 0x4297cc)

----------------
IN: __libc_calloc
0x0000000000429534:  d11f029a      sub x26, x20, #0x7c0 (1984)
0x0000000000429538:  b9400340      ldr w0, [x26]
0x000000000042953c:  34000e40      cbz w0, #+0x1c8 (addr 0x429704)

----------------
IN: __libc_calloc
0x0000000000429704:  d00003e0      adrp x0, #+0x7e000 (addr 0x4a7000)
0x0000000000429708:  9119e000      add x0, x0, #0x678 (1656)
0x000000000042970c:  aa0003f7      mov x23, x0
0x0000000000429710:  f9403019      ldr x25, [x0, #96]
0x0000000000429714:  f9400738      ldr x24, [x25, #8]
0x0000000000429718:  927df318      and x24, x24, #0xfffffffffffffff8
0x000000000042971c:  17ffffa5      b #-0x16c (addr 0x4295b0)

----------------
IN: __libc_calloc
0x00000000004295b0:  aa1303e1      mov x1, x19
0x00000000004295b4:  aa1703e0      mov x0, x23
0x00000000004295b8:  97fff6c6      bl #-0x24e8 (addr 0x4270d0)

----------------
IN: __libc_calloc
0x00000000004295bc:  aa0003f4      mov x20, x0
0x00000000004295c0:  b4000360      cbz x0, #+0x6c (addr 0x42962c)

----------------
IN: __libc_calloc
0x00000000004295c4:  f85f8003      ldur x3, [x0, #-8]
0x00000000004295c8:  d1004016      sub x22, x0, #0x10 (16)
0x00000000004295cc:  37080143      tbnz w3, #1, #+0x28 (addr 0x4295f4)

----------------
IN: __libc_calloc
0x00000000004295d0:  37100a83      tbnz w3, #2, #+0x150 (addr 0x429720)

----------------
IN: __libc_calloc
0x00000000004295d4:  d00003e0      adrp x0, #+0x7e000 (addr 0x4a7000)
0x00000000004295d8:  9119e000      add x0, x0, #0x678 (1656)
0x00000000004295dc:  eb17001f      cmp x0, x23
0x00000000004295e0:  54001141      b.ne #+0x228 (addr 0x429808)

----------------
IN: __libc_calloc
0x00000000004295e4:  b9400341      ldr w1, [x26]
0x00000000004295e8:  35000ae1      cbnz w1, #+0x15c (addr 0x429744)

----------------
IN: __libc_calloc
0x00000000004295ec:  b94f5aa0      ldr w0, [x21, #3928]
0x00000000004295f0:  14000024      b #+0x90 (addr 0x429680)

----------------
IN: __libc_calloc
0x0000000000429680:  927df062      and x2, x3, #0xfffffffffffffff8
0x0000000000429684:  35000080      cbnz w0, #+0x10 (addr 0x429694)

----------------
IN: __libc_calloc
0x0000000000429688:  eb1902df      cmp x22, x25
0x000000000042968c:  fa420302      ccmp x24, x2, #nzCv, eq
0x0000000000429690:  9a982042      csel x2, x2, x24, hs
0x0000000000429694:  d1002042      sub x2, x2, #0x8 (8)
0x0000000000429698:  f1005c5f      cmp x2, #0x17 (23)
0x000000000042969c:  54000a69      b.ls #+0x14c (addr 0x4297e8)

----------------
IN: __libc_calloc
0x00000000004296a0:  f1013c5f      cmp x2, #0x4f (79)
0x00000000004296a4:  54000708      b.hi #+0xe0 (addr 0x429784)

----------------
IN: __libc_calloc
0x0000000000429784:  aa1403e0      mov x0, x20
0x0000000000429788:  52800001      mov w1, #0x0
0x000000000042978c:  a94153f3      ldp x19, x20, [sp, #16]
0x0000000000429790:  a9425bf5      ldp x21, x22, [sp, #32]
0x0000000000429794:  a94363f7      ldp x23, x24, [sp, #48]
0x0000000000429798:  a9446bf9      ldp x25, x26, [sp, #64]
0x000000000042979c:  a8c57bfd      ldp x29, x30, [sp], #80
0x00000000004297a0:  17ff5acc      b #-0x294d0 (addr 0x4002d0)

----------------
IN: __memset_generic
0x000000000042d1b8:  ad010060      stp q0, q0, [x3, #32]
0x000000000042d1bc:  ad820060      stp q0, q0, [x3, #64]!
0x000000000042d1c0:  f1010042      subs x2, x2, #0x40 (64)
0x000000000042d1c4:  54ffffa8      b.hi #-0xc (addr 0x42d1b8)

----------------
IN: malloc_run_state
0x000000000040071c:  aa0003e1      mov x1, x0
0x0000000000400720:  f9400fe0      ldr x0, [sp, #24]
0x0000000000400724:  f9000001      str x1, [x0]
0x0000000000400728:  f9400be0      ldr x0, [sp, #16]
0x000000000040072c:  b9400000      ldr w0, [x0]
0x0000000000400730:  93407c00      sxtw x0, w0
0x0000000000400734:  d2800081      mov x1, #0x4
0x0000000000400738:  9400a36a      bl #+0x28da8 (addr 0x4294e0)

----------------
IN: malloc_run_state
0x000000000040073c:  aa0003e1      mov x1, x0
0x0000000000400740:  f9400fe0      ldr x0, [sp, #24]
0x0000000000400744:  f9000401      str x1, [x0, #8]
0x0000000000400748:  f9400be0      ldr x0, [sp, #16]
0x000000000040074c:  b9400000      ldr w0, [x0]
0x0000000000400750:  93407c00      sxtw x0, w0
0x0000000000400754:  d2800081      mov x1, #0x4
0x0000000000400758:  9400a362      bl #+0x28d88 (addr 0x4294e0)

----------------
IN: malloc_run_state
0x000000000040075c:  aa0003e1      mov x1, x0
0x0000000000400760:  f9400fe0      ldr x0, [sp, #24]
0x0000000000400764:  f9000801      str x1, [x0, #16]
0x0000000000400768:  f9400be0      ldr x0, [sp, #16]
0x000000000040076c:  b9400400      ldr w0, [x0, #4]
0x0000000000400770:  93407c00      sxtw x0, w0
0x0000000000400774:  d2800081      mov x1, #0x4
0x0000000000400778:  9400a35a      bl #+0x28d68 (addr 0x4294e0)

----------------
IN: malloc_run_state
0x000000000040077c:  aa0003e1      mov x1, x0
0x0000000000400780:  f9400fe0      ldr x0, [sp, #24]
0x0000000000400784:  f9000c01      str x1, [x0, #24]
0x0000000000400788:  f9400be0      ldr x0, [sp, #16]
0x000000000040078c:  b9400400      ldr w0, [x0, #4]
0x0000000000400790:  93407c00      sxtw x0, w0
0x0000000000400794:  d2800081      mov x1, #0x4
0x0000000000400798:  9400a352      bl #+0x28d48 (addr 0x4294e0)

----------------
IN: malloc_run_state
0x000000000040079c:  aa0003e1      mov x1, x0
0x00000000004007a0:  f9400fe0      ldr x0, [sp, #24]
0x00000000004007a4:  f9001001      str x1, [x0, #32]
0x00000000004007a8:  f9400be0      ldr x0, [sp, #16]
0x00000000004007ac:  b9400000      ldr w0, [x0]
0x00000000004007b0:  93407c00      sxtw x0, w0
0x00000000004007b4:  d2800081      mov x1, #0x4
0x00000000004007b8:  9400a34a      bl #+0x28d28 (addr 0x4294e0)

----------------
IN: malloc_run_state
0x00000000004007bc:  aa0003e1      mov x1, x0
0x00000000004007c0:  f9400fe0      ldr x0, [sp, #24]
0x00000000004007c4:  f9001401      str x1, [x0, #40]
0x00000000004007c8:  f9400be0      ldr x0, [sp, #16]
0x00000000004007cc:  b9400801      ldr w1, [x0, #8]
0x00000000004007d0:  f9400be0      ldr x0, [sp, #16]
0x00000000004007d4:  b9401800      ldr w0, [x0, #24]
0x00000000004007d8:  1b007c21      mul w1, w1, w0
0x00000000004007dc:  b9402fe0      ldr w0, [sp, #44]
0x00000000004007e0:  1b007c20      mul w0, w1, w0
0x00000000004007e4:  93407c00      sxtw x0, w0
0x00000000004007e8:  d2800081      mov x1, #0x4
0x00000000004007ec:  9400a33d      bl #+0x28cf4 (addr 0x4294e0)

----------------
IN: _int_malloc
0x00000000004272a0:  b9006be1      str w1, [sp, #104]
0x00000000004272a4:  f10029ff      cmp x15, #0xa (10)
0x00000000004272a8:  54003348      b.hi #+0x668 (addr 0x427910)

----------------
IN: _int_malloc
0x0000000000427910:  f10015bf      cmp x13, #0x5 (5)
0x0000000000427914:  1a833040      csel w0, w2, w3, lo
0x0000000000427918:  b9006be0      str w0, [sp, #104]
0x000000000042791c:  17fffe65      b #-0x66c (addr 0x4272b0)

----------------
IN: sysmalloc
0x0000000000426a44:  29478001      ldp w1, w0, [x0, #60]
0x0000000000426a48:  6b00003f      cmp w1, w0
0x0000000000426a4c:  54fff66a      b.ge #-0x134 (addr 0x426918)

----------------
IN: sysmalloc
0x0000000000426a50:  91178360      add x0, x27, #0x5e0 (1504)
0x0000000000426a54:  f9401801      ldr x1, [x0, #48]
0x0000000000426a58:  f100003f      cmp x1, #0x0 (0)
0x0000000000426a5c:  fa551022      ccmp x1, x21, #nzCv, ne
0x0000000000426a60:  54001349      b.ls #+0x268 (addr 0x426cc8)

----------------
IN: sysmalloc
0x0000000000426a64:  aa1a03e1      mov x1, x26
0x0000000000426a68:  aa1503e0      mov x0, x21
0x0000000000426a6c:  52800002      mov w2, #0x0
0x0000000000426a70:  97fffc85      bl #-0xdec (addr 0x425c84)

----------------
IN: sysmalloc_mmap.constprop.0
0x0000000000425c84:  a9bb7bfd      stp x29, x30, [sp, #-80]!
0x0000000000425c88:  910003fd      mov x29, sp
0x0000000000425c8c:  a90153f3      stp x19, x20, [sp, #16]
0x0000000000425c90:  91001c33      add x19, x1, #0x7 (7)
0x0000000000425c94:  8b000273      add x19, x19, x0
0x0000000000425c98:  cb0103e1      neg x1, x1
0x0000000000425c9c:  a9025bf5      stp x21, x22, [sp, #32]
0x0000000000425ca0:  8a010273      and x19, x19, x1
0x0000000000425ca4:  eb13001f      cmp x0, x19
0x0000000000425ca8:  540000e3      b.lo #+0x1c (addr 0x425cc4)

----------------
IN: sysmalloc_mmap.constprop.0
0x0000000000425cc4:  2a0203f4      mov w20, w2
0x0000000000425cc8:  aa1303e1      mov x1, x19
0x0000000000425ccc:  52800443      mov w3, #0x22
0x0000000000425cd0:  d2800005      mov x5, #0x0
0x0000000000425cd4:  2a030043      orr w3, w2, w3
0x0000000000425cd8:  12800004      mov w4, #0xffffffff
0x0000000000425cdc:  52800062      mov w2, #0x3
0x0000000000425ce0:  d2800000      mov x0, #0x0
0x0000000000425ce4:  94002a47      bl #+0xa91c (addr 0x430600)

----------------
IN: sysmalloc_mmap.constprop.0
0x0000000000425ce8:  aa0003f5      mov x21, x0
0x0000000000425cec:  b100041f      cmn x0, #0x1 (1)
0x0000000000425cf0:  54fffde0      b.eq #-0x44 (addr 0x425cac)

----------------
IN: sysmalloc_mmap.constprop.0
0x0000000000425cf4:  a90363f7      stp x23, x24, [sp, #48]
0x0000000000425cf8:  f90023f9      str x25, [sp, #64]
0x0000000000425cfc:  36900594      tbz w20, #18, #+0xb0 (addr 0x425dac)

----------------
IN: sysmalloc_mmap.constprop.0
0x0000000000425dac:  d0000400      adrp x0, #+0x82000 (addr 0x4a7000)
0x0000000000425db0:  f9430400      ldr x0, [x0, #1544]
0x0000000000425db4:  d1000400      sub x0, x0, #0x1 (1)
0x0000000000425db8:  eb13001f      cmp x0, x19
0x0000000000425dbc:  54fffa22      b.hs #-0xbc (addr 0x425d00)

----------------
IN: sysmalloc_mmap.constprop.0
0x0000000000425d00:  910042b6      add x22, x21, #0x10 (16)
0x0000000000425d04:  f2400ebf      tst x21, #0xf
0x0000000000425d08:  540007a1      b.ne #+0xf4 (addr 0x425dfc)

----------------
IN: sysmalloc_mmap.constprop.0
0x0000000000425d0c:  b27f0260      orr x0, x19, #0x2
0x0000000000425d10:  a90002bf      stp xzr, x0, [x21]
0x0000000000425d14:  d0000414      adrp x20, #+0x82000 (addr 0x4a7000)
0x0000000000425d18:  91178298      add x24, x20, #0x5e0 (1504)
0x0000000000425d1c:  52800020      mov w0, #0x1
0x0000000000425d20:  9100f301      add x1, x24, #0x3c (60)
0x0000000000425d24:  91011319      add x25, x24, #0x44 (68)
0x0000000000425d28:  9400f9c2      bl #+0x3e708 (addr 0x464430)

----------------
IN: __aarch64_ldadd4_acq
0x0000000000464430:  d503245f      unallocated (Unallocated)
0x0000000000464434:  d0000250      adrp x16, #+0x4a000 (addr 0x4ae000)
0x0000000000464438:  39546210      ldrb w16, [x16, #1304]
0x000000000046443c:  34000070      cbz w16, #+0xc (addr 0x464448)

----------------
IN: __aarch64_ldadd4_acq
0x0000000000464440:  b8a00020      unallocated (Unallocated)
0x0000000000464444:  d65f03c0      ret

----------------
IN: sysmalloc_mmap.constprop.0
0x0000000000425d2c:  11000415      add w21, w0, #0x1 (1)
0x0000000000425d30:  b9404717      ldr w23, [x24, #68]
0x0000000000425d34:  6b1702bf      cmp w21, w23
0x0000000000425d38:  540000ed      b.le #+0x1c (addr 0x425d54)

----------------
IN: sysmalloc_mmap.constprop.0
0x0000000000425d3c:  aa1903e2      mov x2, x25
0x0000000000425d40:  2a1503e1      mov w1, w21
0x0000000000425d44:  2a1703e0      mov w0, w23
0x0000000000425d48:  9400f956      bl #+0x3e558 (addr 0x4642a0)

----------------
IN: sysmalloc_mmap.constprop.0
0x0000000000425d4c:  6b17001f      cmp w0, w23
0x0000000000425d50:  54ffff01      b.ne #-0x20 (addr 0x425d30)

----------------
IN: sysmalloc_mmap.constprop.0
0x0000000000425d54:  91178294      add x20, x20, #0x5e0 (1504)
0x0000000000425d58:  aa1303e0      mov x0, x19
0x0000000000425d5c:  91014281      add x1, x20, #0x50 (80)
0x0000000000425d60:  91016297      add x23, x20, #0x58 (88)
0x0000000000425d64:  9400f9d7      bl #+0x3e75c (addr 0x4644c0)

----------------
IN: __aarch64_ldadd8_acq
0x00000000004644c0:  d503245f      unallocated (Unallocated)
0x00000000004644c4:  d0000250      adrp x16, #+0x4a000 (addr 0x4ae000)
0x00000000004644c8:  39546210      ldrb w16, [x16, #1304]
0x00000000004644cc:  34000070      cbz w16, #+0xc (addr 0x4644d8)

----------------
IN: __aarch64_ldadd8_acq
0x00000000004644d0:  f8a00020      unallocated (Unallocated)
0x00000000004644d4:  d65f03c0      ret

----------------
IN: sysmalloc_mmap.constprop.0
0x0000000000425d68:  8b000273      add x19, x19, x0
0x0000000000425d6c:  f9402e95      ldr x21, [x20, #88]
0x0000000000425d70:  eb15027f      cmp x19, x21
0x0000000000425d74:  540000e9      b.ls #+0x1c (addr 0x425d90)

----------------
IN: sysmalloc_mmap.constprop.0
0x0000000000425d78:  aa1703e2      mov x2, x23
0x0000000000425d7c:  aa1303e1      mov x1, x19
0x0000000000425d80:  aa1503e0      mov x0, x21
0x0000000000425d84:  9400f957      bl #+0x3e55c (addr 0x4642e0)

----------------
IN: __aarch64_cas8_acq
0x00000000004642e0:  d503245f      unallocated (Unallocated)
0x00000000004642e4:  d0000250      adrp x16, #+0x4a000 (addr 0x4ae000)
0x00000000004642e8:  39546210      ldrb w16, [x16, #1304]
0x00000000004642ec:  34000070      cbz w16, #+0xc (addr 0x4642f8)

----------------
IN: __aarch64_cas8_acq
0x00000000004642f0:  c8e07c41      unimplemented (LoadStoreExclusive)
0x00000000004642f4:  d65f03c0      ret

----------------
IN: sysmalloc_mmap.constprop.0
0x0000000000425d88:  eb15001f      cmp x0, x21
0x0000000000425d8c:  54ffff01      b.ne #-0x20 (addr 0x425d6c)

----------------
IN: sysmalloc_mmap.constprop.0
0x0000000000425d90:  aa1603e0      mov x0, x22
0x0000000000425d94:  a94153f3      ldp x19, x20, [sp, #16]
0x0000000000425d98:  a9425bf5      ldp x21, x22, [sp, #32]
0x0000000000425d9c:  a94363f7      ldp x23, x24, [sp, #48]
0x0000000000425da0:  f94023f9      ldr x25, [sp, #64]
0x0000000000425da4:  a8c57bfd      ldp x29, x30, [sp], #80
0x0000000000425da8:  d65f03c0      ret

----------------
IN: sysmalloc
0x0000000000426a74:  b100041f      cmn x0, #0x1 (1)
0x0000000000426a78:  540011e0      b.eq #+0x23c (addr 0x426cb4)

----------------
IN: __libc_calloc
0x00000000004295f4:  b9400340      ldr w0, [x26]
0x00000000004295f8:  35000b80      cbnz w0, #+0x170 (addr 0x429768)

----------------
IN: __libc_calloc
0x00000000004295fc:  b94f5aa0      ldr w0, [x21, #3928]
0x0000000000429600:  aa1303e2      mov x2, x19
0x0000000000429604:  35000c00      cbnz w0, #+0x180 (addr 0x429784)

----------------
IN: __libc_calloc
0x0000000000429608:  a9425bf5      ldp x21, x22, [sp, #32]
0x000000000042960c:  a94363f7      ldp x23, x24, [sp, #48]
0x0000000000429610:  a9446bf9      ldp x25, x26, [sp, #64]
0x0000000000429614:  aa1403e0      mov x0, x20
0x0000000000429618:  a94153f3      ldp x19, x20, [sp, #16]
0x000000000042961c:  a8c57bfd      ldp x29, x30, [sp], #80
0x0000000000429620:  d65f03c0      ret

----------------
IN: malloc_run_state
0x00000000004007f0:  aa0003e1      mov x1, x0
0x00000000004007f4:  f9400fe0      ldr x0, [sp, #24]
0x00000000004007f8:  f9002801      str x1, [x0, #80]
0x00000000004007fc:  f9400be0      ldr x0, [sp, #16]
0x0000000000400800:  b9400801      ldr w1, [x0, #8]
0x0000000000400804:  f9400be0      ldr x0, [sp, #16]
0x0000000000400808:  b9401800      ldr w0, [x0, #24]
0x000000000040080c:  1b007c21      mul w1, w1, w0
0x0000000000400810:  b9402fe0      ldr w0, [sp, #44]
0x0000000000400814:  1b007c20      mul w0, w1, w0
0x0000000000400818:  93407c00      sxtw x0, w0
0x000000000040081c:  d2800081      mov x1, #0x4
0x0000000000400820:  9400a330      bl #+0x28cc0 (addr 0x4294e0)

----------------
IN: malloc_run_state
0x0000000000400824:  aa0003e1      mov x1, x0
0x0000000000400828:  f9400fe0      ldr x0, [sp, #24]
0x000000000040082c:  f9002c01      str x1, [x0, #88]
0x0000000000400830:  f9400be0      ldr x0, [sp, #16]
0x0000000000400834:  b9400c01      ldr w1, [x0, #12]
0x0000000000400838:  f9400be0      ldr x0, [sp, #16]
0x000000000040083c:  b9401800      ldr w0, [x0, #24]
0x0000000000400840:  1b007c20      mul w0, w1, w0
0x0000000000400844:  93407c00      sxtw x0, w0
0x0000000000400848:  d2800081      mov x1, #0x4
0x000000000040084c:  9400a325      bl #+0x28c94 (addr 0x4294e0)

----------------
IN: malloc_run_state
0x0000000000400850:  aa0003e1      mov x1, x0
0x0000000000400854:  f9400fe0      ldr x0, [sp, #24]
0x0000000000400858:  f9002001      str x1, [x0, #64]
0x000000000040085c:  f9400be0      ldr x0, [sp, #16]
0x0000000000400860:  b9401400      ldr w0, [x0, #20]
0x0000000000400864:  93407c00      sxtw x0, w0
0x0000000000400868:  d2800081      mov x1, #0x4
0x000000000040086c:  9400a31d      bl #+0x28c74 (addr 0x4294e0)

----------------
IN: sysmalloc
0x000000000042693c:  f1007edf      cmp x22, #0x1f (31)
0x0000000000426940:  54003729      b.ls #+0x6e4 (addr 0x427024)

----------------
IN: sysmalloc
0x0000000000426944:  36003701      tbz w1, #0, #+0x6e0 (addr 0x427024)

----------------
IN: sysmalloc
0x0000000000426948:  d1000740      sub x0, x26, #0x1 (1)
0x000000000042694c:  ea00033f      tst x25, x0
0x0000000000426950:  540036a1      b.ne #+0x6d4 (addr 0x427024)

----------------
IN: sysmalloc
0x0000000000426c20:  8b0102c1      add x1, x22, x1
0x0000000000426c24:  b2400021      orr x1, x1, #0x1
0x0000000000426c28:  f9403058      ldr x24, [x2, #96]
0x0000000000426c2c:  f90006e1      str x1, [x23, #8]
0x0000000000426c30:  17ffff6f      b #-0x244 (addr 0x4269ec)

----------------
IN: malloc_run_state
0x0000000000400870:  aa0003e1      mov x1, x0
0x0000000000400874:  f9400fe0      ldr x0, [sp, #24]
0x0000000000400878:  f9002401      str x1, [x0, #72]
0x000000000040087c:  f9400fe0      ldr x0, [sp, #24]
0x0000000000400880:  f9400000      ldr x0, [x0]
0x0000000000400884:  f100001f      cmp x0, #0x0 (0)
0x0000000000400888:  540004a0      b.eq #+0x94 (addr 0x40091c)

----------------
IN: malloc_run_state
0x000000000040088c:  f9400fe0      ldr x0, [sp, #24]
0x0000000000400890:  f9400400      ldr x0, [x0, #8]
0x0000000000400894:  f100001f      cmp x0, #0x0 (0)
0x0000000000400898:  54000420      b.eq #+0x84 (addr 0x40091c)

----------------
IN: malloc_run_state
0x000000000040089c:  f9400fe0      ldr x0, [sp, #24]
0x00000000004008a0:  f9400800      ldr x0, [x0, #16]
0x00000000004008a4:  f100001f      cmp x0, #0x0 (0)
0x00000000004008a8:  540003a0      b.eq #+0x74 (addr 0x40091c)

----------------
IN: malloc_run_state
0x00000000004008ac:  f9400fe0      ldr x0, [sp, #24]
0x00000000004008b0:  f9400c00      ldr x0, [x0, #24]
0x00000000004008b4:  f100001f      cmp x0, #0x0 (0)
0x00000000004008b8:  54000320      b.eq #+0x64 (addr 0x40091c)

----------------
IN: malloc_run_state
0x00000000004008bc:  f9400fe0      ldr x0, [sp, #24]
0x00000000004008c0:  f9401000      ldr x0, [x0, #32]
0x00000000004008c4:  f100001f      cmp x0, #0x0 (0)
0x00000000004008c8:  540002a0      b.eq #+0x54 (addr 0x40091c)

----------------
IN: malloc_run_state
0x00000000004008cc:  f9400fe0      ldr x0, [sp, #24]
0x00000000004008d0:  f9401400      ldr x0, [x0, #40]
0x00000000004008d4:  f100001f      cmp x0, #0x0 (0)
0x00000000004008d8:  54000220      b.eq #+0x44 (addr 0x40091c)

----------------
IN: malloc_run_state
0x00000000004008dc:  f9400fe0      ldr x0, [sp, #24]
0x00000000004008e0:  f9402800      ldr x0, [x0, #80]
0x00000000004008e4:  f100001f      cmp x0, #0x0 (0)
0x00000000004008e8:  540001a0      b.eq #+0x34 (addr 0x40091c)

----------------
IN: malloc_run_state
0x00000000004008ec:  f9400fe0      ldr x0, [sp, #24]
0x00000000004008f0:  f9402c00      ldr x0, [x0, #88]
0x00000000004008f4:  f100001f      cmp x0, #0x0 (0)
0x00000000004008f8:  54000120      b.eq #+0x24 (addr 0x40091c)

----------------
IN: malloc_run_state
0x00000000004008fc:  f9400fe0      ldr x0, [sp, #24]
0x0000000000400900:  f9402000      ldr x0, [x0, #64]
0x0000000000400904:  f100001f      cmp x0, #0x0 (0)
0x0000000000400908:  540000a0      b.eq #+0x14 (addr 0x40091c)

----------------
IN: malloc_run_state
0x000000000040090c:  f9400fe0      ldr x0, [sp, #24]
0x0000000000400910:  f9402400      ldr x0, [x0, #72]
0x0000000000400914:  f100001f      cmp x0, #0x0 (0)
0x0000000000400918:  54000181      b.ne #+0x30 (addr 0x400948)

----------------
IN: malloc_run_state
0x0000000000400948:  d503201f      nop
0x000000000040094c:  a8c37bfd      ldp x29, x30, [sp], #48
0x0000000000400950:  d65f03c0      ret

----------------
IN: build_transformer
0x0000000000400f7c:  d503201f      nop
0x0000000000400f80:  a8c27bfd      ldp x29, x30, [sp], #32
0x0000000000400f84:  d65f03c0      ret

----------------
IN: main
0x0000000000403b24:  b9402be0      ldr w0, [sp, #40]
0x0000000000403b28:  7100001f      cmp w0, #0x0 (0)
0x0000000000403b2c:  540000a0      b.eq #+0x14 (addr 0x403b40)

----------------
IN: main
0x0000000000403b30:  b9409be0      ldr w0, [sp, #152]
0x0000000000403b34:  b9402be1      ldr w1, [sp, #40]
0x0000000000403b38:  6b00003f      cmp w1, w0
0x0000000000403b3c:  5400006d      b.le #+0xc (addr 0x403b48)

----------------
IN: main
0x0000000000403b48:  b94097e1      ldr w1, [sp, #148]
0x0000000000403b4c:  9105e3e0      add x0, sp, #0x178 (376)
0x0000000000403b50:  2a0103e2      mov w2, w1
0x0000000000403b54:  f9401fe1      ldr x1, [sp, #56]
0x0000000000403b58:  97fff8a6      bl #-0x1d68 (addr 0x401df0)

----------------
IN: build_tokenizer
0x0000000000401df0:  a9ba7bfd      stp x29, x30, [sp, #-96]!
0x0000000000401df4:  910003fd      mov x29, sp
0x0000000000401df8:  f9000bf3      str x19, [sp, #16]
0x0000000000401dfc:  f9001fe0      str x0, [sp, #56]
0x0000000000401e00:  f9001be1      str x1, [sp, #48]
0x0000000000401e04:  b9002fe2      str w2, [sp, #44]
0x0000000000401e08:  b0000520      adrp x0, #+0xa5000 (addr 0x4a6000)
0x0000000000401e0c:  f945dc00      ldr x0, [x0, #3000]
0x0000000000401e10:  f9400001      ldr x1, [x0]
0x0000000000401e14:  f9002fe1      str x1, [sp, #88]
0x0000000000401e18:  d2800001      mov x1, #0x0
0x0000000000401e1c:  f9401fe0      ldr x0, [sp, #56]
0x0000000000401e20:  b9402fe1      ldr w1, [sp, #44]
0x0000000000401e24:  b9001801      str w1, [x0, #24]
0x0000000000401e28:  b9802fe0      ldrsw x0, [sp, #44]
0x0000000000401e2c:  d37df000      lsl x0, x0, #3
0x0000000000401e30:  94009a2c      bl #+0x268b0 (addr 0x4286e0)

----------------
IN: build_tokenizer
0x0000000000401e34:  aa0003e1      mov x1, x0
0x0000000000401e38:  f9401fe0      ldr x0, [sp, #56]
0x0000000000401e3c:  f9000001      str x1, [x0]
0x0000000000401e40:  b9802fe0      ldrsw x0, [sp, #44]
0x0000000000401e44:  d37ef400      lsl x0, x0, #2
0x0000000000401e48:  94009a26      bl #+0x26898 (addr 0x4286e0)

----------------
IN: build_tokenizer
0x0000000000401e4c:  aa0003e1      mov x1, x0
0x0000000000401e50:  f9401fe0      ldr x0, [sp, #56]
0x0000000000401e54:  f9000401      str x1, [x0, #8]
0x0000000000401e58:  f9401fe0      ldr x0, [sp, #56]
0x0000000000401e5c:  f900081f      str xzr, [x0, #16]
0x0000000000401e60:  b9004bff      str wzr, [sp, #72]
0x0000000000401e64:  14000014      b #+0x50 (addr 0x401eb4)

----------------
IN: build_tokenizer
0x0000000000401eb4:  b9404be0      ldr w0, [sp, #72]
0x0000000000401eb8:  7103fc1f      cmp w0, #0xff (255)
0x0000000000401ebc:  54fffd6d      b.le #-0x54 (addr 0x401e68)

----------------
IN: build_tokenizer
0x0000000000401e68:  b9404be0      ldr w0, [sp, #72]
0x0000000000401e6c:  531f7800      lsl w0, w0, #1
0x0000000000401e70:  b9404be1      ldr w1, [sp, #72]
0x0000000000401e74:  12001c22      and w2, w1, #0xff
0x0000000000401e78:  f9401fe1      ldr x1, [sp, #56]
0x0000000000401e7c:  93407c00      sxtw x0, w0
0x0000000000401e80:  8b000020      add x0, x1, x0
0x0000000000401e84:  2a0203e1      mov w1, w2
0x0000000000401e88:  39008001      strb w1, [x0, #32]
0x0000000000401e8c:  b9404be0      ldr w0, [sp, #72]
0x0000000000401e90:  531f7800      lsl w0, w0, #1
0x0000000000401e94:  11000400      add w0, w0, #0x1 (1)
0x0000000000401e98:  f9401fe1      ldr x1, [sp, #56]
0x0000000000401e9c:  93407c00      sxtw x0, w0
0x0000000000401ea0:  8b000020      add x0, x1, x0
0x0000000000401ea4:  3900801f      strb wzr, [x0, #32]
0x0000000000401ea8:  b9404be0      ldr w0, [sp, #72]
0x0000000000401eac:  11000400      add w0, w0, #0x1 (1)
0x0000000000401eb0:  b9004be0      str w0, [sp, #72]
0x0000000000401eb4:  b9404be0      ldr w0, [sp, #72]
0x0000000000401eb8:  7103fc1f      cmp w0, #0xff (255)
0x0000000000401ebc:  54fffd6d      b.le #-0x54 (addr 0x401e68)

----------------
IN: build_tokenizer
0x0000000000401ec0:  d0000340      adrp x0, #+0x6a000 (addr 0x46b000)
0x0000000000401ec4:  911ca001      add x1, x0, #0x728 (1832)
0x0000000000401ec8:  f9401be0      ldr x0, [sp, #48]
0x0000000000401ecc:  9400619d      bl #+0x18674 (addr 0x41a540)

----------------
IN: __malloc
0x0000000000428850:  8b130c13      add x19, x0, x19, lsl #3
0x0000000000428854:  f9404275      ldr x21, [x19, #128]
0x0000000000428858:  f2400ebf      tst x21, #0xf
0x000000000042885c:  54000b21      b.ne #+0x164 (addr 0x4289c0)

----------------
IN: __malloc
0x0000000000428860:  f94002a0      ldr x0, [x21]
0x0000000000428864:  51000421      sub w1, w1, #0x1 (1)
0x0000000000428868:  ca553000      eor x0, x0, x21, lsr #12
0x000000000042886c:  f9004260      str x0, [x19, #128]
0x0000000000428870:  79000041      strh w1, [x2]
0x0000000000428874:  aa1503e0      mov x0, x21
0x0000000000428878:  f90006bf      str xzr, [x21, #8]
0x000000000042887c:  a94153f3      ldp x19, x20, [sp, #16]
0x0000000000428880:  a9425bf5      ldp x21, x22, [sp, #32]
0x0000000000428884:  a8c37bfd      ldp x29, x30, [sp], #48
0x0000000000428888:  d65f03c0      ret

----------------
IN: build_tokenizer
0x0000000000401ed0:  f9002be0      str x0, [sp, #80]
0x0000000000401ed4:  f9402be0      ldr x0, [sp, #80]
0x0000000000401ed8:  f100001f      cmp x0, #0x0 (0)
0x0000000000401edc:  54000161      b.ne #+0x2c (addr 0x401f08)

----------------
IN: build_tokenizer
0x0000000000401f08:  f9401fe0      ldr x0, [sp, #56]
0x0000000000401f0c:  91007000      add x0, x0, #0x1c (28)
0x0000000000401f10:  f9402be3      ldr x3, [sp, #80]
0x0000000000401f14:  d2800022      mov x2, #0x1
0x0000000000401f18:  d2800081      mov x1, #0x4
0x0000000000401f1c:  9400618d      bl #+0x18634 (addr 0x41a550)

----------------
IN: __memcpy_generic
0x000000000042bcb8:  361800c2      tbz w2, #3, #+0x18 (addr 0x42bcd0)

----------------
IN: __memcpy_generic
0x000000000042bcd0:  361000c2      tbz w2, #2, #+0x18 (addr 0x42bce8)

----------------
IN: __memcpy_generic
0x000000000042bcd4:  b9400026      ldr w6, [x1]
0x000000000042bcd8:  b85fc088      ldur w8, [x4, #-4]
0x000000000042bcdc:  b9000006      str w6, [x0]
0x000000000042bce0:  b81fc0a8      stur w8, [x5, #-4]
0x000000000042bce4:  d65f03c0      ret

----------------
IN: build_tokenizer
0x0000000000401f20:  f100041f      cmp x0, #0x1 (1)
0x0000000000401f24:  54000180      b.eq #+0x30 (addr 0x401f54)

----------------
IN: build_tokenizer
0x0000000000401f54:  b9004fff      str wzr, [sp, #76]
0x0000000000401f58:  14000059      b #+0x164 (addr 0x4020bc)

----------------
IN: build_tokenizer
0x00000000004020bc:  b9404fe1      ldr w1, [sp, #76]
0x00000000004020c0:  b9402fe0      ldr w0, [sp, #44]
0x00000000004020c4:  6b00003f      cmp w1, w0
0x00000000004020c8:  54fff4ab      b.lt #-0x16c (addr 0x401f5c)

----------------
IN: build_tokenizer
0x0000000000401f5c:  f9401fe0      ldr x0, [sp, #56]
0x0000000000401f60:  f9400401      ldr x1, [x0, #8]
0x0000000000401f64:  b9804fe0      ldrsw x0, [sp, #76]
0x0000000000401f68:  d37ef400      lsl x0, x0, #2
0x0000000000401f6c:  8b000020      add x0, x1, x0
0x0000000000401f70:  f9402be3      ldr x3, [sp, #80]
0x0000000000401f74:  d2800022      mov x2, #0x1
0x0000000000401f78:  d2800081      mov x1, #0x4
0x0000000000401f7c:  94006175      bl #+0x185d4 (addr 0x41a550)

----------------
IN: build_tokenizer
0x0000000000401f80:  f100041f      cmp x0, #0x1 (1)
0x0000000000401f84:  54000180      b.eq #+0x30 (addr 0x401fb4)

----------------
IN: build_tokenizer
0x0000000000401fb4:  910113e0      add x0, sp, #0x44 (68)
0x0000000000401fb8:  f9402be3      ldr x3, [sp, #80]
0x0000000000401fbc:  d2800022      mov x2, #0x1
0x0000000000401fc0:  d2800081      mov x1, #0x4
0x0000000000401fc4:  94006163      bl #+0x1858c (addr 0x41a550)

----------------
IN: build_tokenizer
0x0000000000401fc8:  f100041f      cmp x0, #0x1 (1)
0x0000000000401fcc:  54000180      b.eq #+0x30 (addr 0x401ffc)

----------------
IN: build_tokenizer
0x0000000000401ffc:  b94047e0      ldr w0, [sp, #68]

----------------
IN: build_tokenizer
0x0000000000402000:  11000400      add w0, w0, #0x1 (1)
0x0000000000402004:  93407c02      sxtw x2, w0
0x0000000000402008:  f9401fe0      ldr x0, [sp, #56]
0x000000000040200c:  f9400001      ldr x1, [x0]
0x0000000000402010:  b9804fe0      ldrsw x0, [sp, #76]
0x0000000000402014:  d37df000      lsl x0, x0, #3
0x0000000000402018:  8b000033      add x19, x1, x0
0x000000000040201c:  aa0203e0      mov x0, x2
0x0000000000402020:  940099b0      bl #+0x266c0 (addr 0x4286e0)

----------------
IN: _int_malloc
0x0000000000427100:  b4003120      cbz x0, #+0x624 (addr 0x427724)

----------------
IN: _int_malloc
0x0000000000427104:  d0000438      adrp x24, #+0x86000 (addr 0x4ad000)
0x0000000000427108:  913d6300      add x0, x24, #0xf58 (3928)
0x000000000042710c:  f9400400      ldr x0, [x0, #8]
0x0000000000427110:  f1007c1f      cmp x0, #0x1f (31)
0x0000000000427114:  54000e28      b.hi #+0x1c4 (addr 0x4272d8)

----------------
IN: _int_malloc
0x00000000004272d8:  d280001a      mov x26, #0x0
0x00000000004272dc:  a90573fb      stp x27, x28, [sp, #80]
0x00000000004272e0:  8b1a0e9a      add x26, x20, x26, lsl #3
0x00000000004272e4:  d2800202      mov x2, #0x10
0x00000000004272e8:  52800059      mov w25, #0x2
0x00000000004272ec:  d2800413      mov x19, #0x20
0x00000000004272f0:  f9400b5c      ldr x28, [x26, #16]
0x00000000004272f4:  b4000edc      cbz x28, #+0x1d8 (addr 0x4274cc)

----------------
IN: build_tokenizer
0x0000000000402024:  f9000260      str x0, [x19]
0x0000000000402028:  f9401fe0      ldr x0, [sp, #56]
0x000000000040202c:  f9400001      ldr x1, [x0]
0x0000000000402030:  b9804fe0      ldrsw x0, [sp, #76]
0x0000000000402034:  d37df000      lsl x0, x0, #3
0x0000000000402038:  8b000020      add x0, x1, x0
0x000000000040203c:  f9400000      ldr x0, [x0]
0x0000000000402040:  b94047e1      ldr w1, [sp, #68]
0x0000000000402044:  93407c21      sxtw x1, w1
0x0000000000402048:  f9402be3      ldr x3, [sp, #80]
0x000000000040204c:  d2800022      mov x2, #0x1
0x0000000000402050:  94006140      bl #+0x18500 (addr 0x41a550)

----------------
IN: build_tokenizer
0x0000000000402054:  f100041f      cmp x0, #0x1 (1)
0x0000000000402058:  54000180      b.eq #+0x30 (addr 0x402088)

----------------
IN: build_tokenizer
0x0000000000402088:  f9401fe0      ldr x0, [sp, #56]
0x000000000040208c:  f9400001      ldr x1, [x0]
0x0000000000402090:  b9804fe0      ldrsw x0, [sp, #76]
0x0000000000402094:  d37df000      lsl x0, x0, #3
0x0000000000402098:  8b000020      add x0, x1, x0
0x000000000040209c:  f9400001      ldr x1, [x0]
0x00000000004020a0:  b94047e0      ldr w0, [sp, #68]
0x00000000004020a4:  93407c00      sxtw x0, w0
0x00000000004020a8:  8b000020      add x0, x1, x0
0x00000000004020ac:  3900001f      strb wzr, [x0]
0x00000000004020b0:  b9404fe0      ldr w0, [sp, #76]
0x00000000004020b4:  11000400      add w0, w0, #0x1 (1)
0x00000000004020b8:  b9004fe0      str w0, [sp, #76]
0x00000000004020bc:  b9404fe1      ldr w1, [sp, #76]
0x00000000004020c0:  b9402fe0      ldr w0, [sp, #44]
0x00000000004020c4:  6b00003f      cmp w1, w0
0x00000000004020c8:  54fff4ab      b.lt #-0x16c (addr 0x401f5c)

----------------
IN: __memcpy_generic
0x000000000042bce8:  b4000102      cbz x2, #+0x20 (addr 0x42bd08)

----------------
IN: __memcpy_generic
0x000000000042bcec:  d341fc4e      lsr x14, x2, #1
0x000000000042bcf0:  39400026      ldrb w6, [x1]
0x000000000042bcf4:  385ff08a      ldurb w10, [x4, #-1]
0x000000000042bcf8:  386e6828      ldrb w8, [x1, x14]
0x000000000042bcfc:  39000006      strb w6, [x0]
0x000000000042bd00:  382e6808      strb w8, [x0, x14]
0x000000000042bd04:  381ff0aa      sturb w10, [x5, #-1]
0x000000000042bd08:  d65f03c0      ret

----------------
IN: _IO_file_xsgetn
0x000000000041fac4:  aa1903e0      mov x0, x25
0x000000000041fac8:  aa1403e2      mov x2, x20
0x000000000041facc:  97ff81f9      bl #-0x1f81c (addr 0x4002b0)

----------------
IN: _IO_file_xsgetn
0x000000000041fad0:  8b140019      add x25, x0, x20
0x000000000041fad4:  f9400661      ldr x1, [x19, #8]
0x000000000041fad8:  cb1402b5      sub x21, x21, x20
0x000000000041fadc:  b9400260      ldr w0, [x19]
0x000000000041fae0:  8b140021      add x1, x1, x20
0x000000000041fae4:  f9000661      str x1, [x19, #8]
0x000000000041fae8:  3647f660      tbz w0, #8, #-0x134 (addr 0x41f9b4)

----------------
IN: __underflow
0x0000000000421508:  3100041f      cmn w0, #0x1 (1)
0x000000000042150c:  54fffb20      b.eq #-0x9c (addr 0x421470)

----------------
IN: __underflow
0x0000000000421470:  b9400260      ldr w0, [x19]
0x0000000000421474:  375807a0      tbnz w0, #11, #+0xf4 (addr 0x421568)

----------------
IN: __memcpy_generic
0x000000000042bcbc:  f9400026      ldr x6, [x1]
0x000000000042bcc0:  f85f8087      ldur x7, [x4, #-8]
0x000000000042bcc4:  f9000006      str x6, [x0]
0x000000000042bcc8:  f81f80a7      stur x7, [x5, #-8]
0x000000000042bccc:  d65f03c0      ret

----------------
IN: build_tokenizer
0x00000000004020cc:  f9402be0      ldr x0, [sp, #80]
0x00000000004020d0:  94005f74      bl #+0x17dd0 (addr 0x419ea0)

----------------
IN: _int_free
0x000000000042616c:  8b180320      add x0, x25, x24
0x0000000000426170:  f9400400      ldr x0, [x0, #8]
0x0000000000426174:  36001f00      tbz w0, #0, #+0x3e0 (addr 0x426554)

----------------
IN: _int_free
0x0000000000426178:  f9400720      ldr x0, [x25, #8]
0x000000000042617c:  927ff800      and x0, x0, #0xfffffffffffffffe
0x0000000000426180:  f9000720      str x0, [x25, #8]
0x0000000000426184:  f9403ac1      ldr x1, [x22, #112]
0x0000000000426188:  910182c0      add x0, x22, #0x60 (96)
0x000000000042618c:  f9400c22      ldr x2, [x1, #24]
0x0000000000426190:  eb00005f      cmp x2, x0
0x0000000000426194:  54002c01      b.ne #+0x580 (addr 0x426714)

----------------
IN: _int_free
0x0000000000426198:  a9010261      stp x1, x0, [x19, #16]
0x000000000042619c:  f10ffe9f      cmp x20, #0x3ff (1023)
0x00000000004261a0:  54000c28      b.hi #+0x184 (addr 0x426324)

----------------
IN: _int_free
0x0000000000426324:  a9027e7f      stp xzr, xzr, [x19, #32]
0x0000000000426328:  17ffff9f      b #-0x184 (addr 0x4261a4)

----------------
IN: _int_free
0x00000000004261a4:  f9000813      str x19, [x0, #16]
0x00000000004261a8:  b2400280      orr x0, x20, #0x1
0x00000000004261ac:  f9000c33      str x19, [x1, #24]
0x00000000004261b0:  f9000660      str x0, [x19, #8]
0x00000000004261b4:  f8346a74      str x20, [x19, x20]
0x00000000004261b8:  d29fffe0      mov x0, #0xffff
0x00000000004261bc:  eb00029f      cmp x20, x0
0x00000000004261c0:  54000e48      b.hi #+0x1c8 (addr 0x426388)

----------------
IN: build_tokenizer
0x00000000004020d4:  d503201f      nop
0x00000000004020d8:  90000520      adrp x0, #+0xa4000 (addr 0x4a6000)
0x00000000004020dc:  f945dc00      ldr x0, [x0, #3000]
0x00000000004020e0:  f9402fe2      ldr x2, [sp, #88]
0x00000000004020e4:  f9400001      ldr x1, [x0]
0x00000000004020e8:  eb010042      subs x2, x2, x1
0x00000000004020ec:  d2800001      mov x1, #0x0
0x00000000004020f0:  54000040      b.eq #+0x8 (addr 0x4020f8)

----------------
IN: build_tokenizer
0x00000000004020f8:  f9400bf3      ldr x19, [sp, #16]
0x00000000004020fc:  a8c67bfd      ldp x29, x30, [sp], #96
0x0000000000402100:  d65f03c0      ret

----------------
IN: main
0x0000000000403b5c:  b94097e1      ldr w1, [sp, #148]
0x0000000000403b60:  910183e0      add x0, sp, #0x60 (96)
0x0000000000403b64:  f94027e2      ldr x2, [sp, #72]
0x0000000000403b68:  bd4027e1      ldr s1, [sp, #36]
0x0000000000403b6c:  bd4023e0      ldr s0, [sp, #32]
0x0000000000403b70:  97fffc54      bl #-0xeb0 (addr 0x402cc0)

----------------
IN: build_sampler
0x0000000000402cc0:  a9bd7bfd      stp x29, x30, [sp, #-48]!
0x0000000000402cc4:  910003fd      mov x29, sp
0x0000000000402cc8:  f90017e0      str x0, [sp, #40]
0x0000000000402ccc:  b90027e1      str w1, [sp, #36]
0x0000000000402cd0:  bd0023e0      str s0, [sp, #32]
0x0000000000402cd4:  bd001fe1      str s1, [sp, #28]
0x0000000000402cd8:  f9000be2      str x2, [sp, #16]
0x0000000000402cdc:  f94017e0      ldr x0, [sp, #40]
0x0000000000402ce0:  b94027e1      ldr w1, [sp, #36]
0x0000000000402ce4:  b9000001      str w1, [x0]
0x0000000000402ce8:  f94017e0      ldr x0, [sp, #40]
0x0000000000402cec:  bd4023e0      ldr s0, [sp, #32]
0x0000000000402cf0:  bd001000      str s0, [x0, #16]
0x0000000000402cf4:  f94017e0      ldr x0, [sp, #40]
0x0000000000402cf8:  bd401fe0      ldr s0, [sp, #28]
0x0000000000402cfc:  bd001400      str s0, [x0, #20]
0x0000000000402d00:  f94017e0      ldr x0, [sp, #40]
0x0000000000402d04:  f9400be1      ldr x1, [sp, #16]
0x0000000000402d08:  f9000c01      str x1, [x0, #24]
0x0000000000402d0c:  f94017e0      ldr x0, [sp, #40]
0x0000000000402d10:  b9400000      ldr w0, [x0]
0x0000000000402d14:  93407c00      sxtw x0, w0
0x0000000000402d18:  d37df000      lsl x0, x0, #3
0x0000000000402d1c:  94009671      bl #+0x259c4 (addr 0x4286e0)

----------------
IN: _int_malloc
0x0000000000427580:  913d6300      add x0, x24, #0xf58 (3928)
0x0000000000427584:  914002e1      add x1, x23, #0x0 (0)
0x0000000000427588:  91014021      add x1, x1, #0x50 (80)
0x000000000042758c:  91008267      add x7, x19, #0x20 (32)
0x0000000000427590:  d37ffb51      lsl x17, x26, #1
0x0000000000427594:  52800009      mov w9, #0x0
0x0000000000427598:  5280000b      mov w11, #0x0
0x000000000042759c:  f9400c06      ldr x6, [x0, #24]
0x00000000004275a0:  5280002c      mov w12, #0x1
0x00000000004275a4:  a947ab80      ldp x0, x10, [x28, #120]
0x00000000004275a8:  5284e1f0      mov w16, #0x270f
0x00000000004275ac:  f940043e      ldr x30, [x1, #8]
0x00000000004275b0:  f100015f      cmp x10, #0x0 (0)
0x00000000004275b4:  8b1a0fcd      add x13, x30, x26, lsl #3
0x00000000004275b8:  1a9f07ef      cset w15, ne
0x00000000004275bc:  f9400441      ldr x1, [x2, #8]
0x00000000004275c0:  927df021      and x1, x1, #0xfffffffffffffff8
0x00000000004275c4:  8b010043      add x3, x2, x1
0x00000000004275c8:  f100403f      cmp x1, #0x10 (16)
0x00000000004275cc:  540007a9      b.ls #+0xf4 (addr 0x4276c0)

----------------
IN: _int_malloc
0x00000000004275d0:  f9444685      ldr x5, [x20, #2184]
0x00000000004275d4:  eb0100bf      cmp x5, x1
0x00000000004275d8:  54000743      b.lo #+0xe8 (addr 0x4276c0)

----------------
IN: _int_malloc
0x00000000004275dc:  f9400464      ldr x4, [x3, #8]
0x00000000004275e0:  f1003c9f      cmp x4, #0xf (15)
0x00000000004275e4:  fa4480a0      ccmp x5, x4, #nzcv, hi
0x00000000004275e8:  54000be3      b.lo #+0x17c (addr 0x427764)

----------------
IN: _int_malloc
0x00000000004275ec:  f9400065      ldr x5, [x3]
0x00000000004275f0:  927df0a5      and x5, x5, #0xfffffffffffffff8
0x00000000004275f4:  eb0100bf      cmp x5, x1
0x00000000004275f8:  54001fc1      b.ne #+0x3f8 (addr 0x4279f0)

----------------
IN: _int_malloc
0x00000000004275fc:  f9400c45      ldr x5, [x2, #24]
0x0000000000427600:  f94008a8      ldr x8, [x5, #16]
0x0000000000427604:  eb02011f      cmp x8, x2
0x0000000000427608:  54001781      b.ne #+0x2f0 (addr 0x4278f8)

----------------
IN: _int_malloc
0x000000000042760c:  f9400848      ldr x8, [x2, #16]
0x0000000000427610:  eb1b011f      cmp x8, x27
0x0000000000427614:  54001721      b.ne #+0x2e4 (addr 0x4278f8)

----------------
IN: _int_malloc
0x0000000000427618:  37002624      tbnz w4, #0, #+0x4c4 (addr 0x427adc)

----------------
IN: _int_malloc
0x000000000042761c:  f10ffe7f      cmp x19, #0x3ff (1023)
0x0000000000427620:  fa5b90a0      ccmp x5, x27, #nzcv, ls
0x0000000000427624:  54001ec0      b.eq #+0x3d8 (addr 0x4279fc)

----------------
IN: _int_malloc
0x0000000000427628:  f9000f65      str x5, [x27, #24]
0x000000000042762c:  f90008bb      str x27, [x5, #16]
0x0000000000427630:  eb01027f      cmp x19, x1
0x0000000000427634:  540009e0      b.eq #+0x13c (addr 0x427770)

----------------
IN: _int_malloc
0x0000000000427638:  f10ffc3f      cmp x1, #0x3ff (1023)
0x000000000042763c:  54000c48      b.hi #+0x188 (addr 0x4277c4)

----------------
IN: _int_malloc
0x00000000004277c4:  d346fc23      lsr x3, x1, #6
0x00000000004277c8:  1100c063      add w3, w3, #0x30 (48)
0x00000000004277cc:  f130fc3f      cmp x1, #0xc3f (3135)
0x00000000004277d0:  540000a9      b.ls #+0x14 (addr 0x4277e4)

----------------
IN: _int_malloc
0x00000000004277d4:  d349fc23      lsr x3, x1, #9
0x00000000004277d8:  f100507f      cmp x3, #0x14 (20)
0x00000000004277dc:  54001948      b.hi #+0x328 (addr 0x427b04)

----------------
IN: _int_malloc
0x00000000004277e0:  11016c63      add w3, w3, #0x5b (91)
0x00000000004277e4:  531f7864      lsl w4, w3, #1
0x00000000004277e8:  11003084      add w4, w4, #0xc (12)
0x00000000004277ec:  8b24ce84      add x4, x20, w4, sxtw #3
0x00000000004277f0:  f85f0488      ldr x8, [x4], #-16
0x00000000004277f4:  eb08009f      cmp x4, x8
0x00000000004277f8:  54000940      b.eq #+0x128 (addr 0x427920)

----------------
IN: _int_malloc
0x0000000000427920:  2a0303e1      mov w1, w3
0x0000000000427924:  aa0403e5      mov x5, x4
0x0000000000427928:  a9020842      stp x2, x2, [x2, #32]
0x000000000042792c:  17ffff4b      b #-0x2d4 (addr 0x427658)

----------------
IN: _int_malloc
0x0000000000427658:  13057c63      asr w3, w3, #5
0x000000000042765c:  1ac12181      lsl w1, w12, w1
0x0000000000427660:  91000652      add x18, x18, #0x1 (1)
0x0000000000427664:  8b23ca83      add x3, x20, w3, sxtw #2
0x0000000000427668:  b9486068      ldr w8, [x3, #2144]
0x000000000042766c:  2a010101      orr w1, w8, w1
0x0000000000427670:  b9086061      str w1, [x3, #2144]
0x0000000000427674:  a9011444      stp x4, x5, [x2, #16]
0x0000000000427678:  f9000c82      str x2, [x4, #24]
0x000000000042767c:  f90008a2      str x2, [x5, #16]
0x0000000000427680:  34000d6b      cbz w11, #+0x1ac (addr 0x42782c)

----------------
IN: _int_malloc
0x000000000042782c:  11000529      add w9, w9, #0x1 (1)
0x0000000000427830:  6b10013f      cmp w9, w16
0x0000000000427834:  5400008c      b.gt #+0x10 (addr 0x427844)

----------------
IN: _int_malloc
0x0000000000427838:  f9400f62      ldr x2, [x27, #24]
0x000000000042783c:  eb1b005f      cmp x2, x27
0x0000000000427840:  54ffebe1      b.ne #-0x284 (addr 0x4275bc)

----------------
IN: build_sampler
0x0000000000402d20:  aa0003e1      mov x1, x0
0x0000000000402d24:  f94017e0      ldr x0, [sp, #40]
0x0000000000402d28:  f9000401      str x1, [x0, #8]
0x0000000000402d2c:  d503201f      nop
0x0000000000402d30:  a8c37bfd      ldp x29, x30, [sp], #48
0x0000000000402d34:  d65f03c0      ret

----------------
IN: main
0x0000000000403b74:  90000340      adrp x0, #+0x68000 (addr 0x46b000)
0x0000000000403b78:  912bc001      add x1, x0, #0xaf0 (2800)
0x0000000000403b7c:  f9402be0      ldr x0, [sp, #80]
0x0000000000403b80:  94009a30      bl #+0x268c0 (addr 0x42a440)

----------------
IN: strcmp
0x000000000042a440:  d503201f      nop
0x000000000042a444:  cb00002a      sub x10, x1, x0
0x000000000042a448:  b200c3e8      mov x8, #0x101010101010101
0x000000000042a44c:  92400806      and x6, x0, #0x7
0x000000000042a450:  f240095f      tst x10, #0x7
0x000000000042a454:  54000401      b.ne #+0x80 (addr 0x42a4d4)

----------------
IN: strcmp
0x000000000042a458:  b50002c6      cbnz x6, #+0x58 (addr 0x42a4b0)

----------------
IN: strcmp
0x000000000042a45c:  d503201f      nop
0x000000000042a460:  f86a6803      ldr x3, [x0, x10]
0x000000000042a464:  f8408402      ldr x2, [x0], #8
0x000000000042a468:  cb080044      sub x4, x2, x8
0x000000000042a46c:  b200d846      orr x6, x2, #0x7f7f7f7f7f7f7f7f
0x000000000042a470:  ea260084      bics x4, x4, x6
0x000000000042a474:  fa430040      ccmp x2, x3, #nzcv, eq
0x000000000042a478:  54ffff40      b.eq #-0x18 (addr 0x42a460)

----------------
IN: strcmp
0x000000000042a460:  f86a6803      ldr x3, [x0, x10]
0x000000000042a464:  f8408402      ldr x2, [x0], #8
0x000000000042a468:  cb080044      sub x4, x2, x8
0x000000000042a46c:  b200d846      orr x6, x2, #0x7f7f7f7f7f7f7f7f
0x000000000042a470:  ea260084      bics x4, x4, x6
0x000000000042a474:  fa430040      ccmp x2, x3, #nzcv, eq
0x000000000042a478:  54ffff40      b.eq #-0x18 (addr 0x42a460)

----------------
IN: strcmp
0x000000000042a47c:  ca030045      eor x5, x2, x3
0x000000000042a480:  aa0400a6      orr x6, x5, x4
0x000000000042a484:  dac00cc6      rev x6, x6
0x000000000042a488:  dac00c42      rev x2, x2
0x000000000042a48c:  dac00c63      rev x3, x3
0x000000000042a490:  dac010c9      clz x9, x6
0x000000000042a494:  9ac92042      lsl x2, x2, x9
0x000000000042a498:  9ac92063      lsl x3, x3, x9
0x000000000042a49c:  d378fc42      lsr x2, x2, #56
0x000000000042a4a0:  cb43e040      sub x0, x2, x3, lsr #56
0x000000000042a4a4:  d65f03c0      ret

----------------
IN: main
0x0000000000403b84:  7100001f      cmp w0, #0x0 (0)
0x0000000000403b88:  54000101      b.ne #+0x20 (addr 0x403ba8)

----------------
IN: main
0x0000000000403b8c:  910183e2      add x2, sp, #0x60 (96)
0x0000000000403b90:  9105e3e1      add x1, sp, #0x178 (376)
0x0000000000403b94:  910203e0      add x0, sp, #0x80 (128)
0x0000000000403b98:  b9402be4      ldr w4, [sp, #40]
0x0000000000403b9c:  f94023e3      ldr x3, [sp, #64]
0x0000000000403ba0:  97fffd18      bl #-0xba0 (addr 0x403000)

----------------
IN: generate
0x0000000000403000:  a9b77bfd      stp x29, x30, [sp, #-144]!
0x0000000000403004:  910003fd      mov x29, sp
0x0000000000403008:  f9001fe0      str x0, [sp, #56]
0x000000000040300c:  f9001be1      str x1, [sp, #48]
0x0000000000403010:  f90017e2      str x2, [sp, #40]
0x0000000000403014:  f90013e3      str x3, [sp, #32]
0x0000000000403018:  b9001fe4      str w4, [sp, #28]
0x000000000040301c:  f0000500      adrp x0, #+0xa3000 (addr 0x4a6000)
0x0000000000403020:  f945dc00      ldr x0, [x0, #3000]
0x0000000000403024:  f9400001      ldr x1, [x0]
0x0000000000403028:  f90047e1      str x1, [sp, #136]
0x000000000040302c:  d2800001      mov x1, #0x0
0x0000000000403030:  90000340      adrp x0, #+0x68000 (addr 0x46b000)
0x0000000000403034:  911f6000      add x0, x0, #0x7d8 (2008)
0x0000000000403038:  f90033e0      str x0, [sp, #96]
0x000000000040303c:  f94013e0      ldr x0, [sp, #32]
0x0000000000403040:  f100001f      cmp x0, #0x0 (0)
0x0000000000403044:  54000061      b.ne #+0xc (addr 0x403050)

----------------
IN: generate
0x0000000000403048:  f94033e0      ldr x0, [sp, #96]
0x000000000040304c:  f90013e0      str x0, [sp, #32]
0x0000000000403050:  b9004bff      str wzr, [sp, #72]
0x0000000000403054:  f94013e0      ldr x0, [sp, #32]
0x0000000000403058:  97fff4aa      bl #-0x2d58 (addr 0x400300)

----------------
IN: generate
0x000000000040305c:  91000c00      add x0, x0, #0x3 (3)
0x0000000000403060:  d37ef400      lsl x0, x0, #2
0x0000000000403064:  9400959f      bl #+0x2567c (addr 0x4286e0)

----------------
IN: _int_malloc
0x0000000000427c60:  531a6461      lsl w1, w3, #6
0x0000000000427c64:  52800020      mov w0, #0x1
0x0000000000427c68:  11003021      add w1, w1, #0xc (12)
0x0000000000427c6c:  8b214d01      add x1, x8, w1, uxtw #3
0x0000000000427c70:  8b010281      add x1, x20, x1
0x0000000000427c74:  17ffff14      b #-0x3b0 (addr 0x4278c4)

----------------
IN: _int_malloc
0x00000000004278c4:  6a02001f      tst w0, w2
0x00000000004278c8:  54ffff80      b.eq #-0x10 (addr 0x4278b8)

----------------
IN: _int_malloc
0x00000000004278b8:  91004021      add x1, x1, #0x10 (16)
0x00000000004278bc:  531f7800      lsl w0, w0, #1
0x00000000004278c0:  340023c0      cbz w0, #+0x478 (addr 0x427d38)

----------------
IN: _int_malloc
0x00000000004278cc:  f9400c35      ldr x21, [x1, #24]
0x00000000004278d0:  eb15003f      cmp x1, x21
0x00000000004278d4:  540013a1      b.ne #+0x274 (addr 0x427b48)

----------------
IN: _int_malloc
0x0000000000427b48:  f94006b7      ldr x23, [x21, #8]
0x0000000000427b4c:  927df2f7      and x23, x23, #0xfffffffffffffff8
0x0000000000427b50:  eb17027f      cmp x19, x23
0x0000000000427b54:  54002008      b.hi #+0x400 (addr 0x427f54)

----------------
IN: _int_malloc
0x0000000000427b58:  cb1302f9      sub x25, x23, x19
0x0000000000427b5c:  aa1503e0      mov x0, x21
0x0000000000427b60:  97fff4c0      bl #-0x2d00 (addr 0x424e60)

----------------
IN: unlink_chunk.constprop.0
0x0000000000424e60:  a9bf7bfd      stp x29, x30, [sp, #-16]!
0x0000000000424e64:  910003fd      mov x29, sp
0x0000000000424e68:  f9400403      ldr x3, [x0, #8]
0x0000000000424e6c:  927df061      and x1, x3, #0xfffffffffffffff8
0x0000000000424e70:  f8616802      ldr x2, [x0, x1]
0x0000000000424e74:  eb02003f      cmp x1, x2
0x0000000000424e78:  54000521      b.ne #+0xa4 (addr 0x424f1c)

----------------
IN: unlink_chunk.constprop.0
0x0000000000424e7c:  a9410801      ldp x1, x2, [x0, #16]
0x0000000000424e80:  f9400c24      ldr x4, [x1, #24]
0x0000000000424e84:  eb04001f      cmp x0, x4
0x0000000000424e88:  54000401      b.ne #+0x80 (addr 0x424f08)

----------------
IN: unlink_chunk.constprop.0
0x0000000000424e8c:  f9400844      ldr x4, [x2, #16]
0x0000000000424e90:  eb04001f      cmp x0, x4
0x0000000000424e94:  540003a1      b.ne #+0x74 (addr 0x424f08)

----------------
IN: unlink_chunk.constprop.0
0x0000000000424e98:  f9000c22      str x2, [x1, #24]
0x0000000000424e9c:  f9000841      str x1, [x2, #16]
0x0000000000424ea0:  f10ffc7f      cmp x3, #0x3ff (1023)
0x0000000000424ea4:  540001e9      b.ls #+0x3c (addr 0x424ee0)

----------------
IN: unlink_chunk.constprop.0
0x0000000000424ea8:  f9401002      ldr x2, [x0, #32]
0x0000000000424eac:  b40001a2      cbz x2, #+0x34 (addr 0x424ee0)

----------------
IN: unlink_chunk.constprop.0
0x0000000000424eb0:  f9401443      ldr x3, [x2, #40]
0x0000000000424eb4:  eb03001f      cmp x0, x3
0x0000000000424eb8:  54000381      b.ne #+0x70 (addr 0x424f28)

----------------
IN: unlink_chunk.constprop.0
0x0000000000424ebc:  f9401403      ldr x3, [x0, #40]
0x0000000000424ec0:  f9401064      ldr x4, [x3, #32]
0x0000000000424ec4:  eb04001f      cmp x0, x4
0x0000000000424ec8:  54000301      b.ne #+0x60 (addr 0x424f28)

----------------
IN: unlink_chunk.constprop.0
0x0000000000424ecc:  f9401024      ldr x4, [x1, #32]
0x0000000000424ed0:  b40000c4      cbz x4, #+0x18 (addr 0x424ee8)

----------------
IN: unlink_chunk.constprop.0
0x0000000000424ed4:  f9001443      str x3, [x2, #40]
0x0000000000424ed8:  f9401400      ldr x0, [x0, #40]
0x0000000000424edc:  f9001002      str x2, [x0, #32]
0x0000000000424ee0:  a8c17bfd      ldp x29, x30, [sp], #16
0x0000000000424ee4:  d65f03c0      ret

----------------
IN: _int_malloc
0x0000000000427b64:  f1007f3f      cmp x25, #0x1f (31)
0x0000000000427b68:  54000a89      b.ls #+0x150 (addr 0x427cb8)

----------------
IN: _int_malloc
0x0000000000427b6c:  f9400b61      ldr x1, [x27, #16]
0x0000000000427b70:  8b1302a0      add x0, x21, x19
0x0000000000427b74:  f9400c22      ldr x2, [x1, #24]
0x0000000000427b78:  eb1b005f      cmp x2, x27
0x0000000000427b7c:  540010c1      b.ne #+0x218 (addr 0x427d94)

----------------
IN: _int_malloc
0x0000000000427b80:  a9016c01      stp x1, x27, [x0, #16]
0x0000000000427b84:  f9000b60      str x0, [x27, #16]
0x0000000000427b88:  f9000c20      str x0, [x1, #24]
0x0000000000427b8c:  f10ffe7f      cmp x19, #0x3ff (1023)
0x0000000000427b90:  54000048      b.hi #+0x8 (addr 0x427b98)

----------------
IN: _int_malloc
0x0000000000427b94:  f9003680      str x0, [x20, #104]
0x0000000000427b98:  f10fff3f      cmp x25, #0x3ff (1023)
0x0000000000427b9c:  54000049      b.ls #+0x8 (addr 0x427ba4)

----------------
IN: _int_malloc
0x0000000000427ba0:  a9027c1f      stp xzr, xzr, [x0, #32]
0x0000000000427ba4:  90000401      adrp x1, #+0x80000 (addr 0x4a7000)
0x0000000000427ba8:  9119e021      add x1, x1, #0x678 (1656)
0x0000000000427bac:  b2400322      orr x2, x25, #0x1
0x0000000000427bb0:  eb01029f      cmp x20, x1
0x0000000000427bb4:  9a9f07e1      cset x1, ne
0x0000000000427bb8:  aa010a61      orr x1, x19, x1, lsl #2
0x0000000000427bbc:  b2400021      orr x1, x1, #0x1
0x0000000000427bc0:  f90006a1      str x1, [x21, #8]
0x0000000000427bc4:  f9000402      str x2, [x0, #8]
0x0000000000427bc8:  f8376ab9      str x25, [x21, x23]
0x0000000000427bcc:  b94f5b01      ldr w1, [x24, #3928]
0x0000000000427bd0:  910042b5      add x21, x21, #0x10 (16)
0x0000000000427bd4:  34ffd841      cbz w1, #-0x4f8 (addr 0x4276dc)

----------------
IN: _int_malloc
0x00000000004276dc:  aa1503e0      mov x0, x21
0x00000000004276e0:  a94153f3      ldp x19, x20, [sp, #16]
0x00000000004276e4:  a9425bf5      ldp x21, x22, [sp, #32]
0x00000000004276e8:  a94363f7      ldp x23, x24, [sp, #48]
0x00000000004276ec:  a9446bf9      ldp x25, x26, [sp, #64]
0x00000000004276f0:  a94573fb      ldp x27, x28, [sp, #80]
0x00000000004276f4:  a8cc7bfd      ldp x29, x30, [sp], #192
0x00000000004276f8:  d65f03c0      ret

----------------
IN: generate
0x0000000000403068:  f90037e0      str x0, [sp, #104]
0x000000000040306c:  910123e0      add x0, sp, #0x48 (72)
0x0000000000403070:  aa0003e5      mov x5, x0
0x0000000000403074:  f94037e4      ldr x4, [sp, #104]
0x0000000000403078:  52800003      mov w3, #0x0
0x000000000040307c:  52800022      mov w2, #0x1
0x0000000000403080:  f94013e1      ldr x1, [sp, #32]
0x0000000000403084:  f9401be0      ldr x0, [sp, #48]
0x0000000000403088:  97fffcd0      bl #-0xcc0 (addr 0x4023c8)

----------------
IN: encode
0x00000000004023c8:  a9b87bfd      stp x29, x30, [sp, #-128]!
0x00000000004023cc:  910003fd      mov x29, sp
0x00000000004023d0:  f9001fe0      str x0, [sp, #56]
0x00000000004023d4:  f9001be1      str x1, [sp, #48]
0x00000000004023d8:  3900bfe2      strb w2, [sp, #47]
0x00000000004023dc:  3900bbe3      strb w3, [sp, #46]
0x00000000004023e0:  f90013e4      str x4, [sp, #32]
0x00000000004023e4:  f9000fe5      str x5, [sp, #24]
0x00000000004023e8:  f9401be0      ldr x0, [sp, #48]
0x00000000004023ec:  f100001f      cmp x0, #0x0 (0)
0x00000000004023f0:  54000181      b.ne #+0x30 (addr 0x402420)

----------------
IN: encode
0x0000000000402420:  f9401fe0      ldr x0, [sp, #56]
0x0000000000402424:  f9400800      ldr x0, [x0, #16]
0x0000000000402428:  f100001f      cmp x0, #0x0 (0)
0x000000000040242c:  54000601      b.ne #+0xc0 (addr 0x4024ec)

----------------
IN: encode
0x0000000000402430:  f9401fe0      ldr x0, [sp, #56]
0x0000000000402434:  b9401800      ldr w0, [x0, #24]
0x0000000000402438:  93407c00      sxtw x0, w0
0x000000000040243c:  d37cec00      lsl x0, x0, #4
0x0000000000402440:  940098a8      bl #+0x262a0 (addr 0x4286e0)

----------------
IN: encode
0x0000000000402444:  aa0003e1      mov x1, x0
0x0000000000402448:  f9401fe0      ldr x0, [sp, #56]
0x000000000040244c:  f9000801      str x1, [x0, #16]
0x0000000000402450:  b90043ff      str wzr, [sp, #64]
0x0000000000402454:  14000017      b #+0x5c (addr 0x4024b0)

----------------
IN: encode
0x00000000004024b0:  f9401fe0      ldr x0, [sp, #56]
0x00000000004024b4:  b9401800      ldr w0, [x0, #24]
0x00000000004024b8:  b94043e1      ldr w1, [sp, #64]
0x00000000004024bc:  6b00003f      cmp w1, w0
0x00000000004024c0:  54fffccb      b.lt #-0x68 (addr 0x402458)

----------------
IN: encode
0x0000000000402458:  f9401fe0      ldr x0, [sp, #56]
0x000000000040245c:  f9400001      ldr x1, [x0]
0x0000000000402460:  b98043e0      ldrsw x0, [sp, #64]
0x0000000000402464:  d37df000      lsl x0, x0, #3
0x0000000000402468:  8b000021      add x1, x1, x0
0x000000000040246c:  f9401fe0      ldr x0, [sp, #56]
0x0000000000402470:  f9400802      ldr x2, [x0, #16]
0x0000000000402474:  b98043e0      ldrsw x0, [sp, #64]
0x0000000000402478:  d37cec00      lsl x0, x0, #4
0x000000000040247c:  8b000040      add x0, x2, x0
0x0000000000402480:  f9400021      ldr x1, [x1]
0x0000000000402484:  f9000001      str x1, [x0]
0x0000000000402488:  f9401fe0      ldr x0, [sp, #56]
0x000000000040248c:  f9400801      ldr x1, [x0, #16]
0x0000000000402490:  b98043e0      ldrsw x0, [sp, #64]
0x0000000000402494:  d37cec00      lsl x0, x0, #4
0x0000000000402498:  8b000020      add x0, x1, x0
0x000000000040249c:  b94043e1      ldr w1, [sp, #64]
0x00000000004024a0:  b9000801      str w1, [x0, #8]
0x00000000004024a4:  b94043e0      ldr w0, [sp, #64]
0x00000000004024a8:  11000400      add w0, w0, #0x1 (1)
0x00000000004024ac:  b90043e0      str w0, [sp, #64]
0x00000000004024b0:  f9401fe0      ldr x0, [sp, #56]
0x00000000004024b4:  b9401800      ldr w0, [x0, #24]
0x00000000004024b8:  b94043e1      ldr w1, [sp, #64]
0x00000000004024bc:  6b00003f      cmp w1, w0
0x00000000004024c0:  54fffccb      b.lt #-0x68 (addr 0x402458)

----------------
IN: encode
0x00000000004024c4:  f9401fe0      ldr x0, [sp, #56]
0x00000000004024c8:  f9400804      ldr x4, [x0, #16]
0x00000000004024cc:  f9401fe0      ldr x0, [sp, #56]
0x00000000004024d0:  b9401800      ldr w0, [x0, #24]
0x00000000004024d4:  93407c01      sxtw x1, w0
0x00000000004024d8:  f0ffffe0      adrp x0, #-0x1000 (addr 0x401000)
0x00000000004024dc:  9136f003      add x3, x0, #0xdbc (3516)
0x00000000004024e0:  d2800202      mov x2, #0x10
0x00000000004024e4:  aa0403e0      mov x0, x4
0x00000000004024e8:  94001d3e      bl #+0x74f8 (addr 0x4099e0)

----------------
IN: qsort
0x00000000004099e0:  d2800004      mov x4, #0x0
0x00000000004099e4:  17ffff33      b #-0x334 (addr 0x4096b0)

----------------
IN: qsort_r
0x00000000004096b0:  a9b67bfd      stp x29, x30, [sp, #-160]!
0x00000000004096b4:  f100805f      cmp x2, #0x20 (32)
0x00000000004096b8:  910003fd      mov x29, sp
0x00000000004096bc:  a90363f7      stp x23, x24, [sp, #48]
0x00000000004096c0:  aa0103f7      mov x23, x1
0x00000000004096c4:  aa0303f8      mov x24, x3
0x00000000004096c8:  a9046bf9      stp x25, x26, [sp, #64]
0x00000000004096cc:  b00004f9      adrp x25, #+0x9d000 (addr 0x4a6000)
0x00000000004096d0:  a90153f3      stp x19, x20, [sp, #16]
0x00000000004096d4:  8b011053      add x19, x2, x1, lsl #4
0x00000000004096d8:  f945df21      ldr x1, [x25, #3000]
0x00000000004096dc:  a9025bf5      stp x21, x22, [sp, #32]
0x00000000004096e0:  aa0003f6      mov x22, x0
0x00000000004096e4:  a90573fb      stp x27, x28, [sp, #80]
0x00000000004096e8:  aa0203fb      mov x27, x2
0x00000000004096ec:  9b027ee2      mul x2, x23, x2
0x00000000004096f0:  d10043ff      sub sp, sp, #0x10 (16)
0x00000000004096f4:  aa0403f5      mov x21, x4
0x00000000004096f8:  9a828273      csel x19, x19, x2, hi
0x00000000004096fc:  f9400022      ldr x2, [x1]
0x0000000000409700:  f9004fa2      str x2, [x29, #152]
0x0000000000409704:  d2800002      mov x2, #0x0
0x0000000000409708:  f10ffe7f      cmp x19, #0x3ff (1023)
0x000000000040970c:  54000648      b.hi #+0xc8 (addr 0x4097d4)

----------------
IN: qsort_r
0x00000000004097d4:  90000514      adrp x20, #+0xa0000 (addr 0x4a9000)
0x00000000004097d8:  b94ac280      ldr w0, [x20, #2752]
0x00000000004097dc:  34000ae0      cbz w0, #+0x15c (addr 0x409938)

----------------
IN: qsort_r
0x0000000000409938:  52800aa0      mov w0, #0x55
0x000000000040993c:  94009545      bl #+0x25514 (addr 0x42ee50)

----------------
IN: sysconf
0x000000000042ee50:  a9b87bfd      stp x29, x30, [sp, #-128]!
0x000000000042ee54:  910003fd      mov x29, sp
0x000000000042ee58:  a9025bf5      stp x21, x22, [sp, #32]
0x000000000042ee5c:  900003d5      adrp x21, #+0x78000 (addr 0x4a6000)
0x000000000042ee60:  a90153f3      stp x19, x20, [sp, #16]
0x000000000042ee64:  2a0003f3      mov w19, w0
0x000000000042ee68:  f945dea0      ldr x0, [x21, #3000]
0x000000000042ee6c:  f9400001      ldr x1, [x0]
0x000000000042ee70:  f9003fe1      str x1, [sp, #120]
0x000000000042ee74:  d2800001      mov x1, #0x0
0x000000000042ee78:  7102ee7f      cmp w19, #0xbb (187)
0x000000000042ee7c:  54000a60      b.eq #+0x14c (addr 0x42efc8)

----------------
IN: sysconf
0x000000000042ee80:  7102fa7f      cmp w19, #0xbe (190)
0x000000000042ee84:  54000cc0      b.eq #+0x198 (addr 0x42f01c)

----------------
IN: sysconf
0x000000000042ee88:  71022e7f      cmp w19, #0x8b (139)
0x000000000042ee8c:  5400086c      b.gt #+0x10c (addr 0x42ef98)

----------------
IN: sysconf
0x000000000042ee90:  7102267f      cmp w19, #0x89 (137)
0x000000000042ee94:  54000bec      b.gt #+0x17c (addr 0x42f010)

----------------
IN: sysconf
0x000000000042ee98:  71000e7f      cmp w19, #0x3 (3)
0x000000000042ee9c:  54002ca0      b.eq #+0x594 (addr 0x42f430)

----------------
IN: sysconf
0x000000000042eea0:  71008a7f      cmp w19, #0x22 (34)
0x000000000042eea4:  54000c81      b.ne #+0x190 (addr 0x42f034)

----------------
IN: sysconf
0x000000000042f034:  35fff973      cbnz w19, #-0xd4 (addr 0x42ef60)

----------------
IN: sysconf
0x000000000042ef60:  7101567f      cmp w19, #0x55 (85)
0x000000000042ef64:  54002a00      b.eq #+0x540 (addr 0x42f4a4)

----------------
IN: sysconf
0x000000000042f4a4:  f945dea1      ldr x1, [x21, #3000]
0x000000000042f4a8:  f9403fe0      ldr x0, [sp, #120]
0x000000000042f4ac:  f9400022      ldr x2, [x1]
0x000000000042f4b0:  eb020000      subs x0, x0, x2
0x000000000042f4b4:  d2800002      mov x2, #0x0
0x000000000042f4b8:  54000181      b.ne #+0x30 (addr 0x42f4e8)

----------------
IN: sysconf
0x000000000042f4bc:  a94153f3      ldp x19, x20, [sp, #16]
0x000000000042f4c0:  a9425bf5      ldp x21, x22, [sp, #32]
0x000000000042f4c4:  a8c87bfd      ldp x29, x30, [sp], #128
0x000000000042f4c8:  14000912      b #+0x2448 (addr 0x431910)

----------------
IN: get_phys_pages
0x0000000000431910:  a9b67bfd      stp x29, x30, [sp, #-160]!
0x0000000000431914:  910003fd      mov x29, sp
0x0000000000431918:  f9000bf3      str x19, [sp, #16]
0x000000000043191c:  b00003b3      adrp x19, #+0x75000 (addr 0x4a6000)
0x0000000000431920:  9100a3e0      add x0, sp, #0x28 (40)
0x0000000000431924:  f945de61      ldr x1, [x19, #3000]
0x0000000000431928:  f9400022      ldr x2, [x1]
0x000000000043192c:  f9004fe2      str x2, [sp, #152]
0x0000000000431930:  d2800002      mov x2, #0x0
0x0000000000431934:  940000a3      bl #+0x28c (addr 0x431bc0)

----------------
IN: sysinfo
0x0000000000431bc0:  d503201f      nop
0x0000000000431bc4:  d2801668      mov x8, #0xb3
0x0000000000431bc8:  d4000001      svc #0x0

----------------
IN: sysinfo
0x0000000000431bcc:  b13ffc1f      cmn x0, #0xfff (4095)
0x0000000000431bd0:  54000042      b.hs #+0x8 (addr 0x431bd8)

----------------
IN: sysinfo
0x0000000000431bd4:  d65f03c0      ret

----------------
IN: get_phys_pages
0x0000000000431938:  97fffb06      bl #-0x13e8 (addr 0x430550)

----------------
IN: getpagesize
0x0000000000430550:  d00003a0      adrp x0, #+0x76000 (addr 0x4a6000)
0x0000000000430554:  f947d800      ldr x0, [x0, #4016]
0x0000000000430558:  f9400000      ldr x0, [x0]
0x000000000043055c:  b4000040      cbz x0, #+0x8 (addr 0x430564)

----------------
IN: getpagesize
0x0000000000430560:  d65f03c0      ret

----------------
IN: get_phys_pages
0x000000000043193c:  93407c01      sxtw x1, w0
0x0000000000431940:  b94093e2      ldr w2, [sp, #144]
0x0000000000431944:  f94027e3      ldr x3, [sp, #72]
0x0000000000431948:  7100045f      cmp w2, #0x1 (1)
0x000000000043194c:  fa418820      ccmp x1, #1, #nzcv, hi
0x0000000000431950:  540000e9      b.ls #+0x1c (addr 0x43196c)

----------------
IN: get_phys_pages
0x000000000043196c:  2a0203e0      mov w0, w2
0x0000000000431970:  9b037c00      mul x0, x0, x3
0x0000000000431974:  f100043f      cmp x1, #0x1 (1)
0x0000000000431978:  540000c9      b.ls #+0x18 (addr 0x431990)

----------------
IN: get_phys_pages
0x000000000043197c:  d503201f      nop
0x0000000000431980:  d341fc21      lsr x1, x1, #1
0x0000000000431984:  d341fc00      lsr x0, x0, #1
0x0000000000431988:  f100043f      cmp x1, #0x1 (1)
0x000000000043198c:  54ffffa1      b.ne #-0xc (addr 0x431980)

----------------
IN: get_phys_pages
0x0000000000431980:  d341fc21      lsr x1, x1, #1
0x0000000000431984:  d341fc00      lsr x0, x0, #1
0x0000000000431988:  f100043f      cmp x1, #0x1 (1)
0x000000000043198c:  54ffffa1      b.ne #-0xc (addr 0x431980)

----------------
IN: get_phys_pages
0x0000000000431990:  f945de73      ldr x19, [x19, #3000]
0x0000000000431994:  f9404fe1      ldr x1, [sp, #152]
0x0000000000431998:  f9400262      ldr x2, [x19]
0x000000000043199c:  eb020021      subs x1, x1, x2
0x00000000004319a0:  d2800002      mov x2, #0x0
0x00000000004319a4:  54000081      b.ne #+0x10 (addr 0x4319b4)

----------------
IN: get_phys_pages
0x00000000004319a8:  f9400bf3      ldr x19, [sp, #16]
0x00000000004319ac:  a8ca7bfd      ldp x29, x30, [sp], #160
0x00000000004319b0:  d65f03c0      ret

----------------
IN: qsort_r
0x0000000000409940:  92fc0001      mov x1, #0x1fffffffffffffff
0x0000000000409944:  b100041f      cmn x0, #0x1 (1)
0x0000000000409948:  540000a0      b.eq #+0x14 (addr 0x40995c)

----------------
IN: qsort_r
0x000000000040994c:  f100001f      cmp x0, #0x0 (0)
0x0000000000409950:  91000c01      add x1, x0, #0x3 (3)
0x0000000000409954:  9a80b021      csel x1, x1, x0, lt
0x0000000000409958:  9342fc21      asr x1, x1, #2
0x000000000040995c:  912b0280      add x0, x20, #0xac0 (2752)
0x0000000000409960:  f9000401      str x1, [x0, #8]
0x0000000000409964:  d5033bbf      dmb ish
0x0000000000409968:  528003c0      mov w0, #0x1e
0x000000000040996c:  94009539      bl #+0x254e4 (addr 0x42ee50)

----------------
IN: sysconf
0x000000000042ef68:  5400168c      b.gt #+0x2d0 (addr 0x42f238)

----------------
IN: sysconf
0x000000000042ef6c:  7100b67f      cmp w19, #0x2d (45)
0x000000000042ef70:  54000f4c      b.gt #+0x1e8 (addr 0x42f158)

----------------
IN: sysconf
0x000000000042ef74:  37f80b93      tbnz w19, #31, #+0x170 (addr 0x42f0e4)

----------------
IN: sysconf
0x000000000042ef78:  7100b67f      cmp w19, #0x2d (45)
0x000000000042ef7c:  54000b48      b.hi #+0x168 (addr 0x42f0e4)

----------------
IN: sysconf
0x000000000042ef80:  b0000220      adrp x0, #+0x45000 (addr 0x473000)
0x000000000042ef84:  91102000      add x0, x0, #0x408 (1032)
0x000000000042ef88:  78735800      ldrh w0, [x0, w19, uxtw #1]
0x000000000042ef8c:  10000073      adr x19, #+0xc (addr 0x42ef98)
0x000000000042ef90:  8b20aa60      add x0, x19, w0, sxth #2
0x000000000042ef94:  d61f0000      br x0

----------------
IN: sysconf
0x000000000042f418:  9400044e      bl #+0x1138 (addr 0x430550)

----------------
IN: sysconf
0x000000000042f41c:  93407c00      sxtw x0, w0
0x000000000042f420:  17fffef0      b #-0x440 (addr 0x42efe0)

----------------
IN: sysconf
0x000000000042efe0:  f945dea1      ldr x1, [x21, #3000]
0x000000000042efe4:  f9403fe3      ldr x3, [sp, #120]
0x000000000042efe8:  f9400022      ldr x2, [x1]
0x000000000042efec:  eb020063      subs x3, x3, x2
0x000000000042eff0:  d2800002      mov x2, #0x0
0x000000000042eff4:  540027a1      b.ne #+0x4f4 (addr 0x42f4e8)

----------------
IN: sysconf
0x000000000042eff8:  a94153f3      ldp x19, x20, [sp, #16]
0x000000000042effc:  a9425bf5      ldp x21, x22, [sp, #32]

----------------
IN: sysconf
0x000000000042f000:  a8c87bfd      ldp x29, x30, [sp], #128
0x000000000042f004:  d65f03c0      ret

----------------
IN: qsort_r
0x0000000000409970:  b90ac280      str w0, [x20, #2752]
0x0000000000409974:  93407c00      sxtw x0, w0
0x0000000000409978:  912b0294      add x20, x20, #0xac0 (2752)
0x000000000040997c:  9ac00a60      udiv x0, x19, x0
0x0000000000409980:  f9400681      ldr x1, [x20, #8]
0x0000000000409984:  eb01001f      cmp x0, x1
0x0000000000409988:  54fff389      b.ls #-0x190 (addr 0x4097f8)

----------------
IN: qsort_r
0x00000000004097f8:  b00004e1      adrp x1, #+0x9d000 (addr 0x4a6000)
0x00000000004097fc:  f946e821      ldr x1, [x1, #3536]
0x0000000000409800:  d53bd054      mrs x20, (unknown)
0x0000000000409804:  aa1303e0      mov x0, x19
0x0000000000409808:  aa0103f3      mov x19, x1
0x000000000040980c:  b8616a9a      ldr w26, [x20, x1]
0x0000000000409810:  94007bb4      bl #+0x1eed0 (addr 0x4286e0)

----------------
IN: qsort_r
0x0000000000409814:  b8336a9a      str w26, [x20, x19]
0x0000000000409818:  f90037a0      str x0, [x29, #104]
0x000000000040981c:  b4000800      cbz x0, #+0x100 (addr 0x40991c)

----------------
IN: qsort_r
0x0000000000409820:  aa0003fc      mov x28, x0
0x0000000000409824:  d2800080      mov x0, #0x4
0x0000000000409828:  a90703bb      stp x27, x0, [x29, #112]
0x000000000040982c:  a90857b8      stp x24, x21, [x29, #128]
0x0000000000409830:  f9004bbc      str x28, [x29, #144]
0x0000000000409834:  f100837f      cmp x27, #0x20 (32)
0x0000000000409838:  54fff9c9      b.ls #-0xc8 (addr 0x409770)

----------------
IN: qsort_r
0x0000000000409770:  aa1b02c0      orr x0, x22, x27
0x0000000000409774:  f240041f      tst x0, #0x3
0x0000000000409778:  54001100      b.eq #+0x220 (addr 0x409998)

----------------
IN: qsort_r
0x0000000000409998:  f100137f      cmp x27, #0x4 (4)
0x000000000040999c:  540001a0      b.eq #+0x34 (addr 0x4099d0)

----------------
IN: qsort_r
0x00000000004099a0:  f100237f      cmp x27, #0x8 (8)
0x00000000004099a4:  540000c0      b.eq #+0x18 (addr 0x4099bc)

----------------
IN: qsort_r
0x00000000004099a8:  f240081f      tst x0, #0x7
0x00000000004099ac:  54ffee81      b.ne #-0x230 (addr 0x40977c)

----------------
IN: qsort_r
0x00000000004099b0:  d2800040      mov x0, #0x2
0x00000000004099b4:  f9003fa0      str x0, [x29, #120]
0x00000000004099b8:  17ffff71      b #-0x23c (addr 0x40977c)

----------------
IN: qsort_r
0x000000000040977c:  f10006ff      cmp x23, #0x1 (1)
0x0000000000409780:  540000a9      b.ls #+0x14 (addr 0x409794)

----------------
IN: qsort_r
0x0000000000409784:  aa1703e2      mov x2, x23
0x0000000000409788:  aa1603e1      mov x1, x22
0x000000000040978c:  9101c3a0      add x0, x29, #0x70 (112)
0x0000000000409790:  97ffff10      bl #-0x3c0 (addr 0x4093d0)

----------------
IN: msort_with_tmp.part.0
0x00000000004093d0:  a9b87bfd      stp x29, x30, [sp, #-128]!
0x00000000004093d4:  910003fd      mov x29, sp
0x00000000004093d8:  a90573fb      stp x27, x28, [sp, #80]
0x00000000004093dc:  f940001b      ldr x27, [x0]
0x00000000004093e0:  a90153f3      stp x19, x20, [sp, #16]
0x00000000004093e4:  d341fc54      lsr x20, x2, #1
0x00000000004093e8:  a9025bf5      stp x21, x22, [sp, #32]
0x00000000004093ec:  cb140053      sub x19, x2, x20
0x00000000004093f0:  aa0003f6      mov x22, x0
0x00000000004093f4:  a90363f7      stp x23, x24, [sp, #48]
0x00000000004093f8:  9b1b069b      madd x27, x20, x27, x1
0x00000000004093fc:  a9046bf9      stp x25, x26, [sp, #64]
0x0000000000409400:  aa0203f9      mov x25, x2
0x0000000000409404:  f9003fe1      str x1, [sp, #120]
0x0000000000409408:  f100069f      cmp x20, #0x1 (1)
0x000000000040940c:  54000060      b.eq #+0xc (addr 0x409418)

----------------
IN: msort_with_tmp.part.0
0x0000000000409410:  aa1403e2      mov x2, x20
0x0000000000409414:  97ffffef      bl #-0x44 (addr 0x4093d0)

----------------
IN: msort_with_tmp.part.0
0x0000000000409418:  f100067f      cmp x19, #0x1 (1)
0x000000000040941c:  54000609      b.ls #+0xc0 (addr 0x4094dc)

----------------
IN: msort_with_tmp.part.0
0x0000000000409420:  aa1603e0      mov x0, x22
0x0000000000409424:  aa1303e2      mov x2, x19
0x0000000000409428:  aa1b03e1      mov x1, x27
0x000000000040942c:  97ffffe9      bl #-0x5c (addr 0x4093d0)

----------------
IN: msort_with_tmp.part.0
0x00000000004094dc:  a94002d5      ldp x21, x0, [x22]
0x00000000004094e0:  a9415ed8      ldp x24, x23, [x22, #16]
0x00000000004094e4:  f94012dc      ldr x28, [x22, #32]
0x00000000004094e8:  f100081f      cmp x0, #0x2 (2)
0x00000000004094ec:  540007c0      b.eq #+0xf8 (addr 0x4095e4)

----------------
IN: msort_with_tmp.part.0
0x00000000004095e4:  b4fff8d3      cbz x19, #-0xe8 (addr 0x4094fc)

----------------
IN: msort_with_tmp.part.0
0x00000000004095e8:  d10006a7      sub x7, x21, #0x1 (1)
0x00000000004095ec:  aa1c03e8      mov x8, x28
0x00000000004095f0:  f9403ffa      ldr x26, [sp, #120]
0x00000000004095f4:  d343fce7      lsr x7, x7, #3
0x00000000004095f8:  aa0803e6      mov x6, x8
0x00000000004095fc:  8b150108      add x8, x8, x21
0x0000000000409600:  a9061be8      stp x8, x6, [sp, #96]
0x0000000000409604:  aa1703e2      mov x2, x23
0x0000000000409608:  aa1b03e1      mov x1, x27
0x000000000040960c:  f9003be7      str x7, [sp, #112]
0x0000000000409610:  aa1a03e0      mov x0, x26
0x0000000000409614:  d63f0300      blr x24

----------------
IN: compare_tokens
0x0000000000401dbc:  a9be7bfd      stp x29, x30, [sp, #-32]!
0x0000000000401dc0:  910003fd      mov x29, sp
0x0000000000401dc4:  f9000fe0      str x0, [sp, #24]
0x0000000000401dc8:  f9000be1      str x1, [sp, #16]
0x0000000000401dcc:  f9400fe0      ldr x0, [sp, #24]
0x0000000000401dd0:  f9400002      ldr x2, [x0]
0x0000000000401dd4:  f9400be0      ldr x0, [sp, #16]
0x0000000000401dd8:  f9400000      ldr x0, [x0]
0x0000000000401ddc:  aa0003e1      mov x1, x0
0x0000000000401de0:  aa0203e0      mov x0, x2
0x0000000000401de4:  9400a197      bl #+0x2865c (addr 0x42a440)

----------------
IN: compare_tokens
0x0000000000401de8:  a8c27bfd      ldp x29, x30, [sp], #32
0x0000000000401dec:  d65f03c0      ret

----------------
IN: msort_with_tmp.part.0
0x0000000000409618:  7100001f      cmp w0, #0x0 (0)
0x000000000040961c:  a9461be8      ldp x8, x6, [sp, #96]
0x0000000000409620:  f9403be7      ldr x7, [sp, #112]
0x0000000000409624:  aa0803fc      mov x28, x8
0x0000000000409628:  5400038d      b.le #+0x70 (addr 0x409698)

----------------
IN: msort_with_tmp.part.0
0x000000000040962c:  aa1b03e0      mov x0, x27
0x0000000000409630:  d1000673      sub x19, x19, #0x1 (1)
0x0000000000409634:  8b15037b      add x27, x27, x21
0x0000000000409638:  d2800003      mov x3, #0x0
0x000000000040963c:  eb06011f      cmp x8, x6
0x0000000000409640:  540000e9      b.ls #+0x1c (addr 0x40965c)

----------------
IN: msort_with_tmp.part.0
0x0000000000409644:  d503201f      nop
0x0000000000409648:  f8637801      ldr x1, [x0, x3, lsl #3]
0x000000000040964c:  f82378c1      str x1, [x6, x3, lsl #3]
0x0000000000409650:  eb0300ff      cmp x7, x3
0x0000000000409654:  91000463      add x3, x3, #0x1 (1)
0x0000000000409658:  54ffff81      b.ne #-0x10 (addr 0x409648)

----------------
IN: msort_with_tmp.part.0
0x0000000000409648:  f8637801      ldr x1, [x0, x3, lsl #3]
0x000000000040964c:  f82378c1      str x1, [x6, x3, lsl #3]
0x0000000000409650:  eb0300ff      cmp x7, x3
0x0000000000409654:  91000463      add x3, x3, #0x1 (1)
0x0000000000409658:  54ffff81      b.ne #-0x10 (addr 0x409648)

----------------
IN: msort_with_tmp.part.0
0x000000000040965c:  f100029f      cmp x20, #0x0 (0)
0x0000000000409660:  fa401a64      ccmp x19, #0, #nZcv, ne
0x0000000000409664:  54fffca1      b.ne #-0x6c (addr 0x4095f8)

----------------
IN: msort_with_tmp.part.0
0x0000000000409668:  cb130339      sub x25, x25, x19
0x000000000040966c:  b5fff4d4      cbnz x20, #-0x168 (addr 0x409504)

----------------
IN: msort_with_tmp.part.0
0x0000000000409504:  9b147ea2      mul x2, x21, x20
0x0000000000409508:  aa1a03e1      mov x1, x26
0x000000000040950c:  aa1c03e0      mov x0, x28
0x0000000000409510:  97ffdb68      bl #-0x9260 (addr 0x4002b0)

----------------
IN: msort_with_tmp.part.0
0x0000000000409514:  14000057      b #+0x15c (addr 0x409670)

----------------
IN: msort_with_tmp.part.0
0x0000000000409670:  9b197ea2      mul x2, x21, x25
0x0000000000409674:  a94153f3      ldp x19, x20, [sp, #16]
0x0000000000409678:  f94012c1      ldr x1, [x22, #32]
0x000000000040967c:  a9425bf5      ldp x21, x22, [sp, #32]
0x0000000000409680:  a94363f7      ldp x23, x24, [sp, #48]
0x0000000000409684:  a9446bf9      ldp x25, x26, [sp, #64]
0x0000000000409688:  a94573fb      ldp x27, x28, [sp, #80]
0x000000000040968c:  f9403fe0      ldr x0, [sp, #120]
0x0000000000409690:  a8c87bfd      ldp x29, x30, [sp], #128
0x0000000000409694:  17ffdb07      b #-0x93e4 (addr 0x4002b0)

----------------
IN: msort_with_tmp.part.0
0x0000000000409430:  a94002d5      ldp x21, x0, [x22]
0x0000000000409434:  a9415ed8      ldp x24, x23, [x22, #16]
0x0000000000409438:  f94012dc      ldr x28, [x22, #32]
0x000000000040943c:  f100081f      cmp x0, #0x2 (2)
0x0000000000409440:  54000d40      b.eq #+0x1a8 (addr 0x4095e8)

----------------
IN: msort_with_tmp.part.0
0x00000000004095f8:  aa0803e6      mov x6, x8
0x00000000004095fc:  8b150108      add x8, x8, x21
0x0000000000409600:  a9061be8      stp x8, x6, [sp, #96]
0x0000000000409604:  aa1703e2      mov x2, x23
0x0000000000409608:  aa1b03e1      mov x1, x27
0x000000000040960c:  f9003be7      str x7, [sp, #112]
0x0000000000409610:  aa1a03e0      mov x0, x26
0x0000000000409614:  d63f0300      blr x24

----------------
IN: msort_with_tmp.part.0
0x0000000000409698:  aa1a03e0      mov x0, x26
0x000000000040969c:  d1000694      sub x20, x20, #0x1 (1)
0x00000000004096a0:  8b15035a      add x26, x26, x21
0x00000000004096a4:  17ffffe5      b #-0x6c (addr 0x409638)

----------------
IN: msort_with_tmp.part.0
0x0000000000409638:  d2800003      mov x3, #0x0
0x000000000040963c:  eb06011f      cmp x8, x6
0x0000000000409640:  540000e9      b.ls #+0x1c (addr 0x40965c)

----------------
IN: __memcpy_generic
0x000000000042bd40:  a9423c2e      ldp x14, x15, [x1, #32]
0x000000000042bd44:  a9434430      ldp x16, x17, [x1, #48]
0x000000000042bd48:  f101805f      cmp x2, #0x60 (96)
0x000000000042bd4c:  540000a9      b.ls #+0x14 (addr 0x42bd60)

----------------
IN: __memcpy_generic
0x000000000042bd50:  a97c0c82      ldp x2, x3, [x4, #-64]
0x000000000042bd54:  a97d1081      ldp x1, x4, [x4, #-48]
0x000000000042bd58:  a93c0ca2      stp x2, x3, [x5, #-64]
0x000000000042bd5c:  a93d10a1      stp x1, x4, [x5, #-48]
0x000000000042bd60:  a9001c06      stp x6, x7, [x0]
0x000000000042bd64:  a9012408      stp x8, x9, [x0, #16]
0x000000000042bd68:  a9023c0e      stp x14, x15, [x0, #32]
0x000000000042bd6c:  a9034410      stp x16, x17, [x0, #48]
0x000000000042bd70:  a93e2caa      stp x10, x11, [x5, #-32]
0x000000000042bd74:  a93f34ac      stp x12, x13, [x5, #-16]
0x000000000042bd78:  d65f03c0      ret

----------------
IN: __memcpy_generic
0x000000000042bd80:  a940342c      ldp x12, x13, [x1]
0x000000000042bd84:  92400c0e      and x14, x0, #0xf
0x000000000042bd88:  927cec03      and x3, x0, #0xfffffffffffffff0
0x000000000042bd8c:  cb0e0021      sub x1, x1, x14
0x000000000042bd90:  8b0e0042      add x2, x2, x14
0x000000000042bd94:  a9411c26      ldp x6, x7, [x1, #16]
0x000000000042bd98:  a900340c      stp x12, x13, [x0]
0x000000000042bd9c:  a9422428      ldp x8, x9, [x1, #32]
0x000000000042bda0:  a9432c2a      ldp x10, x11, [x1, #48]
0x000000000042bda4:  a9c4342c      ldp x12, x13, [x1, #64]!
0x000000000042bda8:  f1024042      subs x2, x2, #0x90 (144)
0x000000000042bdac:  54000169      b.ls #+0x2c (addr 0x42bdd8)

----------------
IN: __memcpy_generic
0x000000000042bdb0:  a9011c66      stp x6, x7, [x3, #16]
0x000000000042bdb4:  a9411c26      ldp x6, x7, [x1, #16]
0x000000000042bdb8:  a9022468      stp x8, x9, [x3, #32]
0x000000000042bdbc:  a9422428      ldp x8, x9, [x1, #32]
0x000000000042bdc0:  a9032c6a      stp x10, x11, [x3, #48]
0x000000000042bdc4:  a9432c2a      ldp x10, x11, [x1, #48]
0x000000000042bdc8:  a984346c      stp x12, x13, [x3, #64]!
0x000000000042bdcc:  a9c4342c      ldp x12, x13, [x1, #64]!
0x000000000042bdd0:  f1010042      subs x2, x2, #0x40 (64)
0x000000000042bdd4:  54fffee8      b.hi #-0x24 (addr 0x42bdb0)

----------------
IN: __memcpy_generic
0x000000000042bdd8:  a97c3c8e      ldp x14, x15, [x4, #-64]
0x000000000042bddc:  a9011c66      stp x6, x7, [x3, #16]
0x000000000042bde0:  a97d1c86      ldp x6, x7, [x4, #-48]
0x000000000042bde4:  a9022468      stp x8, x9, [x3, #32]
0x000000000042bde8:  a97e2488      ldp x8, x9, [x4, #-32]
0x000000000042bdec:  a9032c6a      stp x10, x11, [x3, #48]
0x000000000042bdf0:  a97f2c8a      ldp x10, x11, [x4, #-16]
0x000000000042bdf4:  a904346c      stp x12, x13, [x3, #64]
0x000000000042bdf8:  a93c3cae      stp x14, x15, [x5, #-64]
0x000000000042bdfc:  a93d1ca6      stp x6, x7, [x5, #-48]
0x000000000042be00:  a93e24a8      stp x8, x9, [x5, #-32]
0x000000000042be04:  a93f2caa      stp x10, x11, [x5, #-16]
0x000000000042be08:  d65f03c0      ret

----------------
IN: __memcpy_generic
0x000000000042bd60:  a9001c06      stp x6, x7, [x0]
0x000000000042bd64:  a9012408      stp x8, x9, [x0, #16]
0x000000000042bd68:  a9023c0e      stp x14, x15, [x0, #32]
0x000000000042bd6c:  a9034410      stp x16, x17, [x0, #48]
0x000000000042bd70:  a93e2caa      stp x10, x11, [x5, #-32]
0x000000000042bd74:  a93f34ac      stp x12, x13, [x5, #-16]
0x000000000042bd78:  d65f03c0      ret

----------------
IN: qsort_r
0x0000000000409794:  f94037a0      ldr x0, [x29, #104]
0x0000000000409798:  94007d32      bl #+0x1f4c8 (addr 0x428c60)

----------------
IN: __free
0x0000000000428c90:  f00003e3      adrp x3, #+0x7f000 (addr 0x4a7000)
0x0000000000428c94:  91178062      add x2, x3, #0x5e0 (1504)
0x0000000000428c98:  b9404844      ldr w4, [x2, #72]
0x0000000000428c9c:  350000c4      cbnz w4, #+0x18 (addr 0x428cb4)

----------------
IN: __free
0x0000000000428ca0:  f9400845      ldr x5, [x2, #16]
0x0000000000428ca4:  d2a04004      mov x4, #0x2000000
0x0000000000428ca8:  eb05001f      cmp x0, x5
0x0000000000428cac:  fa448002      ccmp x0, x4, #nzCv, hi
0x0000000000428cb0:  540003e9      b.ls #+0x7c (addr 0x428d2c)

----------------
IN: __free
0x0000000000428d2c:  927df000      and x0, x0, #0xfffffffffffffff8
0x0000000000428d30:  f9000840      str x0, [x2, #16]
0x0000000000428d34:  d37ff800      lsl x0, x0, #1
0x0000000000428d38:  f902f060      str x0, [x3, #1504]
0x0000000000428d3c:  17ffffde      b #-0x88 (addr 0x428cb4)

----------------
IN: __free
0x0000000000428cb4:  aa0103e0      mov x0, x1
0x0000000000428cb8:  97ffeeea      bl #-0x4458 (addr 0x424860)

----------------
IN: munmap_chunk
0x0000000000424860:  a9bd7bfd      stp x29, x30, [sp, #-48]!
0x0000000000424864:  d0000401      adrp x1, #+0x82000 (addr 0x4a6000)
0x0000000000424868:  910003fd      mov x29, sp
0x000000000042486c:  f947d821      ldr x1, [x1, #4016]
0x0000000000424870:  a90153f3      stp x19, x20, [sp, #16]
0x0000000000424874:  f9400402      ldr x2, [x0, #8]
0x0000000000424878:  f9400021      ldr x1, [x1]
0x000000000042487c:  f90013f5      str x21, [sp, #32]
0x0000000000424880:  360803e2      tbz w2, #1, #+0x7c (addr 0x4248fc)

----------------
IN: munmap_chunk
0x0000000000424884:  f9400014      ldr x20, [x0]
0x0000000000424888:  927df043      and x3, x2, #0xfffffffffffffff8
0x000000000042488c:  d1000421      sub x1, x1, #0x1 (1)
0x0000000000424890:  91004002      add x2, x0, #0x10 (16)
0x0000000000424894:  8a010042      and x2, x2, x1
0x0000000000424898:  cb140013      sub x19, x0, x20
0x000000000042489c:  8b030294      add x20, x20, x3
0x00000000004248a0:  d1000443      sub x3, x2, #0x1 (1)
0x00000000004248a4:  aa140260      orr x0, x19, x20
0x00000000004248a8:  8a020062      and x2, x3, x2
0x00000000004248ac:  8a010000      and x0, x0, x1
0x00000000004248b0:  aa020000      orr x0, x0, x2
0x00000000004248b4:  b50001e0      cbnz x0, #+0x3c (addr 0x4248f0)

----------------
IN: munmap_chunk
0x00000000004248b8:  f0000415      adrp x21, #+0x83000 (addr 0x4a7000)
0x00000000004248bc:  911782b5      add x21, x21, #0x5e0 (1504)
0x00000000004248c0:  9100f2a1      add x1, x21, #0x3c (60)
0x00000000004248c4:  12800000      mov w0, #0xffffffff
0x00000000004248c8:  9400feda      bl #+0x3fb68 (addr 0x464430)

----------------
IN: munmap_chunk
0x00000000004248cc:  910142a1      add x1, x21, #0x50 (80)
0x00000000004248d0:  cb1403e0      neg x0, x20
0x00000000004248d4:  9400fefb      bl #+0x3fbec (addr 0x4644c0)

----------------
IN: munmap_chunk
0x00000000004248d8:  aa1403e1      mov x1, x20
0x00000000004248dc:  aa1303e0      mov x0, x19
0x00000000004248e0:  a94153f3      ldp x19, x20, [sp, #16]
0x00000000004248e4:  f94013f5      ldr x21, [sp, #32]
0x00000000004248e8:  a8c37bfd      ldp x29, x30, [sp], #48
0x00000000004248ec:  14002f65      b #+0xbd94 (addr 0x430680)

----------------
IN: munmap
0x0000000000430680:  d503201f      nop
0x0000000000430684:  d2801ae8      mov x8, #0xd7
0x0000000000430688:  d4000001      svc #0x0

----------------
IN: munmap
0x000000000043068c:  b13ffc1f      cmn x0, #0xfff (4095)
0x0000000000430690:  54000042      b.hs #+0x8 (addr 0x430698)

----------------
IN: munmap
0x0000000000430694:  d65f03c0      ret

----------------
IN: __free
0x0000000000428cbc:  b8346a75      str w21, [x19, x20]
0x0000000000428cc0:  a94153f3      ldp x19, x20, [sp, #16]
0x0000000000428cc4:  f94013f5      ldr x21, [sp, #32]
0x0000000000428cc8:  a8c47bfd      ldp x29, x30, [sp], #64
0x0000000000428ccc:  d65f03c0      ret

----------------
IN: qsort_r
0x000000000040979c:  f945df39      ldr x25, [x25, #3000]
0x00000000004097a0:  f9404fa0      ldr x0, [x29, #152]
0x00000000004097a4:  f9400321      ldr x1, [x25]
0x00000000004097a8:  eb010000      subs x0, x0, x1
0x00000000004097ac:  d2800001      mov x1, #0x0
0x00000000004097b0:  54001141      b.ne #+0x228 (addr 0x4099d8)

----------------
IN: qsort_r
0x00000000004097b4:  910003bf      mov sp, x29
0x00000000004097b8:  a94153f3      ldp x19, x20, [sp, #16]
0x00000000004097bc:  a9425bf5      ldp x21, x22, [sp, #32]
0x00000000004097c0:  a94363f7      ldp x23, x24, [sp, #48]
0x00000000004097c4:  a9446bf9      ldp x25, x26, [sp, #64]
0x00000000004097c8:  a94573fb      ldp x27, x28, [sp, #80]
0x00000000004097cc:  a8ca7bfd      ldp x29, x30, [sp], #160
0x00000000004097d0:  d65f03c0      ret

----------------
IN: encode
0x00000000004024ec:  f9401fe0      ldr x0, [sp, #56]
0x00000000004024f0:  b9401c00      ldr w0, [x0, #28]
0x00000000004024f4:  531f7800      lsl w0, w0, #1
0x00000000004024f8:  11000c00      add w0, w0, #0x3 (3)
0x00000000004024fc:  2a0003e0      mov w0, w0
0x0000000000402500:  94009878      bl #+0x261e0 (addr 0x4286e0)

----------------
IN: encode
0x0000000000402504:  f9003fe0      str x0, [sp, #120]
0x0000000000402508:  f90037ff      str xzr, [sp, #104]
0x000000000040250c:  f9400fe0      ldr x0, [sp, #24]
0x0000000000402510:  b900001f      str wzr, [x0]
0x0000000000402514:  39c0bfe0      ldrsb w0, [sp, #47]
0x0000000000402518:  7100001f      cmp w0, #0x0 (0)
0x000000000040251c:  54000180      b.eq #+0x30 (addr 0x40254c)

----------------
IN: encode
0x0000000000402520:  f9400fe0      ldr x0, [sp, #24]
0x0000000000402524:  b9400000      ldr w0, [x0]
0x0000000000402528:  11000402      add w2, w0, #0x1 (1)
0x000000000040252c:  f9400fe1      ldr x1, [sp, #24]
0x0000000000402530:  b9000022      str w2, [x1]
0x0000000000402534:  93407c00      sxtw x0, w0
0x0000000000402538:  d37ef400      lsl x0, x0, #2
0x000000000040253c:  f94013e1      ldr x1, [sp, #32]
0x0000000000402540:  8b000020      add x0, x1, x0
0x0000000000402544:  52800021      mov w1, #0x1
0x0000000000402548:  b9000001      str w1, [x0]
0x000000000040254c:  f9401be0      ldr x0, [sp, #48]
0x0000000000402550:  39400000      ldrb w0, [x0]
0x0000000000402554:  7100001f      cmp w0, #0x0 (0)
0x0000000000402558:  540002a0      b.eq #+0x54 (addr 0x4025ac)

----------------
IN: encode
0x00000000004025ac:  f9401be0      ldr x0, [sp, #48]
0x00000000004025b0:  f9003be0      str x0, [sp, #112]
0x00000000004025b4:  14000052      b #+0x148 (addr 0x4026fc)

----------------
IN: encode
0x00000000004026fc:  f9403be0      ldr x0, [sp, #112]
0x0000000000402700:  39400000      ldrb w0, [x0]
0x0000000000402704:  7100001f      cmp w0, #0x0 (0)
0x0000000000402708:  54fff581      b.ne #-0x150 (addr 0x4025b8)

----------------
IN: encode
0x000000000040270c:  52805f20      mov w0, #0x2f9
0x0000000000402710:  72ba02a0      movk w0, #0xd015, lsl #16
0x0000000000402714:  1e270000      fmov s0, w0
0x0000000000402718:  bd004be0      str s0, [sp, #72]
0x000000000040271c:  12800000      mov w0, #0xffffffff
0x0000000000402720:  b9004fe0      str w0, [sp, #76]
0x0000000000402724:  12800000      mov w0, #0xffffffff
0x0000000000402728:  b90053e0      str w0, [sp, #80]
0x000000000040272c:  b90057ff      str wzr, [sp, #84]
0x0000000000402730:  14000041      b #+0x104 (addr 0x402834)

----------------
IN: encode
0x0000000000402834:  f9400fe0      ldr x0, [sp, #24]
0x0000000000402838:  b9400000      ldr w0, [x0]
0x000000000040283c:  51000400      sub w0, w0, #0x1 (1)
0x0000000000402840:  b94057e1      ldr w1, [sp, #84]
0x0000000000402844:  6b00003f      cmp w1, w0
0x0000000000402848:  54fff76b      b.lt #-0x114 (addr 0x402734)

----------------
IN: encode
0x000000000040284c:  b94053e0      ldr w0, [sp, #80]
0x0000000000402850:  3100041f      cmn w0, #0x1 (1)
0x0000000000402854:  540004a0      b.eq #+0x94 (addr 0x4028e8)

----------------
IN: encode
0x00000000004028e8:  d503201f      nop
0x00000000004028ec:  39c0bbe0      ldrsb w0, [sp, #46]
0x00000000004028f0:  7100001f      cmp w0, #0x0 (0)
0x00000000004028f4:  54000180      b.eq #+0x30 (addr 0x402924)

----------------
IN: encode
0x0000000000402924:  f9403fe0      ldr x0, [sp, #120]
0x0000000000402928:  940098ce      bl #+0x26338 (addr 0x428c60)

----------------
IN: encode
0x000000000040292c:  d503201f      nop
0x0000000000402930:  a8c87bfd      ldp x29, x30, [sp], #128
0x0000000000402934:  d65f03c0      ret

----------------
IN: generate
0x000000000040308c:  b9404be0      ldr w0, [sp, #72]
0x0000000000403090:  7100001f      cmp w0, #0x0 (0)
0x0000000000403094:  5400018c      b.gt #+0x30 (addr 0x4030c4)

----------------
IN: generate
0x00000000004030c4:  f9002fff      str xzr, [sp, #88]
0x00000000004030c8:  f94037e0      ldr x0, [sp, #104]
0x00000000004030cc:  b9400000      ldr w0, [x0]
0x00000000004030d0:  b90053e0      str w0, [sp, #80]
0x00000000004030d4:  b90057ff      str wzr, [sp, #84]
0x00000000004030d8:  1400002f      b #+0xbc (addr 0x403194)

----------------
IN: generate
0x0000000000403194:  b94057e1      ldr w1, [sp, #84]
0x0000000000403198:  b9401fe0      ldr w0, [sp, #28]
0x000000000040319c:  6b00003f      cmp w1, w0
0x00000000004031a0:  54fff9eb      b.lt #-0xc4 (addr 0x4030dc)

----------------
IN: generate
0x00000000004030dc:  b94057e2      ldr w2, [sp, #84]
0x00000000004030e0:  b94053e1      ldr w1, [sp, #80]
0x00000000004030e4:  f9401fe0      ldr x0, [sp, #56]
0x00000000004030e8:  97fff8a1      bl #-0x1d7c (addr 0x40136c)

----------------
IN: forward
0x000000000040136c:  a9b17bfd      stp x29, x30, [sp, #-240]!
0x0000000000401370:  910003fd      mov x29, sp
0x0000000000401374:  f9000fe0      str x0, [sp, #24]
0x0000000000401378:  b90017e1      str w1, [sp, #20]
0x000000000040137c:  b90013e2      str w2, [sp, #16]
0x0000000000401380:  f9400fe0      ldr x0, [sp, #24]
0x0000000000401384:  f9004fe0      str x0, [sp, #152]
0x0000000000401388:  f9400fe0      ldr x0, [sp, #24]
0x000000000040138c:  91008000      add x0, x0, #0x20 (32)
0x0000000000401390:  f90053e0      str x0, [sp, #160]
0x0000000000401394:  f9400fe0      ldr x0, [sp, #24]
0x0000000000401398:  91020000      add x0, x0, #0x80 (128)
0x000000000040139c:  f90057e0      str x0, [sp, #168]
0x00000000004013a0:  f94057e0      ldr x0, [sp, #168]
0x00000000004013a4:  f9400000      ldr x0, [x0]
0x00000000004013a8:  f9005be0      str x0, [sp, #176]
0x00000000004013ac:  f9404fe0      ldr x0, [sp, #152]
0x00000000004013b0:  b9400000      ldr w0, [x0]
0x00000000004013b4:  b90053e0      str w0, [sp, #80]
0x00000000004013b8:  f9404fe0      ldr x0, [sp, #152]
0x00000000004013bc:  b9400001      ldr w1, [x0]
0x00000000004013c0:  f9404fe0      ldr x0, [sp, #152]
0x00000000004013c4:  b9401000      ldr w0, [x0, #16]
0x00000000004013c8:  1b007c21      mul w1, w1, w0
0x00000000004013cc:  f9404fe0      ldr x0, [sp, #152]
0x00000000004013d0:  b9400c00      ldr w0, [x0, #12]
0x00000000004013d4:  1ac00c20      sdiv w0, w1, w0
0x00000000004013d8:  b90057e0      str w0, [sp, #84]
0x00000000004013dc:  f9404fe0      ldr x0, [sp, #152]
0x00000000004013e0:  b9400c01      ldr w1, [x0, #12]
0x00000000004013e4:  f9404fe0      ldr x0, [sp, #152]
0x00000000004013e8:  b9401000      ldr w0, [x0, #16]
0x00000000004013ec:  1ac00c20      sdiv w0, w1, w0
0x00000000004013f0:  b9005be0      str w0, [sp, #88]
0x00000000004013f4:  f9404fe0      ldr x0, [sp, #152]
0x00000000004013f8:  b9400400      ldr w0, [x0, #4]
0x00000000004013fc:  b9005fe0      str w0, [sp, #92]
0x0000000000401400:  f9404fe0      ldr x0, [sp, #152]
0x0000000000401404:  b9400c00      ldr w0, [x0, #12]
0x0000000000401408:  b94053e1      ldr w1, [sp, #80]
0x000000000040140c:  1ac00c20      sdiv w0, w1, w0
0x0000000000401410:  b90063e0      str w0, [sp, #96]
0x0000000000401414:  f94053e0      ldr x0, [sp, #160]
0x0000000000401418:  f9400001      ldr x1, [x0]
0x000000000040141c:  b94017e2      ldr w2, [sp, #20]
0x0000000000401420:  b94053e0      ldr w0, [sp, #80]
0x0000000000401424:  1b007c40      mul w0, w2, w0
0x0000000000401428:  93407c00      sxtw x0, w0
0x000000000040142c:  d37ef400      lsl x0, x0, #2
0x0000000000401430:  8b000020      add x0, x1, x0
0x0000000000401434:  f9005fe0      str x0, [sp, #184]
0x0000000000401438:  b98053e0      ldrsw x0, [sp, #80]
0x000000000040143c:  d37ef400      lsl x0, x0, #2
0x0000000000401440:  aa0003e2      mov x2, x0
0x0000000000401444:  f9405fe1      ldr x1, [sp, #184]
0x0000000000401448:  f9405be0      ldr x0, [sp, #176]
0x000000000040144c:  97fffb99      bl #-0x119c (addr 0x4002b0)

----------------
IN: forward
0x0000000000401450:  f9004bff      str xzr, [sp, #144]
0x0000000000401454:  1400023b      b #+0x8ec (addr 0x401d40)

----------------
IN: forward
0x0000000000401d40:  f9404fe0      ldr x0, [sp, #152]
0x0000000000401d44:  b9400800      ldr w0, [x0, #8]
0x0000000000401d48:  93407c00      sxtw x0, w0
0x0000000000401d4c:  f9404be1      ldr x1, [sp, #144]
0x0000000000401d50:  eb00003f      cmp x1, x0
0x0000000000401d54:  54ffb823      b.lo #-0x8fc (addr 0x401458)

----------------
IN: forward
0x0000000000401458:  f94057e0      ldr x0, [sp, #168]
0x000000000040145c:  f9400404      ldr x4, [x0, #8]
0x0000000000401460:  f94053e0      ldr x0, [sp, #160]
0x0000000000401464:  f9400401      ldr x1, [x0, #8]
0x0000000000401468:  b98053e2      ldrsw x2, [sp, #80]
0x000000000040146c:  f9404be0      ldr x0, [sp, #144]
0x0000000000401470:  9b007c40      mul x0, x2, x0
0x0000000000401474:  d37ef400      lsl x0, x0, #2
0x0000000000401478:  8b000020      add x0, x1, x0
0x000000000040147c:  b94053e3      ldr w3, [sp, #80]
0x0000000000401480:  aa0003e2      mov x2, x0
0x0000000000401484:  f9405be1      ldr x1, [sp, #176]
0x0000000000401488:  aa0403e0      mov x0, x4
0x000000000040148c:  97fffeda      bl #-0x498 (addr 0x400ff4)

----------------
IN: rmsnorm
0x0000000000400ff4:  a9bc7bfd      stp x29, x30, [sp, #-64]!
0x0000000000400ff8:  910003fd      mov x29, sp
0x0000000000400ffc:  f90017e0      str x0, [sp, #40]

----------------
IN: rmsnorm
0x0000000000401000:  f90013e1      str x1, [sp, #32]
0x0000000000401004:  f9000fe2      str x2, [sp, #24]
0x0000000000401008:  b90017e3      str w3, [sp, #20]
0x000000000040100c:  b90037ff      str wzr, [sp, #52]
0x0000000000401010:  b9003bff      str wzr, [sp, #56]
0x0000000000401014:  14000012      b #+0x48 (addr 0x40105c)

----------------
IN: rmsnorm
0x000000000040105c:  b9403be1      ldr w1, [sp, #56]
0x0000000000401060:  b94017e0      ldr w0, [sp, #20]
0x0000000000401064:  6b00003f      cmp w1, w0
0x0000000000401068:  54fffd8b      b.lt #-0x50 (addr 0x401018)

----------------
IN: rmsnorm
0x0000000000401018:  b9803be0      ldrsw x0, [sp, #56]
0x000000000040101c:  d37ef400      lsl x0, x0, #2
0x0000000000401020:  f94013e1      ldr x1, [sp, #32]
0x0000000000401024:  8b000020      add x0, x1, x0
0x0000000000401028:  bd400001      ldr s1, [x0]
0x000000000040102c:  b9803be0      ldrsw x0, [sp, #56]
0x0000000000401030:  d37ef400      lsl x0, x0, #2
0x0000000000401034:  f94013e1      ldr x1, [sp, #32]
0x0000000000401038:  8b000020      add x0, x1, x0
0x000000000040103c:  bd400000      ldr s0, [x0]
0x0000000000401040:  1e200820      fmul s0, s1, s0
0x0000000000401044:  bd4037e1      ldr s1, [sp, #52]
0x0000000000401048:  1e202820      fadd s0, s1, s0
0x000000000040104c:  bd0037e0      str s0, [sp, #52]
0x0000000000401050:  b9403be0      ldr w0, [sp, #56]
0x0000000000401054:  11000400      add w0, w0, #0x1 (1)
0x0000000000401058:  b9003be0      str w0, [sp, #56]
0x000000000040105c:  b9403be1      ldr w1, [sp, #56]
0x0000000000401060:  b94017e0      ldr w0, [sp, #20]
0x0000000000401064:  6b00003f      cmp w1, w0
0x0000000000401068:  54fffd8b      b.lt #-0x50 (addr 0x401018)

----------------
IN: rmsnorm
0x000000000040106c:  bd4017e0      ldr s0, [sp, #20]
0x0000000000401070:  5e21d800      scvtf s0, s0
0x0000000000401074:  bd4037e1      ldr s1, [sp, #52]
0x0000000000401078:  1e201820      fdiv s0, s1, s0
0x000000000040107c:  bd0037e0      str s0, [sp, #52]
0x0000000000401080:  bd4037e0      ldr s0, [sp, #52]
0x0000000000401084:  5298b580      mov w0, #0xc5ac
0x0000000000401088:  72a6e4e0      movk w0, #0x3727, lsl #16
0x000000000040108c:  1e270001      fmov s1, w0
0x0000000000401090:  1e212800      fadd s0, s0, s1
0x0000000000401094:  bd0037e0      str s0, [sp, #52]
0x0000000000401098:  bd4037e0      ldr s0, [sp, #52]
0x000000000040109c:  94000ce5      bl #+0x3394 (addr 0x404430)

----------------
IN: sqrtf
0x0000000000404430:  1e202008      fcmp s0, #0.0
0x0000000000404434:  540000c5      b.pl #+0x18 (addr 0x40444c)

----------------
IN: sqrtf
0x000000000040444c:  14000029      b #+0xa4 (addr 0x4044f0)

----------------
IN: __ieee754_sqrtf
0x00000000004044f0:  1e21c000      fsqrt s0, s0
0x00000000004044f4:  d65f03c0      ret

----------------
IN: rmsnorm
0x00000000004010a0:  1e204001      fmov s1, s0
0x00000000004010a4:  1e2e1000      fmov s0, #0x70 (1.0000)
0x00000000004010a8:  1e211800      fdiv s0, s0, s1
0x00000000004010ac:  bd0037e0      str s0, [sp, #52]
0x00000000004010b0:  b9003fff      str wzr, [sp, #60]
0x00000000004010b4:  14000016      b #+0x58 (addr 0x40110c)

----------------
IN: rmsnorm
0x000000000040110c:  b9403fe1      ldr w1, [sp, #60]
0x0000000000401110:  b94017e0      ldr w0, [sp, #20]
0x0000000000401114:  6b00003f      cmp w1, w0
0x0000000000401118:  54fffd0b      b.lt #-0x60 (addr 0x4010b8)

----------------
IN: rmsnorm
0x00000000004010b8:  b9803fe0      ldrsw x0, [sp, #60]
0x00000000004010bc:  d37ef400      lsl x0, x0, #2
0x00000000004010c0:  f9400fe1      ldr x1, [sp, #24]
0x00000000004010c4:  8b000020      add x0, x1, x0
0x00000000004010c8:  bd400001      ldr s1, [x0]
0x00000000004010cc:  b9803fe0      ldrsw x0, [sp, #60]
0x00000000004010d0:  d37ef400      lsl x0, x0, #2
0x00000000004010d4:  f94013e1      ldr x1, [sp, #32]
0x00000000004010d8:  8b000020      add x0, x1, x0
0x00000000004010dc:  bd400002      ldr s2, [x0]
0x00000000004010e0:  bd4037e0      ldr s0, [sp, #52]
0x00000000004010e4:  1e200840      fmul s0, s2, s0
0x00000000004010e8:  b9803fe0      ldrsw x0, [sp, #60]
0x00000000004010ec:  d37ef400      lsl x0, x0, #2
0x00000000004010f0:  f94017e1      ldr x1, [sp, #40]
0x00000000004010f4:  8b000020      add x0, x1, x0
0x00000000004010f8:  1e200820      fmul s0, s1, s0
0x00000000004010fc:  bd000000      str s0, [x0]
0x0000000000401100:  b9403fe0      ldr w0, [sp, #60]
0x0000000000401104:  11000400      add w0, w0, #0x1 (1)
0x0000000000401108:  b9003fe0      str w0, [sp, #60]
0x000000000040110c:  b9403fe1      ldr w1, [sp, #60]
0x0000000000401110:  b94017e0      ldr w0, [sp, #20]
0x0000000000401114:  6b00003f      cmp w1, w0
0x0000000000401118:  54fffd0b      b.lt #-0x60 (addr 0x4010b8)

----------------
IN: rmsnorm
0x000000000040111c:  d503201f      nop
0x0000000000401120:  d503201f      nop
0x0000000000401124:  a8c47bfd      ldp x29, x30, [sp], #64
0x0000000000401128:  d65f03c0      ret

----------------
IN: forward
0x0000000000401490:  f9404fe0      ldr x0, [sp, #152]
0x0000000000401494:  b9401800      ldr w0, [x0, #24]
0x0000000000401498:  93407c00      sxtw x0, w0
0x000000000040149c:  2a0003e1      mov w1, w0
0x00000000004014a0:  f9404be0      ldr x0, [sp, #144]
0x00000000004014a4:  1b007c20      mul w0, w1, w0
0x00000000004014a8:  b98057e1      ldrsw x1, [sp, #84]
0x00000000004014ac:  1b017c00      mul w0, w0, w1
0x00000000004014b0:  b90067e0      str w0, [sp, #100]
0x00000000004014b4:  f94057e0      ldr x0, [sp, #168]
0x00000000004014b8:  f9402801      ldr x1, [x0, #80]
0x00000000004014bc:  b98067e2      ldrsw x2, [sp, #100]
0x00000000004014c0:  b94013e3      ldr w3, [sp, #16]
0x00000000004014c4:  b94057e0      ldr w0, [sp, #84]
0x00000000004014c8:  1b007c60      mul w0, w3, w0
0x00000000004014cc:  93407c00      sxtw x0, w0
0x00000000004014d0:  8b000040      add x0, x2, x0
0x00000000004014d4:  d37ef400      lsl x0, x0, #2
0x00000000004014d8:  8b000021      add x1, x1, x0
0x00000000004014dc:  f94057e0      ldr x0, [sp, #168]
0x00000000004014e0:  f9001801      str x1, [x0, #48]
0x00000000004014e4:  f94057e0      ldr x0, [sp, #168]
0x00000000004014e8:  f9402c01      ldr x1, [x0, #88]
0x00000000004014ec:  b98067e2      ldrsw x2, [sp, #100]
0x00000000004014f0:  b94013e3      ldr w3, [sp, #16]
0x00000000004014f4:  b94057e0      ldr w0, [sp, #84]
0x00000000004014f8:  1b007c60      mul w0, w3, w0
0x00000000004014fc:  93407c00      sxtw x0, w0
0x0000000000401500:  8b000040      add x0, x2, x0
0x0000000000401504:  d37ef400      lsl x0, x0, #2
0x0000000000401508:  8b000021      add x1, x1, x0
0x000000000040150c:  f94057e0      ldr x0, [sp, #168]
0x0000000000401510:  f9001c01      str x1, [x0, #56]
0x0000000000401514:  f94057e0      ldr x0, [sp, #168]
0x0000000000401518:  f9401405      ldr x5, [x0, #40]
0x000000000040151c:  f94057e0      ldr x0, [sp, #168]
0x0000000000401520:  f9400406      ldr x6, [x0, #8]
0x0000000000401524:  f94053e0      ldr x0, [sp, #160]
0x0000000000401528:  f9400c01      ldr x1, [x0, #24]
0x000000000040152c:  b98053e2      ldrsw x2, [sp, #80]
0x0000000000401530:  f9404be0      ldr x0, [sp, #144]
0x0000000000401534:  9b007c42      mul x2, x2, x0
0x0000000000401538:  b98053e0      ldrsw x0, [sp, #80]
0x000000000040153c:  9b007c40      mul x0, x2, x0
0x0000000000401540:  d37ef400      lsl x0, x0, #2
0x0000000000401544:  8b000020      add x0, x1, x0
0x0000000000401548:  b94053e4      ldr w4, [sp, #80]
0x000000000040154c:  b94053e3      ldr w3, [sp, #80]
0x0000000000401550:  aa0003e2      mov x2, x0
0x0000000000401554:  aa0603e1      mov x1, x6
0x0000000000401558:  aa0503e0      mov x0, x5
0x000000000040155c:  97ffff4e      bl #-0x2c8 (addr 0x401294)

----------------
IN: matmul
0x0000000000401294:  d100c3ff      sub sp, sp, #0x30 (48)
0x0000000000401298:  f9000fe0      str x0, [sp, #24]
0x000000000040129c:  f9000be1      str x1, [sp, #16]
0x00000000004012a0:  f90007e2      str x2, [sp, #8]
0x00000000004012a4:  b90007e3      str w3, [sp, #4]
0x00000000004012a8:  b90003e4      str w4, [sp]
0x00000000004012ac:  b90027ff      str wzr, [sp, #36]
0x00000000004012b0:  14000027      b #+0x9c (addr 0x40134c)

----------------
IN: matmul
0x000000000040134c:  b94027e1      ldr w1, [sp, #36]
0x0000000000401350:  b94003e0      ldr w0, [sp]
0x0000000000401354:  6b00003f      cmp w1, w0
0x0000000000401358:  54fffaeb      b.lt #-0xa4 (addr 0x4012b4)

----------------
IN: matmul
0x00000000004012b4:  b9002bff      str wzr, [sp, #40]
0x00000000004012b8:  b9002fff      str wzr, [sp, #44]
0x00000000004012bc:  14000017      b #+0x5c (addr 0x401318)

----------------
IN: matmul
0x0000000000401318:  b9402fe1      ldr w1, [sp, #44]
0x000000000040131c:  b94007e0      ldr w0, [sp, #4]
0x0000000000401320:  6b00003f      cmp w1, w0
0x0000000000401324:  54fffceb      b.lt #-0x64 (addr 0x4012c0)

----------------
IN: matmul
0x00000000004012c0:  b94027e1      ldr w1, [sp, #36]
0x00000000004012c4:  b94007e0      ldr w0, [sp, #4]
0x00000000004012c8:  1b007c21      mul w1, w1, w0
0x00000000004012cc:  b9402fe0      ldr w0, [sp, #44]
0x00000000004012d0:  0b000020      add w0, w1, w0
0x00000000004012d4:  93407c00      sxtw x0, w0
0x00000000004012d8:  d37ef400      lsl x0, x0, #2
0x00000000004012dc:  f94007e1      ldr x1, [sp, #8]
0x00000000004012e0:  8b000020      add x0, x1, x0
0x00000000004012e4:  bd400001      ldr s1, [x0]
0x00000000004012e8:  b9802fe0      ldrsw x0, [sp, #44]
0x00000000004012ec:  d37ef400      lsl x0, x0, #2
0x00000000004012f0:  f9400be1      ldr x1, [sp, #16]
0x00000000004012f4:  8b000020      add x0, x1, x0
0x00000000004012f8:  bd400000      ldr s0, [x0]
0x00000000004012fc:  1e200820      fmul s0, s1, s0
0x0000000000401300:  bd402be1      ldr s1, [sp, #40]
0x0000000000401304:  1e202820      fadd s0, s1, s0
0x0000000000401308:  bd002be0      str s0, [sp, #40]
0x000000000040130c:  b9402fe0      ldr w0, [sp, #44]
0x0000000000401310:  11000400      add w0, w0, #0x1 (1)
0x0000000000401314:  b9002fe0      str w0, [sp, #44]
0x0000000000401318:  b9402fe1      ldr w1, [sp, #44]
0x000000000040131c:  b94007e0      ldr w0, [sp, #4]
0x0000000000401320:  6b00003f      cmp w1, w0
0x0000000000401324:  54fffceb      b.lt #-0x64 (addr 0x4012c0)

----------------
IN: matmul
0x0000000000401328:  b98027e0      ldrsw x0, [sp, #36]
0x000000000040132c:  d37ef400      lsl x0, x0, #2
0x0000000000401330:  f9400fe1      ldr x1, [sp, #24]
0x0000000000401334:  8b000020      add x0, x1, x0
0x0000000000401338:  bd402be0      ldr s0, [sp, #40]
0x000000000040133c:  bd000000      str s0, [x0]
0x0000000000401340:  b94027e0      ldr w0, [sp, #36]
0x0000000000401344:  11000400      add w0, w0, #0x1 (1)
0x0000000000401348:  b90027e0      str w0, [sp, #36]
0x000000000040134c:  b94027e1      ldr w1, [sp, #36]
0x0000000000401350:  b94003e0      ldr w0, [sp]
0x0000000000401354:  6b00003f      cmp w1, w0
0x0000000000401358:  54fffaeb      b.lt #-0xa4 (addr 0x4012b4)

----------------
IN: matmul
0x000000000040135c:  d503201f      nop
0x0000000000401360:  d503201f      nop
0x0000000000401364:  9100c3ff      add sp, sp, #0x30 (48)
0x0000000000401368:  d65f03c0      ret

----------------
IN: forward
0x0000000000401560:  f94057e0      ldr x0, [sp, #168]
0x0000000000401564:  f9401805      ldr x5, [x0, #48]
0x0000000000401568:  f94057e0      ldr x0, [sp, #168]
0x000000000040156c:  f9400406      ldr x6, [x0, #8]
0x0000000000401570:  f94053e0      ldr x0, [sp, #160]
0x0000000000401574:  f9401001      ldr x1, [x0, #32]
0x0000000000401578:  b98053e2      ldrsw x2, [sp, #80]
0x000000000040157c:  f9404be0      ldr x0, [sp, #144]
0x0000000000401580:  9b007c42      mul x2, x2, x0
0x0000000000401584:  b98057e0      ldrsw x0, [sp, #84]
0x0000000000401588:  9b007c40      mul x0, x2, x0
0x000000000040158c:  d37ef400      lsl x0, x0, #2
0x0000000000401590:  8b000020      add x0, x1, x0
0x0000000000401594:  b94057e4      ldr w4, [sp, #84]
0x0000000000401598:  b94053e3      ldr w3, [sp, #80]
0x000000000040159c:  aa0003e2      mov x2, x0
0x00000000004015a0:  aa0603e1      mov x1, x6
0x00000000004015a4:  aa0503e0      mov x0, x5
0x00000000004015a8:  97ffff3b      bl #-0x314 (addr 0x401294)

----------------
IN: forward
0x00000000004015ac:  f94057e0      ldr x0, [sp, #168]
0x00000000004015b0:  f9401c05      ldr x5, [x0, #56]
0x00000000004015b4:  f94057e0      ldr x0, [sp, #168]
0x00000000004015b8:  f9400406      ldr x6, [x0, #8]
0x00000000004015bc:  f94053e0      ldr x0, [sp, #160]
0x00000000004015c0:  f9401401      ldr x1, [x0, #40]
0x00000000004015c4:  b98053e2      ldrsw x2, [sp, #80]
0x00000000004015c8:  f9404be0      ldr x0, [sp, #144]
0x00000000004015cc:  9b007c42      mul x2, x2, x0
0x00000000004015d0:  b98057e0      ldrsw x0, [sp, #84]
0x00000000004015d4:  9b007c40      mul x0, x2, x0
0x00000000004015d8:  d37ef400      lsl x0, x0, #2
0x00000000004015dc:  8b000020      add x0, x1, x0
0x00000000004015e0:  b94057e4      ldr w4, [sp, #84]
0x00000000004015e4:  b94053e3      ldr w3, [sp, #80]
0x00000000004015e8:  aa0003e2      mov x2, x0
0x00000000004015ec:  aa0603e1      mov x1, x6
0x00000000004015f0:  aa0503e0      mov x0, x5
0x00000000004015f4:  97ffff28      bl #-0x360 (addr 0x401294)

----------------
IN: forward
0x00000000004015f8:  b90027ff      str wzr, [sp, #36]
0x00000000004015fc:  14000064      b #+0x190 (addr 0x40178c)

----------------
IN: forward
0x000000000040178c:  b94027e1      ldr w1, [sp, #36]
0x0000000000401790:  b94053e0      ldr w0, [sp, #80]
0x0000000000401794:  6b00003f      cmp w1, w0
0x0000000000401798:  54fff34b      b.lt #-0x198 (addr 0x401600)

----------------
IN: forward
0x0000000000401600:  b94027e0      ldr w0, [sp, #36]
0x0000000000401604:  b94063e1      ldr w1, [sp, #96]
0x0000000000401608:  1ac10c02      sdiv w2, w0, w1
0x000000000040160c:  b94063e1      ldr w1, [sp, #96]
0x0000000000401610:  1b017c41      mul w1, w2, w1
0x0000000000401614:  4b010000      sub w0, w0, w1
0x0000000000401618:  b90073e0      str w0, [sp, #112]
0x000000000040161c:  bd4073e0      ldr s0, [sp, #112]
0x0000000000401620:  5e21d801      scvtf s1, s0
0x0000000000401624:  bd4063e0      ldr s0, [sp, #96]
0x0000000000401628:  5e21d800      scvtf s0, s0
0x000000000040162c:  1e201820      fdiv s0, s1, s0
0x0000000000401630:  1e204001      fmov s1, s0
0x0000000000401634:  52880000      mov w0, #0x4000
0x0000000000401638:  72a8c380      movk w0, #0x461c, lsl #16
0x000000000040163c:  1e270000      fmov s0, w0
0x0000000000401640:  940009c0      bl #+0x2700 (addr 0x403d40)

----------------
IN: powf32
0x0000000000403d40:  1e260021      fmov w1, s1
0x0000000000403d44:  1e260002      fmov w2, s0
0x0000000000403d48:  12b02004      mov w4, #0x7effffff
0x0000000000403d4c:  1e204002      fmov s2, s0
0x0000000000403d50:  51600045      sub w5, w2, #0x800000 (8388608)
0x0000000000403d54:  531f7823      lsl w3, w1, #1
0x0000000000403d58:  6b0400bf      cmp w5, w4
0x0000000000403d5c:  51000460      sub w0, w3, #0x1 (1)
0x0000000000403d60:  12a02004      mov w4, #0xfeffffff
0x0000000000403d64:  54000748      b.hi #+0xe8 (addr 0x403e4c)

----------------
IN: powf32
0x0000000000403d68:  6b04001f      cmp w0, w4
0x0000000000403d6c:  54000fa2      b.hs #+0x1f4 (addr 0x403f60)

----------------
IN: powf32
0x0000000000403f60:  34000603      cbz w3, #+0xc0 (addr 0x404020)

----------------
IN: powf32
0x0000000000404020:  520a0040      eor w0, w2, #0x400000
0x0000000000404024:  52aff801      mov w1, #0x7fc00000
0x0000000000404028:  12007800      and w0, w0, #0x7fffffff
0x000000000040402c:  1e2e1000      fmov s0, #0x70 (1.0000)
0x0000000000404030:  6b01001f      cmp w0, w1
0x0000000000404034:  54fff0a9      b.ls #-0x1ec (addr 0x403e48)

----------------
IN: powf32
0x0000000000403e48:  d65f03c0      ret

----------------
IN: forward
0x0000000000401644:  1e204001      fmov s1, s0
0x0000000000401648:  1e2e1000      fmov s0, #0x70 (1.0000)
0x000000000040164c:  1e211800      fdiv s0, s0, s1
0x0000000000401650:  bd0077e0      str s0, [sp, #116]
0x0000000000401654:  bd4013e0      ldr s0, [sp, #16]
0x0000000000401658:  5e21d800      scvtf s0, s0
0x000000000040165c:  bd4077e1      ldr s1, [sp, #116]
0x0000000000401660:  1e200820      fmul s0, s1, s0
0x0000000000401664:  bd007be0      str s0, [sp, #120]
0x0000000000401668:  bd407be0      ldr s0, [sp, #120]
0x000000000040166c:  94000a81      bl #+0x2a04 (addr 0x404070)

----------------
IN: cosf
0x0000000000404070:  1e260002      fmov w2, s0
0x0000000000404074:  1e22c001      fcvt d1, s0
0x0000000000404078:  d3547840      ubfx x0, x2, #20, #11
0x000000000040407c:  710fcc1f      cmp w0, #0x3f3 (1011)
0x0000000000404080:  54000228      b.hi #+0x44 (addr 0x4040c4)

----------------
IN: cosf
0x0000000000404084:  1e610821      fmul d1, d1, d1
0x0000000000404088:  710e5c1f      cmp w0, #0x397 (919)
0x000000000040408c:  54000669      b.ls #+0xcc (addr 0x404158)

----------------
IN: cosf
0x0000000000404158:  1e2e1000      fmov s0, #0x70 (1.0000)
0x000000000040415c:  d65f03c0      ret

----------------
IN: forward
0x0000000000401670:  bd007fe0      str s0, [sp, #124]
0x0000000000401674:  bd407be0      ldr s0, [sp, #120]
0x0000000000401678:  94000af6      bl #+0x2bd8 (addr 0x404250)

----------------
IN: sinf
0x0000000000404250:  1e260002      fmov w2, s0
0x0000000000404254:  1e22c001      fcvt d1, s0
0x0000000000404258:  d3547840      ubfx x0, x2, #20, #11
0x000000000040425c:  53147c41      lsr w1, w2, #20
0x0000000000404260:  710fcc1f      cmp w0, #0x3f3 (1011)
0x0000000000404264:  540001e8      b.hi #+0x3c (addr 0x4042a0)

----------------
IN: sinf
0x0000000000404268:  1e610823      fmul d3, d1, d1
0x000000000040426c:  710e5c1f      cmp w0, #0x397 (919)
0x0000000000404270:  54000629      b.ls #+0xc4 (addr 0x404334)

----------------
IN: sinf
0x0000000000404334:  721d1c3f      tst w1, #0x7f8
0x0000000000404338:  54fffb21      b.ne #-0x9c (addr 0x40429c)

----------------
IN: sinf
0x000000000040433c:  1e624063      fcvt s3, d3
0x0000000000404340:  d65f03c0      ret

----------------
IN: forward
0x000000000040167c:  bd0083e0      str s0, [sp, #128]
0x0000000000401680:  b94027e1      ldr w1, [sp, #36]
0x0000000000401684:  b94057e0      ldr w0, [sp, #84]
0x0000000000401688:  6b00003f      cmp w1, w0
0x000000000040168c:  5400006a      b.ge #+0xc (addr 0x401698)

----------------
IN: forward
0x0000000000401690:  52800040      mov w0, #0x2
0x0000000000401694:  14000002      b #+0x8 (addr 0x40169c)

----------------
IN: forward
0x000000000040169c:  b90087e0      str w0, [sp, #132]
0x00000000004016a0:  b9002bff      str wzr, [sp, #40]
0x00000000004016a4:  14000033      b #+0xcc (addr 0x401770)

----------------
IN: forward
0x0000000000401770:  b9402be1      ldr w1, [sp, #40]
0x0000000000401774:  b94087e0      ldr w0, [sp, #132]
0x0000000000401778:  6b00003f      cmp w1, w0
0x000000000040177c:  54fff96b      b.lt #-0xd4 (addr 0x4016a8)

----------------
IN: forward
0x00000000004016a8:  b9402be0      ldr w0, [sp, #40]
0x00000000004016ac:  7100001f      cmp w0, #0x0 (0)
0x00000000004016b0:  54000081      b.ne #+0x10 (addr 0x4016c0)

----------------
IN: forward
0x00000000004016b4:  f94057e0      ldr x0, [sp, #168]
0x00000000004016b8:  f9401400      ldr x0, [x0, #40]
0x00000000004016bc:  14000003      b #+0xc (addr 0x4016c8)

----------------
IN: forward
0x00000000004016c8:  f90077e0      str x0, [sp, #232]
0x00000000004016cc:  b98027e0      ldrsw x0, [sp, #36]
0x00000000004016d0:  d37ef400      lsl x0, x0, #2
0x00000000004016d4:  f94077e1      ldr x1, [sp, #232]
0x00000000004016d8:  8b000020      add x0, x1, x0
0x00000000004016dc:  bd400000      ldr s0, [x0]
0x00000000004016e0:  bd008be0      str s0, [sp, #136]
0x00000000004016e4:  b98027e0      ldrsw x0, [sp, #36]
0x00000000004016e8:  91000400      add x0, x0, #0x1 (1)
0x00000000004016ec:  d37ef400      lsl x0, x0, #2
0x00000000004016f0:  f94077e1      ldr x1, [sp, #232]
0x00000000004016f4:  8b000020      add x0, x1, x0
0x00000000004016f8:  bd400000      ldr s0, [x0]
0x00000000004016fc:  bd008fe0      str s0, [sp, #140]
0x0000000000401700:  bd408be1      ldr s1, [sp, #136]
0x0000000000401704:  bd407fe0      ldr s0, [sp, #124]
0x0000000000401708:  1e200821      fmul s1, s1, s0
0x000000000040170c:  bd408fe2      ldr s2, [sp, #140]
0x0000000000401710:  bd4083e0      ldr s0, [sp, #128]
0x0000000000401714:  1e200840      fmul s0, s2, s0
0x0000000000401718:  b98027e0      ldrsw x0, [sp, #36]
0x000000000040171c:  d37ef400      lsl x0, x0, #2
0x0000000000401720:  f94077e1      ldr x1, [sp, #232]
0x0000000000401724:  8b000020      add x0, x1, x0
0x0000000000401728:  1e203820      fsub s0, s1, s0
0x000000000040172c:  bd000000      str s0, [x0]
0x0000000000401730:  bd408be1      ldr s1, [sp, #136]
0x0000000000401734:  bd4083e0      ldr s0, [sp, #128]
0x0000000000401738:  1e200821      fmul s1, s1, s0
0x000000000040173c:  bd408fe2      ldr s2, [sp, #140]
0x0000000000401740:  bd407fe0      ldr s0, [sp, #124]
0x0000000000401744:  1e200840      fmul s0, s2, s0
0x0000000000401748:  b98027e0      ldrsw x0, [sp, #36]
0x000000000040174c:  91000400      add x0, x0, #0x1 (1)
0x0000000000401750:  d37ef400      lsl x0, x0, #2
0x0000000000401754:  f94077e1      ldr x1, [sp, #232]
0x0000000000401758:  8b000020      add x0, x1, x0
0x000000000040175c:  1e202820      fadd s0, s1, s0
0x0000000000401760:  bd000000      str s0, [x0]
0x0000000000401764:  b9402be0      ldr w0, [sp, #40]
0x0000000000401768:  11000400      add w0, w0, #0x1 (1)
0x000000000040176c:  b9002be0      str w0, [sp, #40]
0x0000000000401770:  b9402be1      ldr w1, [sp, #40]
0x0000000000401774:  b94087e0      ldr w0, [sp, #132]
0x0000000000401778:  6b00003f      cmp w1, w0
0x000000000040177c:  54fff96b      b.lt #-0xd4 (addr 0x4016a8)

----------------
IN: forward
0x00000000004016c0:  f94057e0      ldr x0, [sp, #168]
0x00000000004016c4:  f9401800      ldr x0, [x0, #48]
0x00000000004016c8:  f90077e0      str x0, [sp, #232]
0x00000000004016cc:  b98027e0      ldrsw x0, [sp, #36]
0x00000000004016d0:  d37ef400      lsl x0, x0, #2
0x00000000004016d4:  f94077e1      ldr x1, [sp, #232]
0x00000000004016d8:  8b000020      add x0, x1, x0
0x00000000004016dc:  bd400000      ldr s0, [x0]
0x00000000004016e0:  bd008be0      str s0, [sp, #136]
0x00000000004016e4:  b98027e0      ldrsw x0, [sp, #36]
0x00000000004016e8:  91000400      add x0, x0, #0x1 (1)
0x00000000004016ec:  d37ef400      lsl x0, x0, #2
0x00000000004016f0:  f94077e1      ldr x1, [sp, #232]
0x00000000004016f4:  8b000020      add x0, x1, x0
0x00000000004016f8:  bd400000      ldr s0, [x0]
0x00000000004016fc:  bd008fe0      str s0, [sp, #140]
0x0000000000401700:  bd408be1      ldr s1, [sp, #136]
0x0000000000401704:  bd407fe0      ldr s0, [sp, #124]
0x0000000000401708:  1e200821      fmul s1, s1, s0
0x000000000040170c:  bd408fe2      ldr s2, [sp, #140]
0x0000000000401710:  bd4083e0      ldr s0, [sp, #128]
0x0000000000401714:  1e200840      fmul s0, s2, s0
0x0000000000401718:  b98027e0      ldrsw x0, [sp, #36]
0x000000000040171c:  d37ef400      lsl x0, x0, #2
0x0000000000401720:  f94077e1      ldr x1, [sp, #232]
0x0000000000401724:  8b000020      add x0, x1, x0
0x0000000000401728:  1e203820      fsub s0, s1, s0
0x000000000040172c:  bd000000      str s0, [x0]
0x0000000000401730:  bd408be1      ldr s1, [sp, #136]
0x0000000000401734:  bd4083e0      ldr s0, [sp, #128]
0x0000000000401738:  1e200821      fmul s1, s1, s0
0x000000000040173c:  bd408fe2      ldr s2, [sp, #140]
0x0000000000401740:  bd407fe0      ldr s0, [sp, #124]
0x0000000000401744:  1e200840      fmul s0, s2, s0
0x0000000000401748:  b98027e0      ldrsw x0, [sp, #36]
0x000000000040174c:  91000400      add x0, x0, #0x1 (1)
0x0000000000401750:  d37ef400      lsl x0, x0, #2
0x0000000000401754:  f94077e1      ldr x1, [sp, #232]
0x0000000000401758:  8b000020      add x0, x1, x0
0x000000000040175c:  1e202820      fadd s0, s1, s0
0x0000000000401760:  bd000000      str s0, [x0]
0x0000000000401764:  b9402be0      ldr w0, [sp, #40]
0x0000000000401768:  11000400      add w0, w0, #0x1 (1)
0x000000000040176c:  b9002be0      str w0, [sp, #40]
0x0000000000401770:  b9402be1      ldr w1, [sp, #40]
0x0000000000401774:  b94087e0      ldr w0, [sp, #132]
0x0000000000401778:  6b00003f      cmp w1, w0
0x000000000040177c:  54fff96b      b.lt #-0xd4 (addr 0x4016a8)

----------------
IN: forward
0x0000000000401780:  b94027e0      ldr w0, [sp, #36]
0x0000000000401784:  11000800      add w0, w0, #0x2 (2)
0x0000000000401788:  b90027e0      str w0, [sp, #36]
0x000000000040178c:  b94027e1      ldr w1, [sp, #36]
0x0000000000401790:  b94053e0      ldr w0, [sp, #80]
0x0000000000401794:  6b00003f      cmp w1, w0
0x0000000000401798:  54fff34b      b.lt #-0x198 (addr 0x401600)

----------------
IN: powf32
0x0000000000403d70:  52800000      mov w0, #0x0
0x0000000000403d74:  52b819a1      mov w1, #0xc0cd0000
0x0000000000403d78:  0b010041      add w1, w2, w1
0x0000000000403d7c:  f0000503      adrp x3, #+0xa3000 (addr 0x4a6000)
0x0000000000403d80:  12092025      and w5, w1, #0xff800000
0x0000000000403d84:  d3535821      ubfx x1, x1, #19, #4
0x0000000000403d88:  4b050042      sub w2, w2, w5
0x0000000000403d8c:  f947c464      ldr x4, [x3, #3976]
0x0000000000403d90:  d37cec21      lsl x1, x1, #4
0x0000000000403d94:  1e270040      fmov s0, w2
0x0000000000403d98:  1e7e1003      fmov d3, #0xf0 (-1.0000)
0x0000000000403d9c:  8b010082      add x2, x4, x1
0x0000000000403da0:  13127ca5      asr w5, w5, #18
0x0000000000403da4:  1e22c002      fcvt d2, s0
0x0000000000403da8:  fc616885      ldr d5, [x4, x1]
0x0000000000403dac:  1e6200a0      scvtf d0, w5
0x0000000000403db0:  1e22c021      fcvt d1, s1
0x0000000000403db4:  6d511087      ldp d7, d4, [x4, #272]
0x0000000000403db8:  d2902bc1      mov x1, #0x815e
0x0000000000403dbc:  1f420ca2      fmadd d2, d5, d2, d3
0x0000000000403dc0:  fd400443      ldr d3, [x2, #8]
0x0000000000403dc4:  fd409085      ldr d5, [x4, #288]
0x0000000000403dc8:  1e632800      fadd d0, d0, d3
0x0000000000403dcc:  6d500c86      ldp d6, d3, [x4, #256]
0x0000000000403dd0:  1f471044      fmadd d4, d2, d7, d4
0x0000000000403dd4:  1f450040      fmadd d0, d2, d5, d0
0x0000000000403dd8:  1e620845      fmul d5, d2, d2
0x0000000000403ddc:  1f460c42      fmadd d2, d2, d6, d3
0x0000000000403de0:  1e6508a3      fmul d3, d5, d5
0x0000000000403de4:  1f4400a0      fmadd d0, d5, d4, d0
0x0000000000403de8:  1f430040      fmadd d0, d2, d3, d0
0x0000000000403dec:  1e600821      fmul d1, d1, d0
0x0000000000403df0:  9e660022      fmov x2, d1
0x0000000000403df4:  d36ff842      ubfx x2, x2, #47, #16
0x0000000000403df8:  eb01005f      cmp x2, x1
0x0000000000403dfc:  540004c8      b.hi #+0x98 (addr 0x403e94)

----------------
IN: powf32
0x0000000000403e00:  f9461c61      ldr x1, [x3, #3128]
0x0000000000403e04:  1e664022      frinta d2, d1
0x0000000000403e08:  9e640022      fcvtas x2, d1
0x0000000000403e0c:  1e6e1000      fmov d0, #0x70 (1.0000)
0x0000000000403e10:  fd40a024      ldr d4, [x1, #320]
0x0000000000403e14:  1e623821      fsub d1, d1, d2
0x0000000000403e18:  6d530823      ldp d3, d2, [x1, #304]
0x0000000000403e1c:  92401043      and x3, x2, #0x1f
0x0000000000403e20:  8b000042      add x2, x2, x0
0x0000000000403e24:  1f440020      fmadd d0, d1, d4, d0
0x0000000000403e28:  1f430822      fmadd d2, d1, d3, d2
0x0000000000403e2c:  1e610823      fmul d3, d1, d1
0x0000000000403e30:  f8637820      ldr x0, [x1, x3, lsl #3]
0x0000000000403e34:  8b02bc02      add x2, x0, x2, lsl #47
0x0000000000403e38:  9e670041      fmov d1, x2
0x0000000000403e3c:  1f430040      fmadd d0, d2, d3, d0
0x0000000000403e40:  1e610800      fmul d0, d0, d1
0x0000000000403e44:  1e624000      fcvt s0, d0
0x0000000000403e48:  d65f03c0      ret

----------------
IN: forward
0x000000000040179c:  b9002fff      str wzr, [sp, #44]
0x00000000004017a0:  140000a7      b #+0x29c (addr 0x401a3c)

----------------
IN: forward
0x0000000000401a3c:  f9404fe0      ldr x0, [sp, #152]
0x0000000000401a40:  b9400c00      ldr w0, [x0, #12]
0x0000000000401a44:  b9402fe1      ldr w1, [sp, #44]
0x0000000000401a48:  6b00003f      cmp w1, w0
0x0000000000401a4c:  54ffeacb      b.lt #-0x2a8 (addr 0x4017a4)

----------------
IN: forward
0x00000000004017a4:  f94057e0      ldr x0, [sp, #168]
0x00000000004017a8:  f9401401      ldr x1, [x0, #40]
0x00000000004017ac:  b9402fe2      ldr w2, [sp, #44]
0x00000000004017b0:  b94063e0      ldr w0, [sp, #96]
0x00000000004017b4:  1b007c40      mul w0, w2, w0
0x00000000004017b8:  93407c00      sxtw x0, w0
0x00000000004017bc:  d37ef400      lsl x0, x0, #2
0x00000000004017c0:  8b000020      add x0, x1, x0
0x00000000004017c4:  f90063e0      str x0, [sp, #192]
0x00000000004017c8:  f94057e0      ldr x0, [sp, #168]
0x00000000004017cc:  f9402001      ldr x1, [x0, #64]
0x00000000004017d0:  f9404fe0      ldr x0, [sp, #152]
0x00000000004017d4:  b9401802      ldr w2, [x0, #24]
0x00000000004017d8:  b9402fe0      ldr w0, [sp, #44]
0x00000000004017dc:  1b007c40      mul w0, w2, w0
0x00000000004017e0:  93407c00      sxtw x0, w0
0x00000000004017e4:  d37ef400      lsl x0, x0, #2
0x00000000004017e8:  8b000020      add x0, x1, x0
0x00000000004017ec:  f90067e0      str x0, [sp, #200]
0x00000000004017f0:  b90033ff      str wzr, [sp, #48]
0x00000000004017f4:  1400003b      b #+0xec (addr 0x4018e0)

----------------
IN: forward
0x00000000004018e0:  b94033e1      ldr w1, [sp, #48]
0x00000000004018e4:  b94013e0      ldr w0, [sp, #16]
0x00000000004018e8:  6b00003f      cmp w1, w0
0x00000000004018ec:  54fff86d      b.le #-0xf4 (addr 0x4017f8)

----------------
IN: forward
0x00000000004017f8:  f94057e0      ldr x0, [sp, #168]
0x00000000004017fc:  f9402801      ldr x1, [x0, #80]
0x0000000000401800:  b98067e2      ldrsw x2, [sp, #100]
0x0000000000401804:  b94033e3      ldr w3, [sp, #48]
0x0000000000401808:  b94057e0      ldr w0, [sp, #84]
0x000000000040180c:  1b007c60      mul w0, w3, w0
0x0000000000401810:  93407c00      sxtw x0, w0
0x0000000000401814:  8b000042      add x2, x2, x0
0x0000000000401818:  b9402fe3      ldr w3, [sp, #44]
0x000000000040181c:  b9405be0      ldr w0, [sp, #88]
0x0000000000401820:  1ac00c63      sdiv w3, w3, w0
0x0000000000401824:  b94063e0      ldr w0, [sp, #96]
0x0000000000401828:  1b007c60      mul w0, w3, w0
0x000000000040182c:  93407c00      sxtw x0, w0
0x0000000000401830:  8b000040      add x0, x2, x0
0x0000000000401834:  d37ef400      lsl x0, x0, #2
0x0000000000401838:  8b000020      add x0, x1, x0
0x000000000040183c:  f90073e0      str x0, [sp, #224]
0x0000000000401840:  b90037ff      str wzr, [sp, #52]
0x0000000000401844:  b9003bff      str wzr, [sp, #56]
0x0000000000401848:  14000012      b #+0x48 (addr 0x401890)

----------------
IN: forward
0x0000000000401890:  b9403be1      ldr w1, [sp, #56]
0x0000000000401894:  b94063e0      ldr w0, [sp, #96]
0x0000000000401898:  6b00003f      cmp w1, w0
0x000000000040189c:  54fffd8b      b.lt #-0x50 (addr 0x40184c)

----------------
IN: forward
0x000000000040184c:  b9803be0      ldrsw x0, [sp, #56]
0x0000000000401850:  d37ef400      lsl x0, x0, #2
0x0000000000401854:  f94063e1      ldr x1, [sp, #192]
0x0000000000401858:  8b000020      add x0, x1, x0
0x000000000040185c:  bd400001      ldr s1, [x0]
0x0000000000401860:  b9803be0      ldrsw x0, [sp, #56]
0x0000000000401864:  d37ef400      lsl x0, x0, #2
0x0000000000401868:  f94073e1      ldr x1, [sp, #224]
0x000000000040186c:  8b000020      add x0, x1, x0
0x0000000000401870:  bd400000      ldr s0, [x0]
0x0000000000401874:  1e200820      fmul s0, s1, s0
0x0000000000401878:  bd4037e1      ldr s1, [sp, #52]
0x000000000040187c:  1e202820      fadd s0, s1, s0
0x0000000000401880:  bd0037e0      str s0, [sp, #52]
0x0000000000401884:  b9403be0      ldr w0, [sp, #56]
0x0000000000401888:  11000400      add w0, w0, #0x1 (1)
0x000000000040188c:  b9003be0      str w0, [sp, #56]
0x0000000000401890:  b9403be1      ldr w1, [sp, #56]
0x0000000000401894:  b94063e0      ldr w0, [sp, #96]
0x0000000000401898:  6b00003f      cmp w1, w0
0x000000000040189c:  54fffd8b      b.lt #-0x50 (addr 0x40184c)

----------------
IN: forward
0x00000000004018a0:  bd4063e0      ldr s0, [sp, #96]
0x00000000004018a4:  5e21d800      scvtf s0, s0
0x00000000004018a8:  94000ae2      bl #+0x2b88 (addr 0x404430)

----------------
IN: forward
0x00000000004018ac:  1e204001      fmov s1, s0
0x00000000004018b0:  bd4037e0      ldr s0, [sp, #52]
0x00000000004018b4:  1e211800      fdiv s0, s0, s1
0x00000000004018b8:  bd0037e0      str s0, [sp, #52]
0x00000000004018bc:  b98033e0      ldrsw x0, [sp, #48]
0x00000000004018c0:  d37ef400      lsl x0, x0, #2
0x00000000004018c4:  f94067e1      ldr x1, [sp, #200]
0x00000000004018c8:  8b000020      add x0, x1, x0
0x00000000004018cc:  bd4037e0      ldr s0, [sp, #52]
0x00000000004018d0:  bd000000      str s0, [x0]
0x00000000004018d4:  b94033e0      ldr w0, [sp, #48]
0x00000000004018d8:  11000400      add w0, w0, #0x1 (1)
0x00000000004018dc:  b90033e0      str w0, [sp, #48]
0x00000000004018e0:  b94033e1      ldr w1, [sp, #48]
0x00000000004018e4:  b94013e0      ldr w0, [sp, #16]
0x00000000004018e8:  6b00003f      cmp w1, w0
0x00000000004018ec:  54fff86d      b.le #-0xf4 (addr 0x4017f8)

----------------
IN: forward
0x00000000004018f0:  b94013e0      ldr w0, [sp, #16]
0x00000000004018f4:  11000400      add w0, w0, #0x1 (1)
0x00000000004018f8:  2a0003e1      mov w1, w0
0x00000000004018fc:  f94067e0      ldr x0, [sp, #200]
0x0000000000401900:  97fffe0b      bl #-0x7d4 (addr 0x40112c)

----------------
IN: softmax
0x000000000040112c:  a9bb7bfd      stp x29, x30, [sp, #-80]!
0x0000000000401130:  910003fd      mov x29, sp
0x0000000000401134:  f9000bf3      str x19, [sp, #16]
0x0000000000401138:  f90017e0      str x0, [sp, #40]
0x000000000040113c:  b90027e1      str w1, [sp, #36]
0x0000000000401140:  f94017e0      ldr x0, [sp, #40]
0x0000000000401144:  bd400000      ldr s0, [x0]
0x0000000000401148:  bd003fe0      str s0, [sp, #60]
0x000000000040114c:  52800020      mov w0, #0x1
0x0000000000401150:  b90043e0      str w0, [sp, #64]
0x0000000000401154:  14000013      b #+0x4c (addr 0x4011a0)

----------------
IN: softmax
0x00000000004011a0:  b94043e1      ldr w1, [sp, #64]
0x00000000004011a4:  b94027e0      ldr w0, [sp, #36]
0x00000000004011a8:  6b00003f      cmp w1, w0
0x00000000004011ac:  54fffd6b      b.lt #-0x54 (addr 0x401158)

----------------
IN: softmax
0x00000000004011b0:  b90047ff      str wzr, [sp, #68]
0x00000000004011b4:  b9004bff      str wzr, [sp, #72]
0x00000000004011b8:  14000019      b #+0x64 (addr 0x40121c)

----------------
IN: softmax
0x000000000040121c:  b9404be1      ldr w1, [sp, #72]
0x0000000000401220:  b94027e0      ldr w0, [sp, #36]
0x0000000000401224:  6b00003f      cmp w1, w0
0x0000000000401228:  54fffcab      b.lt #-0x6c (addr 0x4011bc)

----------------
IN: softmax
0x00000000004011bc:  b9804be0      ldrsw x0, [sp, #72]
0x00000000004011c0:  d37ef400      lsl x0, x0, #2
0x00000000004011c4:  f94017e1      ldr x1, [sp, #40]
0x00000000004011c8:  8b000020      add x0, x1, x0
0x00000000004011cc:  bd400001      ldr s1, [x0]
0x00000000004011d0:  bd403fe0      ldr s0, [sp, #60]
0x00000000004011d4:  1e203820      fsub s0, s1, s0
0x00000000004011d8:  b9804be0      ldrsw x0, [sp, #72]
0x00000000004011dc:  d37ef400      lsl x0, x0, #2
0x00000000004011e0:  f94017e1      ldr x1, [sp, #40]
0x00000000004011e4:  8b000033      add x19, x1, x0
0x00000000004011e8:  94000a9e      bl #+0x2a78 (addr 0x403c60)

----------------
IN: __expf
0x0000000000403c60:  1e260000      fmov w0, s0
0x0000000000403c64:  1e22c001      fcvt d1, s0
0x0000000000403c68:  d3547801      ubfx x1, x0, #20, #11
0x0000000000403c6c:  7110a83f      cmp w1, #0x42a (1066)
0x0000000000403c70:  540002c8      b.hi #+0x58 (addr 0x403cc8)

----------------
IN: __expf
0x0000000000403c74:  f0000500      adrp x0, #+0xa3000 (addr 0x4a6000)
0x0000000000403c78:  1e6e1000      fmov d0, #0x70 (1.0000)
0x0000000000403c7c:  f9461c00      ldr x0, [x0, #3128]
0x0000000000403c80:  6d529003      ldp d3, d4, [x0, #296]
0x0000000000403c84:  fd409c02      ldr d2, [x0, #312]
0x0000000000403c88:  1e630821      fmul d1, d1, d3
0x0000000000403c8c:  fd40a003      ldr d3, [x0, #320]
0x0000000000403c90:  1e664025      frinta d5, d1
0x0000000000403c94:  9e640021      fcvtas x1, d1
0x0000000000403c98:  1e653821      fsub d1, d1, d5
0x0000000000403c9c:  92401022      and x2, x1, #0x1f
0x0000000000403ca0:  1f410882      fmadd d2, d4, d1, d2
0x0000000000403ca4:  1f410060      fmadd d0, d3, d1, d0
0x0000000000403ca8:  1e610821      fmul d1, d1, d1
0x0000000000403cac:  f8627800      ldr x0, [x0, x2, lsl #3]
0x0000000000403cb0:  8b01bc01      add x1, x0, x1, lsl #47
0x0000000000403cb4:  1f410040      fmadd d0, d2, d1, d0
0x0000000000403cb8:  9e670021      fmov d1, x1
0x0000000000403cbc:  1e610800      fmul d0, d0, d1
0x0000000000403cc0:  1e624000      fcvt s0, d0
0x0000000000403cc4:  d65f03c0      ret

----------------
IN: softmax
0x00000000004011ec:  bd000260      str s0, [x19]
0x00000000004011f0:  b9804be0      ldrsw x0, [sp, #72]
0x00000000004011f4:  d37ef400      lsl x0, x0, #2
0x00000000004011f8:  f94017e1      ldr x1, [sp, #40]
0x00000000004011fc:  8b000020      add x0, x1, x0
0x0000000000401200:  bd400000      ldr s0, [x0]
0x0000000000401204:  bd4047e1      ldr s1, [sp, #68]
0x0000000000401208:  1e202820      fadd s0, s1, s0
0x000000000040120c:  bd0047e0      str s0, [sp, #68]
0x0000000000401210:  b9404be0      ldr w0, [sp, #72]
0x0000000000401214:  11000400      add w0, w0, #0x1 (1)
0x0000000000401218:  b9004be0      str w0, [sp, #72]
0x000000000040121c:  b9404be1      ldr w1, [sp, #72]
0x0000000000401220:  b94027e0      ldr w0, [sp, #36]
0x0000000000401224:  6b00003f      cmp w1, w0
0x0000000000401228:  54fffcab      b.lt #-0x6c (addr 0x4011bc)

----------------
IN: softmax
0x000000000040122c:  b9004fff      str wzr, [sp, #76]
0x0000000000401230:  14000010      b #+0x40 (addr 0x401270)

----------------
IN: softmax
0x0000000000401270:  b9404fe1      ldr w1, [sp, #76]
0x0000000000401274:  b94027e0      ldr w0, [sp, #36]
0x0000000000401278:  6b00003f      cmp w1, w0
0x000000000040127c:  54fffdcb      b.lt #-0x48 (addr 0x401234)

----------------
IN: softmax
0x0000000000401234:  b9804fe0      ldrsw x0, [sp, #76]
0x0000000000401238:  d37ef400      lsl x0, x0, #2
0x000000000040123c:  f94017e1      ldr x1, [sp, #40]
0x0000000000401240:  8b000020      add x0, x1, x0
0x0000000000401244:  bd400001      ldr s1, [x0]
0x0000000000401248:  b9804fe0      ldrsw x0, [sp, #76]
0x000000000040124c:  d37ef400      lsl x0, x0, #2
0x0000000000401250:  f94017e1      ldr x1, [sp, #40]
0x0000000000401254:  8b000020      add x0, x1, x0
0x0000000000401258:  bd4047e0      ldr s0, [sp, #68]
0x000000000040125c:  1e201820      fdiv s0, s1, s0
0x0000000000401260:  bd000000      str s0, [x0]
0x0000000000401264:  b9404fe0      ldr w0, [sp, #76]
0x0000000000401268:  11000400      add w0, w0, #0x1 (1)
0x000000000040126c:  b9004fe0      str w0, [sp, #76]
0x0000000000401270:  b9404fe1      ldr w1, [sp, #76]
0x0000000000401274:  b94027e0      ldr w0, [sp, #36]
0x0000000000401278:  6b00003f      cmp w1, w0
0x000000000040127c:  54fffdcb      b.lt #-0x48 (addr 0x401234)

----------------
IN: softmax
0x0000000000401280:  d503201f      nop
0x0000000000401284:  d503201f      nop
0x0000000000401288:  f9400bf3      ldr x19, [sp, #16]
0x000000000040128c:  a8c57bfd      ldp x29, x30, [sp], #80
0x0000000000401290:  d65f03c0      ret

----------------
IN: forward
0x0000000000401904:  f94057e0      ldr x0, [sp, #168]
0x0000000000401908:  f9400401      ldr x1, [x0, #8]
0x000000000040190c:  b9402fe2      ldr w2, [sp, #44]
0x0000000000401910:  b94063e0      ldr w0, [sp, #96]
0x0000000000401914:  1b007c40      mul w0, w2, w0
0x0000000000401918:  93407c00      sxtw x0, w0
0x000000000040191c:  d37ef400      lsl x0, x0, #2
0x0000000000401920:  8b000020      add x0, x1, x0
0x0000000000401924:  f9006be0      str x0, [sp, #208]
0x0000000000401928:  b98063e0      ldrsw x0, [sp, #96]
0x000000000040192c:  d37ef400      lsl x0, x0, #2
0x0000000000401930:  aa0003e2      mov x2, x0
0x0000000000401934:  52800001      mov w1, #0x0
0x0000000000401938:  f9406be0      ldr x0, [sp, #208]
0x000000000040193c:  97fffa65      bl #-0x166c (addr 0x4002d0)

----------------
IN: __memset_generic
0x000000000042d1ac:  cb030082      sub x2, x4, x3
0x000000000042d1b0:  d1004063      sub x3, x3, #0x10 (16)
0x000000000042d1b4:  d1014042      sub x2, x2, #0x50 (80)
0x000000000042d1b8:  ad010060      stp q0, q0, [x3, #32]
0x000000000042d1bc:  ad820060      stp q0, q0, [x3, #64]!
0x000000000042d1c0:  f1010042      subs x2, x2, #0x40 (64)
0x000000000042d1c4:  54ffffa8      b.hi #-0xc (addr 0x42d1b8)

----------------
IN: forward
0x0000000000401940:  b9003fff      str wzr, [sp, #60]
0x0000000000401944:  14000037      b #+0xdc (addr 0x401a20)

----------------
IN: forward
0x0000000000401a20:  b9403fe1      ldr w1, [sp, #60]
0x0000000000401a24:  b94013e0      ldr w0, [sp, #16]
0x0000000000401a28:  6b00003f      cmp w1, w0
0x0000000000401a2c:  54fff8ed      b.le #-0xe4 (addr 0x401948)

----------------
IN: forward
0x0000000000401948:  f94057e0      ldr x0, [sp, #168]
0x000000000040194c:  f9402c01      ldr x1, [x0, #88]
0x0000000000401950:  b98067e2      ldrsw x2, [sp, #100]
0x0000000000401954:  b9403fe3      ldr w3, [sp, #60]
0x0000000000401958:  b94057e0      ldr w0, [sp, #84]
0x000000000040195c:  1b007c60      mul w0, w3, w0
0x0000000000401960:  93407c00      sxtw x0, w0
0x0000000000401964:  8b000042      add x2, x2, x0
0x0000000000401968:  b9402fe3      ldr w3, [sp, #44]
0x000000000040196c:  b9405be0      ldr w0, [sp, #88]
0x0000000000401970:  1ac00c63      sdiv w3, w3, w0
0x0000000000401974:  b94063e0      ldr w0, [sp, #96]
0x0000000000401978:  1b007c60      mul w0, w3, w0
0x000000000040197c:  93407c00      sxtw x0, w0
0x0000000000401980:  8b000040      add x0, x2, x0
0x0000000000401984:  d37ef400      lsl x0, x0, #2
0x0000000000401988:  8b000020      add x0, x1, x0
0x000000000040198c:  f9006fe0      str x0, [sp, #216]
0x0000000000401990:  b9803fe0      ldrsw x0, [sp, #60]
0x0000000000401994:  d37ef400      lsl x0, x0, #2
0x0000000000401998:  f94067e1      ldr x1, [sp, #200]
0x000000000040199c:  8b000020      add x0, x1, x0
0x00000000004019a0:  bd400000      ldr s0, [x0]
0x00000000004019a4:  bd006fe0      str s0, [sp, #108]
0x00000000004019a8:  b90043ff      str wzr, [sp, #64]
0x00000000004019ac:  14000016      b #+0x58 (addr 0x401a04)

----------------
IN: forward
0x0000000000401a04:  b94043e1      ldr w1, [sp, #64]
0x0000000000401a08:  b94063e0      ldr w0, [sp, #96]
0x0000000000401a0c:  6b00003f      cmp w1, w0
0x0000000000401a10:  54fffd0b      b.lt #-0x60 (addr 0x4019b0)

----------------
IN: forward
0x00000000004019b0:  b98043e0      ldrsw x0, [sp, #64]
0x00000000004019b4:  d37ef400      lsl x0, x0, #2
0x00000000004019b8:  f9406be1      ldr x1, [sp, #208]
0x00000000004019bc:  8b000020      add x0, x1, x0
0x00000000004019c0:  bd400001      ldr s1, [x0]
0x00000000004019c4:  b98043e0      ldrsw x0, [sp, #64]
0x00000000004019c8:  d37ef400      lsl x0, x0, #2
0x00000000004019cc:  f9406fe1      ldr x1, [sp, #216]
0x00000000004019d0:  8b000020      add x0, x1, x0
0x00000000004019d4:  bd400002      ldr s2, [x0]
0x00000000004019d8:  bd406fe0      ldr s0, [sp, #108]
0x00000000004019dc:  1e200840      fmul s0, s2, s0
0x00000000004019e0:  b98043e0      ldrsw x0, [sp, #64]
0x00000000004019e4:  d37ef400      lsl x0, x0, #2
0x00000000004019e8:  f9406be1      ldr x1, [sp, #208]
0x00000000004019ec:  8b000020      add x0, x1, x0
0x00000000004019f0:  1e202820      fadd s0, s1, s0
0x00000000004019f4:  bd000000      str s0, [x0]
0x00000000004019f8:  b94043e0      ldr w0, [sp, #64]
0x00000000004019fc:  11000400      add w0, w0, #0x1 (1)
0x0000000000401a00:  b90043e0      str w0, [sp, #64]
0x0000000000401a04:  b94043e1      ldr w1, [sp, #64]
0x0000000000401a08:  b94063e0      ldr w0, [sp, #96]
0x0000000000401a0c:  6b00003f      cmp w1, w0
0x0000000000401a10:  54fffd0b      b.lt #-0x60 (addr 0x4019b0)

----------------
IN: forward
0x0000000000401a14:  b9403fe0      ldr w0, [sp, #60]
0x0000000000401a18:  11000400      add w0, w0, #0x1 (1)
0x0000000000401a1c:  b9003fe0      str w0, [sp, #60]
0x0000000000401a20:  b9403fe1      ldr w1, [sp, #60]
0x0000000000401a24:  b94013e0      ldr w0, [sp, #16]
0x0000000000401a28:  6b00003f      cmp w1, w0
0x0000000000401a2c:  54fff8ed      b.le #-0xe4 (addr 0x401948)

----------------
IN: forward
0x0000000000401a30:  b9402fe0      ldr w0, [sp, #44]
0x0000000000401a34:  11000400      add w0, w0, #0x1 (1)
0x0000000000401a38:  b9002fe0      str w0, [sp, #44]
0x0000000000401a3c:  f9404fe0      ldr x0, [sp, #152]
0x0000000000401a40:  b9400c00      ldr w0, [x0, #12]
0x0000000000401a44:  b9402fe1      ldr w1, [sp, #44]
0x0000000000401a48:  6b00003f      cmp w1, w0
0x0000000000401a4c:  54ffeacb      b.lt #-0x2a8 (addr 0x4017a4)

----------------
IN: forward
0x0000000000401a50:  f94057e0      ldr x0, [sp, #168]
0x0000000000401a54:  f9400805      ldr x5, [x0, #16]
0x0000000000401a58:  f94057e0      ldr x0, [sp, #168]
0x0000000000401a5c:  f9400406      ldr x6, [x0, #8]
0x0000000000401a60:  f94053e0      ldr x0, [sp, #160]
0x0000000000401a64:  f9401801      ldr x1, [x0, #48]
0x0000000000401a68:  b98053e2      ldrsw x2, [sp, #80]
0x0000000000401a6c:  f9404be0      ldr x0, [sp, #144]
0x0000000000401a70:  9b007c42      mul x2, x2, x0
0x0000000000401a74:  b98053e0      ldrsw x0, [sp, #80]
0x0000000000401a78:  9b007c40      mul x0, x2, x0
0x0000000000401a7c:  d37ef400      lsl x0, x0, #2
0x0000000000401a80:  8b000020      add x0, x1, x0
0x0000000000401a84:  b94053e4      ldr w4, [sp, #80]
0x0000000000401a88:  b94053e3      ldr w3, [sp, #80]
0x0000000000401a8c:  aa0003e2      mov x2, x0
0x0000000000401a90:  aa0603e1      mov x1, x6
0x0000000000401a94:  aa0503e0      mov x0, x5
0x0000000000401a98:  97fffdff      bl #-0x804 (addr 0x401294)

----------------
IN: forward
0x0000000000401a9c:  b90047ff      str wzr, [sp, #68]
0x0000000000401aa0:  14000015      b #+0x54 (addr 0x401af4)

----------------
IN: forward
0x0000000000401af4:  b94047e1      ldr w1, [sp, #68]
0x0000000000401af8:  b94053e0      ldr w0, [sp, #80]
0x0000000000401afc:  6b00003f      cmp w1, w0
0x0000000000401b00:  54fffd2b      b.lt #-0x5c (addr 0x401aa4)

----------------
IN: forward
0x0000000000401aa4:  b98047e0      ldrsw x0, [sp, #68]
0x0000000000401aa8:  d37ef400      lsl x0, x0, #2
0x0000000000401aac:  f9405be1      ldr x1, [sp, #176]
0x0000000000401ab0:  8b000020      add x0, x1, x0
0x0000000000401ab4:  bd400001      ldr s1, [x0]
0x0000000000401ab8:  f94057e0      ldr x0, [sp, #168]
0x0000000000401abc:  f9400801      ldr x1, [x0, #16]
0x0000000000401ac0:  b98047e0      ldrsw x0, [sp, #68]
0x0000000000401ac4:  d37ef400      lsl x0, x0, #2
0x0000000000401ac8:  8b000020      add x0, x1, x0
0x0000000000401acc:  bd400000      ldr s0, [x0]
0x0000000000401ad0:  b98047e0      ldrsw x0, [sp, #68]
0x0000000000401ad4:  d37ef400      lsl x0, x0, #2
0x0000000000401ad8:  f9405be1      ldr x1, [sp, #176]
0x0000000000401adc:  8b000020      add x0, x1, x0
0x0000000000401ae0:  1e202820      fadd s0, s1, s0
0x0000000000401ae4:  bd000000      str s0, [x0]
0x0000000000401ae8:  b94047e0      ldr w0, [sp, #68]
0x0000000000401aec:  11000400      add w0, w0, #0x1 (1)
0x0000000000401af0:  b90047e0      str w0, [sp, #68]
0x0000000000401af4:  b94047e1      ldr w1, [sp, #68]
0x0000000000401af8:  b94053e0      ldr w0, [sp, #80]
0x0000000000401afc:  6b00003f      cmp w1, w0
0x0000000000401b00:  54fffd2b      b.lt #-0x5c (addr 0x401aa4)

----------------
IN: forward
0x0000000000401b04:  f94057e0      ldr x0, [sp, #168]
0x0000000000401b08:  f9400404      ldr x4, [x0, #8]
0x0000000000401b0c:  f94053e0      ldr x0, [sp, #160]
0x0000000000401b10:  f9400801      ldr x1, [x0, #16]
0x0000000000401b14:  b98053e2      ldrsw x2, [sp, #80]
0x0000000000401b18:  f9404be0      ldr x0, [sp, #144]
0x0000000000401b1c:  9b007c40      mul x0, x2, x0
0x0000000000401b20:  d37ef400      lsl x0, x0, #2
0x0000000000401b24:  8b000020      add x0, x1, x0
0x0000000000401b28:  b94053e3      ldr w3, [sp, #80]
0x0000000000401b2c:  aa0003e2      mov x2, x0
0x0000000000401b30:  f9405be1      ldr x1, [sp, #176]
0x0000000000401b34:  aa0403e0      mov x0, x4
0x0000000000401b38:  97fffd2f      bl #-0xb44 (addr 0x400ff4)

----------------
IN: forward
0x0000000000401b3c:  f94057e0      ldr x0, [sp, #168]
0x0000000000401b40:  f9400c05      ldr x5, [x0, #24]
0x0000000000401b44:  f94057e0      ldr x0, [sp, #168]
0x0000000000401b48:  f9400406      ldr x6, [x0, #8]
0x0000000000401b4c:  f94053e0      ldr x0, [sp, #160]
0x0000000000401b50:  f9401c01      ldr x1, [x0, #56]
0x0000000000401b54:  b98053e2      ldrsw x2, [sp, #80]
0x0000000000401b58:  f9404be0      ldr x0, [sp, #144]
0x0000000000401b5c:  9b007c42      mul x2, x2, x0
0x0000000000401b60:  b9805fe0      ldrsw x0, [sp, #92]
0x0000000000401b64:  9b007c40      mul x0, x2, x0
0x0000000000401b68:  d37ef400      lsl x0, x0, #2
0x0000000000401b6c:  8b000020      add x0, x1, x0
0x0000000000401b70:  b9405fe4      ldr w4, [sp, #92]
0x0000000000401b74:  b94053e3      ldr w3, [sp, #80]
0x0000000000401b78:  aa0003e2      mov x2, x0
0x0000000000401b7c:  aa0603e1      mov x1, x6
0x0000000000401b80:  aa0503e0      mov x0, x5
0x0000000000401b84:  97fffdc4      bl #-0x8f0 (addr 0x401294)

----------------
IN: forward
0x0000000000401b88:  f94057e0      ldr x0, [sp, #168]
0x0000000000401b8c:  f9401005      ldr x5, [x0, #32]
0x0000000000401b90:  f94057e0      ldr x0, [sp, #168]
0x0000000000401b94:  f9400406      ldr x6, [x0, #8]
0x0000000000401b98:  f94053e0      ldr x0, [sp, #160]
0x0000000000401b9c:  f9402401      ldr x1, [x0, #72]
0x0000000000401ba0:  b98053e2      ldrsw x2, [sp, #80]
0x0000000000401ba4:  f9404be0      ldr x0, [sp, #144]
0x0000000000401ba8:  9b007c42      mul x2, x2, x0
0x0000000000401bac:  b9805fe0      ldrsw x0, [sp, #92]
0x0000000000401bb0:  9b007c40      mul x0, x2, x0
0x0000000000401bb4:  d37ef400      lsl x0, x0, #2
0x0000000000401bb8:  8b000020      add x0, x1, x0
0x0000000000401bbc:  b9405fe4      ldr w4, [sp, #92]
0x0000000000401bc0:  b94053e3      ldr w3, [sp, #80]
0x0000000000401bc4:  aa0003e2      mov x2, x0
0x0000000000401bc8:  aa0603e1      mov x1, x6
0x0000000000401bcc:  aa0503e0      mov x0, x5
0x0000000000401bd0:  97fffdb1      bl #-0x93c (addr 0x401294)

----------------
IN: forward
0x0000000000401bd4:  b9004bff      str wzr, [sp, #72]
0x0000000000401bd8:  14000026      b #+0x98 (addr 0x401c70)

----------------
IN: forward
0x0000000000401c70:  b9404be1      ldr w1, [sp, #72]
0x0000000000401c74:  b9405fe0      ldr w0, [sp, #92]
0x0000000000401c78:  6b00003f      cmp w1, w0
0x0000000000401c7c:  54fffb0b      b.lt #-0xa0 (addr 0x401bdc)

----------------
IN: forward
0x0000000000401bdc:  f94057e0      ldr x0, [sp, #168]
0x0000000000401be0:  f9400c01      ldr x1, [x0, #24]
0x0000000000401be4:  b9804be0      ldrsw x0, [sp, #72]
0x0000000000401be8:  d37ef400      lsl x0, x0, #2
0x0000000000401bec:  8b000020      add x0, x1, x0
0x0000000000401bf0:  bd400000      ldr s0, [x0]
0x0000000000401bf4:  bd006be0      str s0, [sp, #104]
0x0000000000401bf8:  bd406be0      ldr s0, [sp, #104]
0x0000000000401bfc:  1e214000      fneg s0, s0
0x0000000000401c00:  94000818      bl #+0x2060 (addr 0x403c60)

----------------
IN: forward
0x0000000000401c04:  1e204001      fmov s1, s0
0x0000000000401c08:  1e2e1000      fmov s0, #0x70 (1.0000)
0x0000000000401c0c:  1e202820      fadd s0, s1, s0
0x0000000000401c10:  1e2e1001      fmov s1, #0x70 (1.0000)
0x0000000000401c14:  1e201820      fdiv s0, s1, s0
0x0000000000401c18:  bd406be1      ldr s1, [sp, #104]
0x0000000000401c1c:  1e200820      fmul s0, s1, s0
0x0000000000401c20:  bd006be0      str s0, [sp, #104]
0x0000000000401c24:  f94057e0      ldr x0, [sp, #168]
0x0000000000401c28:  f9401001      ldr x1, [x0, #32]
0x0000000000401c2c:  b9804be0      ldrsw x0, [sp, #72]
0x0000000000401c30:  d37ef400      lsl x0, x0, #2
0x0000000000401c34:  8b000020      add x0, x1, x0
0x0000000000401c38:  bd400000      ldr s0, [x0]
0x0000000000401c3c:  bd406be1      ldr s1, [sp, #104]
0x0000000000401c40:  1e200820      fmul s0, s1, s0
0x0000000000401c44:  bd006be0      str s0, [sp, #104]
0x0000000000401c48:  f94057e0      ldr x0, [sp, #168]
0x0000000000401c4c:  f9400c01      ldr x1, [x0, #24]
0x0000000000401c50:  b9804be0      ldrsw x0, [sp, #72]
0x0000000000401c54:  d37ef400      lsl x0, x0, #2
0x0000000000401c58:  8b000020      add x0, x1, x0
0x0000000000401c5c:  bd406be0      ldr s0, [sp, #104]
0x0000000000401c60:  bd000000      str s0, [x0]
0x0000000000401c64:  b9404be0      ldr w0, [sp, #72]
0x0000000000401c68:  11000400      add w0, w0, #0x1 (1)
0x0000000000401c6c:  b9004be0      str w0, [sp, #72]
0x0000000000401c70:  b9404be1      ldr w1, [sp, #72]
0x0000000000401c74:  b9405fe0      ldr w0, [sp, #92]
0x0000000000401c78:  6b00003f      cmp w1, w0
0x0000000000401c7c:  54fffb0b      b.lt #-0xa0 (addr 0x401bdc)

----------------
IN: forward
0x0000000000401c80:  f94057e0      ldr x0, [sp, #168]
0x0000000000401c84:  f9400405      ldr x5, [x0, #8]
0x0000000000401c88:  f94057e0      ldr x0, [sp, #168]
0x0000000000401c8c:  f9400c06      ldr x6, [x0, #24]
0x0000000000401c90:  f94053e0      ldr x0, [sp, #160]
0x0000000000401c94:  f9402001      ldr x1, [x0, #64]
0x0000000000401c98:  b98053e2      ldrsw x2, [sp, #80]
0x0000000000401c9c:  f9404be0      ldr x0, [sp, #144]
0x0000000000401ca0:  9b007c42      mul x2, x2, x0
0x0000000000401ca4:  b9805fe0      ldrsw x0, [sp, #92]
0x0000000000401ca8:  9b007c40      mul x0, x2, x0
0x0000000000401cac:  d37ef400      lsl x0, x0, #2
0x0000000000401cb0:  8b000020      add x0, x1, x0
0x0000000000401cb4:  b94053e4      ldr w4, [sp, #80]
0x0000000000401cb8:  b9405fe3      ldr w3, [sp, #92]
0x0000000000401cbc:  aa0003e2      mov x2, x0
0x0000000000401cc0:  aa0603e1      mov x1, x6
0x0000000000401cc4:  aa0503e0      mov x0, x5
0x0000000000401cc8:  97fffd73      bl #-0xa34 (addr 0x401294)

----------------
IN: forward
0x0000000000401ccc:  b9004fff      str wzr, [sp, #76]
0x0000000000401cd0:  14000015      b #+0x54 (addr 0x401d24)

----------------
IN: forward
0x0000000000401d24:  b9404fe1      ldr w1, [sp, #76]
0x0000000000401d28:  b94053e0      ldr w0, [sp, #80]
0x0000000000401d2c:  6b00003f      cmp w1, w0
0x0000000000401d30:  54fffd2b      b.lt #-0x5c (addr 0x401cd4)

----------------
IN: forward
0x0000000000401cd4:  b9804fe0      ldrsw x0, [sp, #76]
0x0000000000401cd8:  d37ef400      lsl x0, x0, #2
0x0000000000401cdc:  f9405be1      ldr x1, [sp, #176]
0x0000000000401ce0:  8b000020      add x0, x1, x0
0x0000000000401ce4:  bd400001      ldr s1, [x0]
0x0000000000401ce8:  f94057e0      ldr x0, [sp, #168]
0x0000000000401cec:  f9400401      ldr x1, [x0, #8]
0x0000000000401cf0:  b9804fe0      ldrsw x0, [sp, #76]
0x0000000000401cf4:  d37ef400      lsl x0, x0, #2
0x0000000000401cf8:  8b000020      add x0, x1, x0
0x0000000000401cfc:  bd400000      ldr s0, [x0]
0x0000000000401d00:  b9804fe0      ldrsw x0, [sp, #76]
0x0000000000401d04:  d37ef400      lsl x0, x0, #2
0x0000000000401d08:  f9405be1      ldr x1, [sp, #176]
0x0000000000401d0c:  8b000020      add x0, x1, x0
0x0000000000401d10:  1e202820      fadd s0, s1, s0
0x0000000000401d14:  bd000000      str s0, [x0]
0x0000000000401d18:  b9404fe0      ldr w0, [sp, #76]
0x0000000000401d1c:  11000400      add w0, w0, #0x1 (1)
0x0000000000401d20:  b9004fe0      str w0, [sp, #76]
0x0000000000401d24:  b9404fe1      ldr w1, [sp, #76]
0x0000000000401d28:  b94053e0      ldr w0, [sp, #80]
0x0000000000401d2c:  6b00003f      cmp w1, w0
0x0000000000401d30:  54fffd2b      b.lt #-0x5c (addr 0x401cd4)

----------------
IN: forward
0x0000000000401d34:  f9404be0      ldr x0, [sp, #144]
0x0000000000401d38:  91000400      add x0, x0, #0x1 (1)
0x0000000000401d3c:  f9004be0      str x0, [sp, #144]
0x0000000000401d40:  f9404fe0      ldr x0, [sp, #152]
0x0000000000401d44:  b9400800      ldr w0, [x0, #8]
0x0000000000401d48:  93407c00      sxtw x0, w0
0x0000000000401d4c:  f9404be1      ldr x1, [sp, #144]
0x0000000000401d50:  eb00003f      cmp x1, x0
0x0000000000401d54:  54ffb823      b.lo #-0x8fc (addr 0x401458)

----------------
IN: forward
0x0000000000401d58:  f94053e0      ldr x0, [sp, #160]
0x0000000000401d5c:  f9402800      ldr x0, [x0, #80]
0x0000000000401d60:  b94053e3      ldr w3, [sp, #80]
0x0000000000401d64:  aa0003e2      mov x2, x0
0x0000000000401d68:  f9405be1      ldr x1, [sp, #176]
0x0000000000401d6c:  f9405be0      ldr x0, [sp, #176]
0x0000000000401d70:  97fffca1      bl #-0xd7c (addr 0x400ff4)

----------------
IN: forward
0x0000000000401d74:  f94057e0      ldr x0, [sp, #168]
0x0000000000401d78:  f9402405      ldr x5, [x0, #72]
0x0000000000401d7c:  f94053e0      ldr x0, [sp, #160]
0x0000000000401d80:  f9402c01      ldr x1, [x0, #88]
0x0000000000401d84:  f9404fe0      ldr x0, [sp, #152]
0x0000000000401d88:  b9400002      ldr w2, [x0]
0x0000000000401d8c:  f9404fe0      ldr x0, [sp, #152]
0x0000000000401d90:  b9401400      ldr w0, [x0, #20]
0x0000000000401d94:  2a0003e4      mov w4, w0
0x0000000000401d98:  2a0203e3      mov w3, w2
0x0000000000401d9c:  aa0103e2      mov x2, x1
0x0000000000401da0:  f9405be1      ldr x1, [sp, #176]
0x0000000000401da4:  aa0503e0      mov x0, x5
0x0000000000401da8:  97fffd3b      bl #-0xb14 (addr 0x401294)

----------------
IN: forward
0x0000000000401dac:  f94057e0      ldr x0, [sp, #168]
0x0000000000401db0:  f9402400      ldr x0, [x0, #72]
0x0000000000401db4:  a8cf7bfd      ldp x29, x30, [sp], #240
0x0000000000401db8:  d65f03c0      ret

----------------
IN: generate
0x00000000004030ec:  f9003be0      str x0, [sp, #112]
0x00000000004030f0:  b9404be0      ldr w0, [sp, #72]
0x00000000004030f4:  51000400      sub w0, w0, #0x1 (1)
0x00000000004030f8:  b94057e1      ldr w1, [sp, #84]
0x00000000004030fc:  6b00003f      cmp w1, w0
0x0000000000403100:  5400012a      b.ge #+0x24 (addr 0x403124)

----------------
IN: generate
0x0000000000403124:  f9403be1      ldr x1, [sp, #112]
0x0000000000403128:  f94017e0      ldr x0, [sp, #40]
0x000000000040312c:  97ffff3d      bl #-0x30c (addr 0x402e20)

----------------
IN: sample
0x0000000000402e20:  a9bd7bfd      stp x29, x30, [sp, #-48]!
0x0000000000402e24:  910003fd      mov x29, sp
0x0000000000402e28:  f9000fe0      str x0, [sp, #24]
0x0000000000402e2c:  f9000be1      str x1, [sp, #16]
0x0000000000402e30:  f9400fe0      ldr x0, [sp, #24]
0x0000000000402e34:  bd401000      ldr s0, [x0, #16]
0x0000000000402e38:  1e202008      fcmp s0, #0.0
0x0000000000402e3c:  54000101      b.ne #+0x20 (addr 0x402e5c)

----------------
IN: sample
0x0000000000402e5c:  b9002bff      str wzr, [sp, #40]
0x0000000000402e60:  14000011      b #+0x44 (addr 0x402ea4)

----------------
IN: sample
0x0000000000402ea4:  f9400fe0      ldr x0, [sp, #24]
0x0000000000402ea8:  b9400000      ldr w0, [x0]
0x0000000000402eac:  b9402be1      ldr w1, [sp, #40]
0x0000000000402eb0:  6b00003f      cmp w1, w0
0x0000000000402eb4:  54fffd8b      b.lt #-0x50 (addr 0x402e64)

----------------
IN: sample
0x0000000000402e64:  b9802be0      ldrsw x0, [sp, #40]
0x0000000000402e68:  d37ef400      lsl x0, x0, #2
0x0000000000402e6c:  f9400be1      ldr x1, [sp, #16]
0x0000000000402e70:  8b000020      add x0, x1, x0
0x0000000000402e74:  bd400001      ldr s1, [x0]
0x0000000000402e78:  f9400fe0      ldr x0, [sp, #24]
0x0000000000402e7c:  bd401000      ldr s0, [x0, #16]
0x0000000000402e80:  b9802be0      ldrsw x0, [sp, #40]
0x0000000000402e84:  d37ef400      lsl x0, x0, #2
0x0000000000402e88:  f9400be1      ldr x1, [sp, #16]
0x0000000000402e8c:  8b000020      add x0, x1, x0
0x0000000000402e90:  1e201820      fdiv s0, s1, s0
0x0000000000402e94:  bd000000      str s0, [x0]
0x0000000000402e98:  b9402be0      ldr w0, [sp, #40]
0x0000000000402e9c:  11000400      add w0, w0, #0x1 (1)
0x0000000000402ea0:  b9002be0      str w0, [sp, #40]
0x0000000000402ea4:  f9400fe0      ldr x0, [sp, #24]
0x0000000000402ea8:  b9400000      ldr w0, [x0]
0x0000000000402eac:  b9402be1      ldr w1, [sp, #40]
0x0000000000402eb0:  6b00003f      cmp w1, w0
0x0000000000402eb4:  54fffd8b      b.lt #-0x50 (addr 0x402e64)

----------------
IN: sample
0x0000000000402eb8:  f9400fe0      ldr x0, [sp, #24]
0x0000000000402ebc:  b9400000      ldr w0, [x0]
0x0000000000402ec0:  2a0003e1      mov w1, w0
0x0000000000402ec4:  f9400be0      ldr x0, [sp, #16]
0x0000000000402ec8:  97fff899      bl #-0x1d9c (addr 0x40112c)

----------------
IN: softmax
0x0000000000401158:  b98043e0      ldrsw x0, [sp, #64]
0x000000000040115c:  d37ef400      lsl x0, x0, #2
0x0000000000401160:  f94017e1      ldr x1, [sp, #40]
0x0000000000401164:  8b000020      add x0, x1, x0
0x0000000000401168:  bd400000      ldr s0, [x0]
0x000000000040116c:  bd403fe1      ldr s1, [sp, #60]
0x0000000000401170:  1e202030      fcmpe s1, s0
0x0000000000401174:  54000044      b.mi #+0x8 (addr 0x40117c)

----------------
IN: softmax
0x000000000040117c:  b98043e0      ldrsw x0, [sp, #64]
0x0000000000401180:  d37ef400      lsl x0, x0, #2
0x0000000000401184:  f94017e1      ldr x1, [sp, #40]
0x0000000000401188:  8b000020      add x0, x1, x0
0x000000000040118c:  bd400000      ldr s0, [x0]
0x0000000000401190:  bd003fe0      str s0, [sp, #60]
0x0000000000401194:  b94043e0      ldr w0, [sp, #64]
0x0000000000401198:  11000400      add w0, w0, #0x1 (1)
0x000000000040119c:  b90043e0      str w0, [sp, #64]
0x00000000004011a0:  b94043e1      ldr w1, [sp, #64]
0x00000000004011a4:  b94027e0      ldr w0, [sp, #36]
0x00000000004011a8:  6b00003f      cmp w1, w0
0x00000000004011ac:  54fffd6b      b.lt #-0x54 (addr 0x401158)

----------------
IN: softmax
0x0000000000401178:  14000007      b #+0x1c (addr 0x401194)

----------------
IN: softmax
0x0000000000401194:  b94043e0      ldr w0, [sp, #64]
0x0000000000401198:  11000400      add w0, w0, #0x1 (1)
0x000000000040119c:  b90043e0      str w0, [sp, #64]
0x00000000004011a0:  b94043e1      ldr w1, [sp, #64]
0x00000000004011a4:  b94027e0      ldr w0, [sp, #36]
0x00000000004011a8:  6b00003f      cmp w1, w0
0x00000000004011ac:  54fffd6b      b.lt #-0x54 (addr 0x401158)

----------------
IN: sample
0x0000000000402ecc:  f9400fe0      ldr x0, [sp, #24]
0x0000000000402ed0:  91006000      add x0, x0, #0x18 (24)
0x0000000000402ed4:  97ffffc6      bl #-0xe8 (addr 0x402dec)

----------------
IN: random_f32
0x0000000000402dec:  a9be7bfd      stp x29, x30, [sp, #-32]!
0x0000000000402df0:  910003fd      mov x29, sp
0x0000000000402df4:  f9000fe0      str x0, [sp, #24]
0x0000000000402df8:  f9400fe0      ldr x0, [sp, #24]
0x0000000000402dfc:  97ffffd8      bl #-0xa0 (addr 0x402d5c)

----------------
IN: random_u32
0x0000000000402d5c:  d10043ff      sub sp, sp, #0x10 (16)
0x0000000000402d60:  f90007e0      str x0, [sp, #8]
0x0000000000402d64:  f94007e0      ldr x0, [sp, #8]
0x0000000000402d68:  f9400001      ldr x1, [x0]
0x0000000000402d6c:  f94007e0      ldr x0, [sp, #8]
0x0000000000402d70:  f9400000      ldr x0, [x0]
0x0000000000402d74:  d34cfc00      lsr x0, x0, #12
0x0000000000402d78:  ca000021      eor x1, x1, x0
0x0000000000402d7c:  f94007e0      ldr x0, [sp, #8]
0x0000000000402d80:  f9000001      str x1, [x0]
0x0000000000402d84:  f94007e0      ldr x0, [sp, #8]
0x0000000000402d88:  f9400001      ldr x1, [x0]
0x0000000000402d8c:  f94007e0      ldr x0, [sp, #8]
0x0000000000402d90:  f9400000      ldr x0, [x0]
0x0000000000402d94:  d3679800      lsl x0, x0, #25
0x0000000000402d98:  ca000021      eor x1, x1, x0
0x0000000000402d9c:  f94007e0      ldr x0, [sp, #8]
0x0000000000402da0:  f9000001      str x1, [x0]
0x0000000000402da4:  f94007e0      ldr x0, [sp, #8]
0x0000000000402da8:  f9400001      ldr x1, [x0]
0x0000000000402dac:  f94007e0      ldr x0, [sp, #8]
0x0000000000402db0:  f9400000      ldr x0, [x0]
0x0000000000402db4:  d35bfc00      lsr x0, x0, #27
0x0000000000402db8:  ca000021      eor x1, x1, x0
0x0000000000402dbc:  f94007e0      ldr x0, [sp, #8]
0x0000000000402dc0:  f9000001      str x1, [x0]
0x0000000000402dc4:  f94007e0      ldr x0, [sp, #8]
0x0000000000402dc8:  f9400001      ldr x1, [x0]
0x0000000000402dcc:  d29ba3a0      mov x0, #0xdd1d
0x0000000000402dd0:  f2a9ed80      movk x0, #0x4f6c, lsl #16
0x0000000000402dd4:  f2de9220      movk x0, #0xf491, lsl #32
0x0000000000402dd8:  f2e4a8a0      movk x0, #0x2545, lsl #48
0x0000000000402ddc:  9b007c20      mul x0, x1, x0
0x0000000000402de0:  d360fc00      lsr x0, x0, #32
0x0000000000402de4:  910043ff      add sp, sp, #0x10 (16)
0x0000000000402de8:  d65f03c0      ret

----------------
IN: random_f32
0x0000000000402e00:  1e270000      fmov s0, w0
0x0000000000402e04:  2f380400      ushr v0.2s, v0.2s, #8
0x0000000000402e08:  7e21d800      ucvtf s0, s0
0x0000000000402e0c:  52a97000      mov w0, #0x4b800000
0x0000000000402e10:  1e270001      fmov s1, w0
0x0000000000402e14:  1e211800      fdiv s0, s0, s1
0x0000000000402e18:  a8c27bfd      ldp x29, x30, [sp], #32
0x0000000000402e1c:  d65f03c0      ret

----------------
IN: sample
0x0000000000402ed8:  bd002fe0      str s0, [sp, #44]
0x0000000000402edc:  f9400fe0      ldr x0, [sp, #24]
0x0000000000402ee0:  bd401400      ldr s0, [x0, #20]
0x0000000000402ee4:  1e202018      fcmpe s0, #0.0
0x0000000000402ee8:  540000e9      b.ls #+0x1c (addr 0x402f04)

----------------
IN: sample
0x0000000000402eec:  f9400fe0      ldr x0, [sp, #24]
0x0000000000402ef0:  bd401401      ldr s1, [x0, #20]
0x0000000000402ef4:  1e2e1000      fmov s0, #0x70 (1.0000)
0x0000000000402ef8:  1e202030      fcmpe s1, s0
0x0000000000402efc:  5400004a      b.ge #+0x8 (addr 0x402f04)

----------------
IN: sample
0x0000000000402f00:  14000009      b #+0x24 (addr 0x402f24)

----------------
IN: sample
0x0000000000402f24:  f9400fe0      ldr x0, [sp, #24]
0x0000000000402f28:  b9400001      ldr w1, [x0]
0x0000000000402f2c:  f9400fe0      ldr x0, [sp, #24]
0x0000000000402f30:  bd401400      ldr s0, [x0, #20]
0x0000000000402f34:  f9400fe0      ldr x0, [sp, #24]
0x0000000000402f38:  f9400400      ldr x0, [x0, #8]
0x0000000000402f3c:  bd402fe1      ldr s1, [sp, #44]
0x0000000000402f40:  aa0003e2      mov x2, x0
0x0000000000402f44:  f9400be0      ldr x0, [sp, #16]
0x0000000000402f48:  97fffede      bl #-0x488 (addr 0x402ac0)

----------------
IN: sample_topp
0x0000000000402ac0:  a9ba7bfd      stp x29, x30, [sp, #-96]!
0x0000000000402ac4:  910003fd      mov x29, sp
0x0000000000402ac8:  f90017e0      str x0, [sp, #40]
0x0000000000402acc:  b90027e1      str w1, [sp, #36]
0x0000000000402ad0:  bd0023e0      str s0, [sp, #32]
0x0000000000402ad4:  f9000fe2      str x2, [sp, #24]
0x0000000000402ad8:  bd0017e1      str s1, [sp, #20]
0x0000000000402adc:  b9003fff      str wzr, [sp, #60]
0x0000000000402ae0:  1e2e1001      fmov s1, #0x70 (1.0000)
0x0000000000402ae4:  bd4023e0      ldr s0, [sp, #32]
0x0000000000402ae8:  1e203821      fsub s1, s1, s0
0x0000000000402aec:  b94027e0      ldr w0, [sp, #36]
0x0000000000402af0:  51000400      sub w0, w0, #0x1 (1)
0x0000000000402af4:  1e220000      scvtf s0, w0
0x0000000000402af8:  1e201820      fdiv s0, s1, s0
0x0000000000402afc:  bd005be0      str s0, [sp, #88]
0x0000000000402b00:  b90043ff      str wzr, [sp, #64]
0x0000000000402b04:  14000020      b #+0x80 (addr 0x402b84)

----------------
IN: sample_topp
0x0000000000402b84:  b94043e1      ldr w1, [sp, #64]
0x0000000000402b88:  b94027e0      ldr w0, [sp, #36]
0x0000000000402b8c:  6b00003f      cmp w1, w0
0x0000000000402b90:  54fffbcb      b.lt #-0x88 (addr 0x402b08)

----------------
IN: sample_topp
0x0000000000402b08:  b98043e0      ldrsw x0, [sp, #64]
0x0000000000402b0c:  d37ef400      lsl x0, x0, #2
0x0000000000402b10:  f94017e1      ldr x1, [sp, #40]
0x0000000000402b14:  8b000020      add x0, x1, x0
0x0000000000402b18:  bd400000      ldr s0, [x0]
0x0000000000402b1c:  bd405be1      ldr s1, [sp, #88]
0x0000000000402b20:  1e202030      fcmpe s1, s0
0x0000000000402b24:  54000049      b.ls #+0x8 (addr 0x402b2c)

----------------
IN: sample_topp
0x0000000000402b28:  14000014      b #+0x50 (addr 0x402b78)

----------------
IN: sample_topp
0x0000000000402b78:  b94043e0      ldr w0, [sp, #64]
0x0000000000402b7c:  11000400      add w0, w0, #0x1 (1)
0x0000000000402b80:  b90043e0      str w0, [sp, #64]
0x0000000000402b84:  b94043e1      ldr w1, [sp, #64]
0x0000000000402b88:  b94027e0      ldr w0, [sp, #36]
0x0000000000402b8c:  6b00003f      cmp w1, w0
0x0000000000402b90:  54fffbcb      b.lt #-0x88 (addr 0x402b08)

----------------
IN: sample_topp
0x0000000000402b2c:  b9803fe0      ldrsw x0, [sp, #60]
0x0000000000402b30:  d37df000      lsl x0, x0, #3
0x0000000000402b34:  f9400fe1      ldr x1, [sp, #24]
0x0000000000402b38:  8b000020      add x0, x1, x0
0x0000000000402b3c:  b94043e1      ldr w1, [sp, #64]
0x0000000000402b40:  b9000401      str w1, [x0, #4]
0x0000000000402b44:  b98043e0      ldrsw x0, [sp, #64]
0x0000000000402b48:  d37ef400      lsl x0, x0, #2
0x0000000000402b4c:  f94017e1      ldr x1, [sp, #40]
0x0000000000402b50:  8b000021      add x1, x1, x0
0x0000000000402b54:  b9803fe0      ldrsw x0, [sp, #60]
0x0000000000402b58:  d37df000      lsl x0, x0, #3
0x0000000000402b5c:  f9400fe2      ldr x2, [sp, #24]
0x0000000000402b60:  8b000040      add x0, x2, x0
0x0000000000402b64:  bd400020      ldr s0, [x1]
0x0000000000402b68:  bd000000      str s0, [x0]
0x0000000000402b6c:  b9403fe0      ldr w0, [sp, #60]
0x0000000000402b70:  11000400      add w0, w0, #0x1 (1)
0x0000000000402b74:  b9003fe0      str w0, [sp, #60]
0x0000000000402b78:  b94043e0      ldr w0, [sp, #64]
0x0000000000402b7c:  11000400      add w0, w0, #0x1 (1)
0x0000000000402b80:  b90043e0      str w0, [sp, #64]
0x0000000000402b84:  b94043e1      ldr w1, [sp, #64]
0x0000000000402b88:  b94027e0      ldr w0, [sp, #36]
0x0000000000402b8c:  6b00003f      cmp w1, w0
0x0000000000402b90:  54fffbcb      b.lt #-0x88 (addr 0x402b08)

----------------
IN: sample_topp
0x0000000000402b94:  b9803fe1      ldrsw x1, [sp, #60]
0x0000000000402b98:  90000000      adrp x0, #+0x0 (addr 0x402000)
0x0000000000402b9c:  91294003      add x3, x0, #0xa50 (2640)
0x0000000000402ba0:  d2800102      mov x2, #0x8
0x0000000000402ba4:  f9400fe0      ldr x0, [sp, #24]
0x0000000000402ba8:  94001b8e      bl #+0x6e38 (addr 0x4099e0)

----------------
IN: qsort_r
0x00000000004097e0:  93407c00      sxtw x0, w0
0x00000000004097e4:  912b0294      add x20, x20, #0xac0 (2752)
0x00000000004097e8:  9ac00a60      udiv x0, x19, x0
0x00000000004097ec:  f9400681      ldr x1, [x20, #8]
0x00000000004097f0:  eb01001f      cmp x0, x1
0x00000000004097f4:  54000948      b.hi #+0x128 (addr 0x40991c)

----------------
IN: _int_malloc
0x0000000000427b98:  f10fff3f      cmp x25, #0x3ff (1023)
0x0000000000427b9c:  54000049      b.ls #+0x8 (addr 0x427ba4)

----------------
IN: qsort_r
0x00000000004099bc:  f2400adf      tst x22, #0x7
0x00000000004099c0:  54ffff41      b.ne #-0x18 (addr 0x4099a8)

----------------
IN: qsort_r
0x00000000004099c4:  d2800020      mov x0, #0x1
0x00000000004099c8:  f9003fa0      str x0, [x29, #120]
0x00000000004099cc:  17ffff6c      b #-0x250 (addr 0x40977c)

----------------
IN: msort_with_tmp.part.0
0x00000000004094f0:  54000148      b.hi #+0x28 (addr 0x409518)

----------------
IN: msort_with_tmp.part.0
0x00000000004094f4:  b40001c0      cbz x0, #+0x38 (addr 0x40952c)

----------------
IN: msort_with_tmp.part.0
0x00000000004094f8:  b5fffab3      cbnz x19, #-0xac (addr 0x40944c)

----------------
IN: msort_with_tmp.part.0
0x000000000040944c:  f9403ffa      ldr x26, [sp, #120]
0x0000000000409450:  14000007      b #+0x1c (addr 0x40946c)

----------------
IN: msort_with_tmp.part.0
0x000000000040946c:  aa1703e2      mov x2, x23
0x0000000000409470:  aa1b03e1      mov x1, x27
0x0000000000409474:  aa1a03e0      mov x0, x26
0x0000000000409478:  d63f0300      blr x24

----------------
IN: compare
0x0000000000402a50:  d10083ff      sub sp, sp, #0x20 (32)
0x0000000000402a54:  f90007e0      str x0, [sp, #8]
0x0000000000402a58:  f90003e1      str x1, [sp]
0x0000000000402a5c:  f94007e0      ldr x0, [sp, #8]
0x0000000000402a60:  f9000be0      str x0, [sp, #16]
0x0000000000402a64:  f94003e0      ldr x0, [sp]
0x0000000000402a68:  f9000fe0      str x0, [sp, #24]
0x0000000000402a6c:  f9400be0      ldr x0, [sp, #16]
0x0000000000402a70:  bd400001      ldr s1, [x0]
0x0000000000402a74:  f9400fe0      ldr x0, [sp, #24]
0x0000000000402a78:  bd400000      ldr s0, [x0]
0x0000000000402a7c:  1e202030      fcmpe s1, s0
0x0000000000402a80:  5400004c      b.gt #+0x8 (addr 0x402a88)

----------------
IN: compare
0x0000000000402a84:  14000003      b #+0xc (addr 0x402a90)

----------------
IN: compare
0x0000000000402a90:  f9400be0      ldr x0, [sp, #16]
0x0000000000402a94:  bd400001      ldr s1, [x0]
0x0000000000402a98:  f9400fe0      ldr x0, [sp, #24]
0x0000000000402a9c:  bd400000      ldr s0, [x0]
0x0000000000402aa0:  1e202030      fcmpe s1, s0
0x0000000000402aa4:  54000044      b.mi #+0x8 (addr 0x402aac)

----------------
IN: compare
0x0000000000402aac:  52800020      mov w0, #0x1
0x0000000000402ab0:  14000002      b #+0x8 (addr 0x402ab8)

----------------
IN: compare
0x0000000000402ab8:  910083ff      add sp, sp, #0x20 (32)
0x0000000000402abc:  d65f03c0      ret

----------------
IN: msort_with_tmp.part.0
0x000000000040947c:  7100001f      cmp w0, #0x0 (0)
0x0000000000409480:  54fffeac      b.gt #-0x2c (addr 0x409454)

----------------
IN: msort_with_tmp.part.0
0x0000000000409454:  f8408760      ldr x0, [x27], #8
0x0000000000409458:  d1000673      sub x19, x19, #0x1 (1)
0x000000000040945c:  f8008780      str x0, [x28], #8
0x0000000000409460:  f100029f      cmp x20, #0x0 (0)
0x0000000000409464:  fa401a64      ccmp x19, #0, #nZcv, ne
0x0000000000409468:  54001000      b.eq #+0x200 (addr 0x409668)

----------------
IN: msort_with_tmp.part.0
0x0000000000409444:  54000268      b.hi #+0x4c (addr 0x409490)

----------------
IN: msort_with_tmp.part.0
0x0000000000409448:  b4000780      cbz x0, #+0xf0 (addr 0x409538)

----------------
IN: compare
0x0000000000402a88:  12800000      mov w0, #0xffffffff
0x0000000000402a8c:  1400000b      b #+0x2c (addr 0x402ab8)

----------------
IN: msort_with_tmp.part.0
0x0000000000409484:  d1000694      sub x20, x20, #0x1 (1)
0x0000000000409488:  f8408740      ldr x0, [x26], #8
0x000000000040948c:  17fffff4      b #-0x30 (addr 0x40945c)

----------------
IN: msort_with_tmp.part.0
0x000000000040945c:  f8008780      str x0, [x28], #8
0x0000000000409460:  f100029f      cmp x20, #0x0 (0)
0x0000000000409464:  fa401a64      ccmp x19, #0, #nZcv, ne
0x0000000000409468:  54001000      b.eq #+0x200 (addr 0x409668)

----------------
IN: _int_free
0x0000000000426554:  aa1903e0      mov x0, x25
0x0000000000426558:  8b180294      add x20, x20, x24
0x000000000042655c:  97fffa41      bl #-0x16fc (addr 0x424e60)

----------------
IN: unlink_chunk.constprop.0
0x0000000000424ee0:  a8c17bfd      ldp x29, x30, [sp], #16
0x0000000000424ee4:  d65f03c0      ret

----------------
IN: _int_free
0x0000000000426560:  17ffff09      b #-0x3dc (addr 0x426184)

----------------
IN: _int_free
0x0000000000426184:  f9403ac1      ldr x1, [x22, #112]
0x0000000000426188:  910182c0      add x0, x22, #0x60 (96)
0x000000000042618c:  f9400c22      ldr x2, [x1, #24]
0x0000000000426190:  eb00005f      cmp x2, x0
0x0000000000426194:  54002c01      b.ne #+0x580 (addr 0x426714)

----------------
IN: sample_topp
0x0000000000402bac:  b90047ff      str wzr, [sp, #68]
0x0000000000402bb0:  b9403fe0      ldr w0, [sp, #60]
0x0000000000402bb4:  51000400      sub w0, w0, #0x1 (1)
0x0000000000402bb8:  b9004be0      str w0, [sp, #72]
0x0000000000402bbc:  b9004fff      str wzr, [sp, #76]
0x0000000000402bc0:  14000014      b #+0x50 (addr 0x402c10)

----------------
IN: sample_topp
0x0000000000402c10:  b9404fe1      ldr w1, [sp, #76]
0x0000000000402c14:  b9403fe0      ldr w0, [sp, #60]
0x0000000000402c18:  6b00003f      cmp w1, w0
0x0000000000402c1c:  54fffd4b      b.lt #-0x58 (addr 0x402bc4)

----------------
IN: sample_topp
0x0000000000402bc4:  b9804fe0      ldrsw x0, [sp, #76]
0x0000000000402bc8:  d37df000      lsl x0, x0, #3
0x0000000000402bcc:  f9400fe1      ldr x1, [sp, #24]
0x0000000000402bd0:  8b000020      add x0, x1, x0
0x0000000000402bd4:  bd400000      ldr s0, [x0]
0x0000000000402bd8:  bd4047e1      ldr s1, [sp, #68]
0x0000000000402bdc:  1e202820      fadd s0, s1, s0
0x0000000000402be0:  bd0047e0      str s0, [sp, #68]
0x0000000000402be4:  bd4047e1      ldr s1, [sp, #68]
0x0000000000402be8:  bd4023e0      ldr s0, [sp, #32]
0x0000000000402bec:  1e202030      fcmpe s1, s0
0x0000000000402bf0:  5400004c      b.gt #+0x8 (addr 0x402bf8)

----------------
IN: sample_topp
0x0000000000402bf4:  14000004      b #+0x10 (addr 0x402c04)

----------------
IN: sample_topp
0x0000000000402c04:  b9404fe0      ldr w0, [sp, #76]
0x0000000000402c08:  11000400      add w0, w0, #0x1 (1)
0x0000000000402c0c:  b9004fe0      str w0, [sp, #76]
0x0000000000402c10:  b9404fe1      ldr w1, [sp, #76]
0x0000000000402c14:  b9403fe0      ldr w0, [sp, #60]
0x0000000000402c18:  6b00003f      cmp w1, w0
0x0000000000402c1c:  54fffd4b      b.lt #-0x58 (addr 0x402bc4)

----------------
IN: sample_topp
0x0000000000402bf8:  b9404fe0      ldr w0, [sp, #76]
0x0000000000402bfc:  b9004be0      str w0, [sp, #72]
0x0000000000402c00:  14000008      b #+0x20 (addr 0x402c20)

----------------
IN: sample_topp
0x0000000000402c20:  bd4017e1      ldr s1, [sp, #20]
0x0000000000402c24:  bd4047e0      ldr s0, [sp, #68]
0x0000000000402c28:  1e200820      fmul s0, s1, s0
0x0000000000402c2c:  bd005fe0      str s0, [sp, #92]
0x0000000000402c30:  b90053ff      str wzr, [sp, #80]
0x0000000000402c34:  b90057ff      str wzr, [sp, #84]
0x0000000000402c38:  14000017      b #+0x5c (addr 0x402c94)

----------------
IN: sample_topp
0x0000000000402c94:  b94057e1      ldr w1, [sp, #84]
0x0000000000402c98:  b9404be0      ldr w0, [sp, #72]
0x0000000000402c9c:  6b00003f      cmp w1, w0
0x0000000000402ca0:  54fffced      b.le #-0x64 (addr 0x402c3c)

----------------
IN: sample_topp
0x0000000000402c3c:  b98057e0      ldrsw x0, [sp, #84]
0x0000000000402c40:  d37df000      lsl x0, x0, #3
0x0000000000402c44:  f9400fe1      ldr x1, [sp, #24]
0x0000000000402c48:  8b000020      add x0, x1, x0
0x0000000000402c4c:  bd400000      ldr s0, [x0]
0x0000000000402c50:  bd4053e1      ldr s1, [sp, #80]
0x0000000000402c54:  1e202820      fadd s0, s1, s0
0x0000000000402c58:  bd0053e0      str s0, [sp, #80]
0x0000000000402c5c:  bd405fe1      ldr s1, [sp, #92]
0x0000000000402c60:  bd4053e0      ldr s0, [sp, #80]
0x0000000000402c64:  1e202030      fcmpe s1, s0
0x0000000000402c68:  54000044      b.mi #+0x8 (addr 0x402c70)

----------------
IN: sample_topp
0x0000000000402c70:  b98057e0      ldrsw x0, [sp, #84]
0x0000000000402c74:  d37df000      lsl x0, x0, #3
0x0000000000402c78:  f9400fe1      ldr x1, [sp, #24]
0x0000000000402c7c:  8b000020      add x0, x1, x0
0x0000000000402c80:  b9400400      ldr w0, [x0, #4]
0x0000000000402c84:  1400000d      b #+0x34 (addr 0x402cb8)

----------------
IN: sample_topp
0x0000000000402cb8:  a8c67bfd      ldp x29, x30, [sp], #96
0x0000000000402cbc:  d65f03c0      ret

----------------
IN: sample
0x0000000000402f4c:  b90027e0      str w0, [sp, #36]
0x0000000000402f50:  b94027e0      ldr w0, [sp, #36]
0x0000000000402f54:  a8c37bfd      ldp x29, x30, [sp], #48
0x0000000000402f58:  d65f03c0      ret

----------------
IN: generate
0x0000000000403130:  b9004fe0      str w0, [sp, #76]
0x0000000000403134:  b94057e0      ldr w0, [sp, #84]
0x0000000000403138:  11000400      add w0, w0, #0x1 (1)
0x000000000040313c:  b90057e0      str w0, [sp, #84]
0x0000000000403140:  b9404fe0      ldr w0, [sp, #76]
0x0000000000403144:  7100041f      cmp w0, #0x1 (1)
0x0000000000403148:  54000300      b.eq #+0x60 (addr 0x4031a8)

----------------
IN: generate
0x000000000040314c:  b9404fe2      ldr w2, [sp, #76]
0x0000000000403150:  b94053e1      ldr w1, [sp, #80]
0x0000000000403154:  f9401be0      ldr x0, [sp, #48]
0x0000000000403158:  97fffc0b      bl #-0xfd4 (addr 0x402184)

----------------
IN: decode
0x0000000000402184:  a9bc7bfd      stp x29, x30, [sp, #-64]!
0x0000000000402188:  910003fd      mov x29, sp
0x000000000040218c:  f9000fe0      str x0, [sp, #24]
0x0000000000402190:  b90017e1      str w1, [sp, #20]
0x0000000000402194:  b90013e2      str w2, [sp, #16]
0x0000000000402198:  90000520      adrp x0, #+0xa4000 (addr 0x4a6000)
0x000000000040219c:  f945dc00      ldr x0, [x0, #3000]
0x00000000004021a0:  f9400001      ldr x1, [x0]
0x00000000004021a4:  f9001fe1      str x1, [sp, #56]
0x00000000004021a8:  d2800001      mov x1, #0x0
0x00000000004021ac:  f9400fe0      ldr x0, [sp, #24]
0x00000000004021b0:  f9400001      ldr x1, [x0]
0x00000000004021b4:  b98013e0      ldrsw x0, [sp, #16]
0x00000000004021b8:  d37df000      lsl x0, x0, #3
0x00000000004021bc:  8b000020      add x0, x1, x0
0x00000000004021c0:  f9400000      ldr x0, [x0]
0x00000000004021c4:  f9001be0      str x0, [sp, #48]
0x00000000004021c8:  b94017e0      ldr w0, [sp, #20]
0x00000000004021cc:  7100041f      cmp w0, #0x1 (1)
0x00000000004021d0:  54000101      b.ne #+0x20 (addr 0x4021f0)

----------------
IN: decode
0x00000000004021d4:  f9401be0      ldr x0, [sp, #48]
0x00000000004021d8:  39400000      ldrb w0, [x0]
0x00000000004021dc:  7100801f      cmp w0, #0x20 (32)
0x00000000004021e0:  54000081      b.ne #+0x10 (addr 0x4021f0)

----------------
IN: decode
0x00000000004021e4:  f9401be0      ldr x0, [sp, #48]
0x00000000004021e8:  91000400      add x0, x0, #0x1 (1)
0x00000000004021ec:  f9001be0      str x0, [sp, #48]
0x00000000004021f0:  9100bfe0      add x0, sp, #0x2f (47)
0x00000000004021f4:  aa0003e2      mov x2, x0
0x00000000004021f8:  b0000340      adrp x0, #+0x69000 (addr 0x46b000)
0x00000000004021fc:  911e4001      add x1, x0, #0x790 (1936)
0x0000000000402200:  f9401be0      ldr x0, [sp, #48]
0x0000000000402204:  940030a7      bl #+0xc29c (addr 0x40e4a0)

----------------
IN: __isoc99_sscanf
0x000000000040e4a0:  d10883ff      sub sp, sp, #0x220 (544)
0x000000000040e4a4:  a9007bfd      stp x29, x30, [sp]
0x000000000040e4a8:  910003fd      mov x29, sp
0x000000000040e4ac:  a90153f3      stp x19, x20, [sp, #16]
0x000000000040e4b0:  900004d4      adrp x20, #+0x98000 (addr 0x4a6000)
0x000000000040e4b4:  9101e3f3      add x19, sp, #0x78 (120)
0x000000000040e4b8:  a91f0fe2      stp x2, x3, [sp, #496]
0x000000000040e4bc:  910803e2      add x2, sp, #0x200 (512)
0x000000000040e4c0:  d2800003      mov x3, #0x0
0x000000000040e4c4:  f945de88      ldr x8, [x20, #3000]
0x000000000040e4c8:  a9025bf5      stp x21, x22, [sp, #32]
0x000000000040e4cc:  aa0003f6      mov x22, x0
0x000000000040e4d0:  3d805fe0      str q0, [sp, #368]
0x000000000040e4d4:  aa0103f5      mov x21, x1
0x000000000040e4d8:  aa1303e0      mov x0, x19
0x000000000040e4dc:  3d8063e1      str q1, [sp, #384]
0x000000000040e4e0:  52900001      mov w1, #0x8000
0x000000000040e4e4:  3d8067e2      str q2, [sp, #400]
0x000000000040e4e8:  3d806be3      str q3, [sp, #416]
0x000000000040e4ec:  3d806fe4      str q4, [sp, #432]
0x000000000040e4f0:  3d8073e5      str q5, [sp, #448]
0x000000000040e4f4:  3d8077e6      str q6, [sp, #464]
0x000000000040e4f8:  3d807be7      str q7, [sp, #480]
0x000000000040e4fc:  a9001444      stp x4, x5, [x2]
0x000000000040e500:  d2800004      mov x4, #0x0
0x000000000040e504:  a9011c46      stp x6, x7, [x2, #16]
0x000000000040e508:  12800002      mov w2, #0xffffffff
0x000000000040e50c:  f9400105      ldr x5, [x8]
0x000000000040e510:  f900b7e5      str x5, [sp, #360]
0x000000000040e514:  d2800005      mov x5, #0x0
0x000000000040e518:  f90083ff      str xzr, [sp, #256]
0x000000000040e51c:  94004e4e      bl #+0x13938 (addr 0x421e54)

----------------
IN: _IO_no_init
0x0000000000421ea4:  b900c002      str w2, [x0, #192]
0x0000000000421ea8:  37f80162      tbnz w2, #31, #+0x2c (addr 0x421ed4)

----------------
IN: _IO_no_init
0x0000000000421ed4:  92800001      mov x1, #0xffffffffffffffff
0x0000000000421ed8:  f9005001      str x1, [x0, #160]
0x0000000000421edc:  f900541f      str xzr, [x0, #168]
0x0000000000421ee0:  d65f03c0      ret

----------------
IN: __isoc99_sscanf
0x000000000040e520:  d00004c4      adrp x4, #+0x9a000 (addr 0x4a8000)
0x000000000040e524:  913b4084      add x4, x4, #0xed0 (3792)
0x000000000040e528:  aa1603e1      mov x1, x22
0x000000000040e52c:  aa1303e0      mov x0, x19
0x000000000040e530:  d2800003      mov x3, #0x0
0x000000000040e534:  d2800002      mov x2, #0x0
0x000000000040e538:  f900abe4      str x4, [sp, #336]
0x000000000040e53c:  9400539a      bl #+0x14e68 (addr 0x4233a4)

----------------
IN: _IO_str_init_static_internal
0x00000000004233a4:  a9bd7bfd      stp x29, x30, [sp, #-48]!
0x00000000004233a8:  910003fd      mov x29, sp
0x00000000004233ac:  a90153f3      stp x19, x20, [sp, #16]
0x00000000004233b0:  aa0003f4      mov x20, x0
0x00000000004233b4:  a9025bf5      stp x21, x22, [sp, #32]
0x00000000004233b8:  aa0103f5      mov x21, x1
0x00000000004233bc:  aa0303f6      mov x22, x3
0x00000000004233c0:  b50002c2      cbnz x2, #+0x58 (addr 0x423418)

----------------
IN: _IO_str_init_static_internal
0x00000000004233c4:  aa1503e0      mov x0, x21
0x00000000004233c8:  52800001      mov w1, #0x0
0x00000000004233cc:  940021ed      bl #+0x87b4 (addr 0x42bb80)

----------------
IN: __rawmemchr
0x000000000042bb80:  d503201f      nop
0x000000000042bb84:  34000061      cbz w1, #+0xc (addr 0x42bb90)

----------------
IN: __rawmemchr
0x000000000042bb90:  aa1e03ef      mov x15, x30
0x000000000042bb94:  aa0003ee      mov x14, x0
0x000000000042bb98:  97ff51d2      bl #-0x2b8b8 (addr 0x4002e0)

----------------
IN: 
0x00000000004002e0:  f0000530      adrp x16, #+0xa7000 (addr 0x4a7000)
0x00000000004002e4:  f9401211      ldr x17, [x16, #32]
0x00000000004002e8:  91008210      add x16, x16, #0x20 (32)
0x00000000004002ec:  d61f0220      br x17

----------------
IN: __rawmemchr
0x000000000042bb9c:  8b0001c0      add x0, x14, x0
0x000000000042bba0:  d65f01e0      ret x15

----------------
IN: _IO_str_init_static_internal
0x00000000004233d0:  aa0003f3      mov x19, x0
0x00000000004233d4:  aa1303e2      mov x2, x19
0x00000000004233d8:  aa1503e1      mov x1, x21
0x00000000004233dc:  aa1403e0      mov x0, x20
0x00000000004233e0:  52800003      mov w3, #0x0
0x00000000004233e4:  97fff8c7      bl #-0x1ce4 (addr 0x421700)

----------------
IN: _IO_str_init_static_internal
0x00000000004233e8:  a901d695      stp x21, x21, [x20, #24]
0x00000000004233ec:  f10002df      cmp x22, #0x0 (0)
0x00000000004233f0:  9a9512c0      csel x0, x22, x21, ne
0x00000000004233f4:  9a9312d6      csel x22, x22, x19, ne
0x00000000004233f8:  9a951273      csel x19, x19, x21, ne
0x00000000004233fc:  a900da95      stp x21, x22, [x20, #8]
0x0000000000423400:  a902ce80      stp x0, x19, [x20, #40]
0x0000000000423404:  f900729f      str xzr, [x20, #224]
0x0000000000423408:  a94153f3      ldp x19, x20, [sp, #16]
0x000000000042340c:  a9425bf5      ldp x21, x22, [sp, #32]
0x0000000000423410:  a8c37bfd      ldp x29, x30, [sp], #48
0x0000000000423414:  d65f03c0      ret

----------------
IN: __isoc99_sscanf
0x000000000040e540:  128005e4      mov w4, #0xffffffd0
0x000000000040e544:  12800fe3      mov w3, #0xffffff80
0x000000000040e548:  290e0fe4      stp w4, w3, [sp, #112]
0x000000000040e54c:  910163e4      add x4, sp, #0x58 (88)
0x000000000040e550:  9107c3e0      add x0, sp, #0x1f0 (496)
0x000000000040e554:  910883e1      add x1, sp, #0x220 (544)
0x000000000040e558:  a90587e1      stp x1, x1, [sp, #88]
0x000000000040e55c:  9100c3e2      add x2, sp, #0x30 (48)
0x000000000040e560:  aa1503e1      mov x1, x21
0x000000000040e564:  f90037e0      str x0, [sp, #104]
0x000000000040e568:  52800043      mov w3, #0x2
0x000000000040e56c:  aa1303e0      mov x0, x19
0x000000000040e570:  ad400480      ldp q0, q1, [x4]
0x000000000040e574:  ad000440      stp q0, q1, [x2]
0x000000000040e578:  9400004b      bl #+0x12c (addr 0x40e6a4)

----------------
IN: __vfscanf_internal
0x000000000040e6a4:  d11d03ff      sub sp, sp, #0x740 (1856)
0x000000000040e6a8:  900004c4      adrp x4, #+0x98000 (addr 0x4a6000)
0x000000000040e6ac:  f9477484      ldr x4, [x4, #3816]
0x000000000040e6b0:  900004c5      adrp x5, #+0x98000 (addr 0x4a6000)
0x000000000040e6b4:  a9017bfd      stp x29, x30, [sp, #16]
0x000000000040e6b8:  910043fd      add x29, sp, #0x10 (16)
0x000000000040e6bc:  ad400440      ldp q0, q1, [x2]
0x000000000040e6c0:  a90673fb      stp x27, x28, [sp, #96]
0x000000000040e6c4:  d53bd05c      mrs x28, (unknown)
0x000000000040e6c8:  a90463f7      stp x23, x24, [sp, #64]
0x000000000040e6cc:  aa0003f8      mov x24, x0
0x000000000040e6d0:  f945dca0      ldr x0, [x5, #3000]
0x000000000040e6d4:  a90253f3      stp x19, x20, [sp, #32]
0x000000000040e6d8:  f8646b84      ldr x4, [x28, x4]
0x000000000040e6dc:  a9035bf5      stp x21, x22, [sp, #48]
0x000000000040e6e0:  a9056bf9      stp x25, x26, [sp, #80]
0x000000000040e6e4:  f9005ba2      str x2, [x29, #176]
0x000000000040e6e8:  d2808002      mov x2, #0x400
0x000000000040e6ec:  f90087a5      str x5, [x29, #264]
0x000000000040e6f0:  f90097a4      str x4, [x29, #296]
0x000000000040e6f4:  f9400084      ldr x4, [x4]
0x000000000040e6f8:  f9400006      ldr x6, [x0]
0x000000000040e6fc:  f90397a6      str x6, [x29, #1832]
0x000000000040e700:  d2800006      mov x6, #0x0
0x000000000040e704:  b940c300      ldr w0, [x24, #192]
0x000000000040e708:  910c43a6      add x6, x29, #0x310 (784)
0x000000000040e70c:  b90093a3      str w3, [x29, #144]
0x000000000040e710:  f9004fa4      str x4, [x29, #152]
0x000000000040e714:  f9006fa6      str x6, [x29, #216]
0x000000000040e718:  f900aba1      str x1, [x29, #336]
0x000000000040e71c:  f90183a6      str x6, [x29, #768]
0x000000000040e720:  f90187a2      str x2, [x29, #776]
0x000000000040e724:  ad0b07a0      stp q0, q1, [x29, #352]
0x000000000040e728:  35002a20      cbnz w0, #+0x544 (addr 0x40ec6c)

----------------
IN: __vfscanf_internal
0x000000000040ec6c:  3100041f      cmn w0, #0x1 (1)
0x000000000040ec70:  54ffd620      b.eq #-0x53c (addr 0x40e734)

----------------
IN: __vfscanf_internal
0x000000000040e734:  b9400300      ldr w0, [x24]
0x000000000040e738:  37116900      tbnz w0, #2, #+0x2d20 (addr 0x411458)

----------------
IN: __vfscanf_internal
0x000000000040e73c:  b401c3e1      cbz x1, #+0x387c (addr 0x411fb8)

----------------
IN: __vfscanf_internal
0x000000000040e740:  f94097a0      ldr x0, [x29, #296]
0x000000000040e744:  f94087a1      ldr x1, [x29, #264]
0x000000000040e748:  f9400403      ldr x3, [x0, #8]
0x000000000040e74c:  910603a0      add x0, x29, #0x180 (384)
0x000000000040e750:  f9462421      ldr x1, [x1, #3144]
0x000000000040e754:  f9006ba0      str x0, [x29, #208]
0x000000000040e758:  a9441062      ldp x2, x4, [x3, #64]
0x000000000040e75c:  f90053a2      str x2, [x29, #160]
0x000000000040e760:  39400082      ldrb w2, [x4]
0x000000000040e764:  a91863a1      stp x1, x24, [x29, #384]
0x000000000040e768:  7100005f      cmp w2, #0x0 (0)
0x000000000040e76c:  9a9f1081      csel x1, x4, xzr, ne
0x000000000040e770:  f9008fa1      str x1, [x29, #280]
0x000000000040e774:  9400538b      bl #+0x14e2c (addr 0x4235a0)

----------------
IN: __vfscanf_internal
0x000000000040e778:  b9400300      ldr w0, [x24]
0x000000000040e77c:  37780200      tbnz w0, #15, #+0x40 (addr 0x40e7bc)

----------------
IN: __vfscanf_internal
0x000000000040e7bc:  f940aba0      ldr x0, [x29, #336]
0x000000000040e7c0:  f900e3bf      str xzr, [x29, #448]
0x000000000040e7c4:  aa0003f3      mov x19, x0
0x000000000040e7c8:  39400001      ldrb w1, [x0]
0x000000000040e7cc:  34013041      cbz w1, #+0x2608 (addr 0x410dd4)

----------------
IN: __vfscanf_internal
0x000000000040e7d0:  900004c2      adrp x2, #+0x98000 (addr 0x4a6000)
0x000000000040e7d4:  f946e842      ldr x2, [x2, #3536]
0x000000000040e7d8:  52800016      mov w22, #0x0
0x000000000040e7dc:  d280001b      mov x27, #0x0
0x000000000040e7e0:  2a1603f7      mov w23, w22
0x000000000040e7e4:  aa1b03f9      mov x25, x27
0x000000000040e7e8:  aa1803fa      mov x26, x24
0x000000000040e7ec:  52800015      mov w21, #0x0
0x000000000040e7f0:  f90057bf      str xzr, [x29, #168]
0x000000000040e7f4:  f9005fbf      str xzr, [x29, #184]
0x000000000040e7f8:  f90067bf      str xzr, [x29, #200]
0x000000000040e7fc:  f9007bbf      str xzr, [x29, #240]
0x000000000040e800:  f9008bbf      str xzr, [x29, #272]
0x000000000040e804:  f900a3a2      str x2, [x29, #320]
0x000000000040e808:  b9014bbf      str wzr, [x29, #328]
0x000000000040e80c:  b9014fbf      str wzr, [x29, #332]
0x000000000040e810:  373806a1      tbnz w1, #7, #+0xd4 (addr 0x40e8e4)

----------------
IN: __vfscanf_internal
0x000000000040e814:  aa0003e1      mov x1, x0
0x000000000040e818:  91000400      add x0, x0, #0x1 (1)
0x000000000040e81c:  f900aba0      str x0, [x29, #336]
0x000000000040e820:  aa0003f3      mov x19, x0
0x000000000040e824:  39400034      ldrb w20, [x1]
0x000000000040e828:  7100969f      cmp w20, #0x25 (37)
0x000000000040e82c:  540007c0      b.eq #+0xf8 (addr 0x40e924)

----------------
IN: __vfscanf_internal
0x000000000040e830:  f94097a1      ldr x1, [x29, #296]
0x000000000040e834:  f9403422      ldr x2, [x1, #104]
0x000000000040e838:  d37f1e81      ubfiz x1, x20, #1, #8
0x000000000040e83c:  78616841      ldrh w1, [x2, x1]
0x000000000040e840:  376823e1      tbnz w1, #13, #+0x47c (addr 0x40ecbc)

----------------
IN: __vfscanf_internal
0x000000000040e844:  310006ff      cmn w23, #0x1 (1)
0x000000000040e848:  540023e0      b.eq #+0x47c (addr 0x40ecc4)

----------------
IN: __vfscanf_internal
0x000000000040e84c:  a9408740      ldp x0, x1, [x26, #8]
0x000000000040e850:  eb01001f      cmp x0, x1
0x000000000040e854:  54002c22      b.hs #+0x584 (addr 0x40edd8)

----------------
IN: __vfscanf_internal
0x000000000040e858:  91000401      add x1, x0, #0x1 (1)
0x000000000040e85c:  f9000741      str x1, [x26, #8]
0x000000000040e860:  39400017      ldrb w23, [x0]
0x000000000040e864:  91000739      add x25, x25, #0x1 (1)
0x000000000040e868:  35002875      cbnz w21, #+0x50c (addr 0x40ed74)

----------------
IN: __vfscanf_internal
0x000000000040e86c:  6b17029f      cmp w20, w23
0x000000000040e870:  54004521      b.ne #+0x8a4 (addr 0x40f114)

----------------
IN: __vfscanf_internal
0x000000000040f114:  aa1a03f8      mov x24, x26
0x000000000040f118:  12001ee1      and w1, w23, #0xff
0x000000000040f11c:  aa1a03e0      mov x0, x26
0x000000000040f120:  94004b94      bl #+0x12e50 (addr 0x421f70)

----------------
IN: _IO_sputbackc
0x0000000000421f70:  a9bd7bfd      stp x29, x30, [sp, #-48]!
0x0000000000421f74:  910003fd      mov x29, sp
0x0000000000421f78:  a90153f3      stp x19, x20, [sp, #16]
0x0000000000421f7c:  aa0003f3      mov x19, x0
0x0000000000421f80:  f9400400      ldr x0, [x0, #8]
0x0000000000421f84:  f9400e62      ldr x2, [x19, #24]
0x0000000000421f88:  eb02001f      cmp x0, x2
0x0000000000421f8c:  54000089      b.ls #+0x10 (addr 0x421f9c)

----------------
IN: _IO_sputbackc
0x0000000000421f90:  385ff002      ldurb w2, [x0, #-1]
0x0000000000421f94:  6b21005f      cmp w2, w1, uxtb
0x0000000000421f98:  54000280      b.eq #+0x50 (addr 0x421fe8)

----------------
IN: _IO_sputbackc
0x0000000000421fe8:  d1000402      sub x2, x0, #0x1 (1)
0x0000000000421fec:  12001c20      and w0, w1, #0xff
0x0000000000421ff0:  f9000662      str x2, [x19, #8]
0x0000000000421ff4:  17fffff7      b #-0x24 (addr 0x421fd0)

----------------
IN: _IO_sputbackc
0x0000000000421fd0:  b9400261      ldr w1, [x19]
0x0000000000421fd4:  121b7821      and w1, w1, #0xffffffef
0x0000000000421fd8:  b9000261      str w1, [x19]
0x0000000000421fdc:  a94153f3      ldp x19, x20, [sp, #16]
0x0000000000421fe0:  a8c37bfd      ldp x29, x30, [sp], #48
0x0000000000421fe4:  d65f03c0      ret

----------------
IN: __vfscanf_internal
0x000000000040f124:  17fffe59      b #-0x69c (addr 0x40ea88)

----------------
IN: __vfscanf_internal
0x000000000040ea88:  b9400300      ldr w0, [x24]
0x000000000040ea8c:  377800c0      tbnz w0, #15, #+0x18 (addr 0x40eaa4)

----------------
IN: __vfscanf_internal
0x000000000040eaa4:  f9406ba0      ldr x0, [x29, #208]
0x000000000040eaa8:  940052c7      bl #+0x14b1c (addr 0x4235c4)

----------------
IN: __vfscanf_internal
0x000000000040eaac:  f9406fa1      ldr x1, [x29, #216]
0x000000000040eab0:  f94183a0      ldr x0, [x29, #768]
0x000000000040eab4:  eb01001f      cmp x0, x1
0x000000000040eab8:  54000040      b.eq #+0x8 (addr 0x40eac0)

----------------
IN: __vfscanf_internal
0x000000000040eac0:  b9414ba0      ldr w0, [x29, #328]
0x000000000040eac4:  3100041f      cmn w0, #0x1 (1)
0x000000000040eac8:  54002d60      b.eq #+0x5ac (addr 0x40f074)

----------------
IN: __vfscanf_internal
0x000000000040eacc:  f9408ba0      ldr x0, [x29, #272]
0x000000000040ead0:  b5002f80      cbnz x0, #+0x5f0 (addr 0x40f0c0)

----------------
IN: __vfscanf_internal
0x000000000040ead4:  f94087a0      ldr x0, [x29, #264]
0x000000000040ead8:  f945dc00      ldr x0, [x0, #3000]
0x000000000040eadc:  f94397a2      ldr x2, [x29, #1832]
0x000000000040eae0:  f9400001      ldr x1, [x0]
0x000000000040eae4:  eb010042      subs x2, x2, x1
0x000000000040eae8:  d2800001      mov x1, #0x0
0x000000000040eaec:  5402da81      b.ne #+0x5b50 (addr 0x41463c)

----------------
IN: __vfscanf_internal
0x000000000040eaf0:  b9414ba0      ldr w0, [x29, #328]
0x000000000040eaf4:  d10043bf      sub sp, x29, #0x10 (16)
0x000000000040eaf8:  a9417bfd      ldp x29, x30, [sp, #16]
0x000000000040eafc:  a94253f3      ldp x19, x20, [sp, #32]
0x000000000040eb00:  a9435bf5      ldp x21, x22, [sp, #48]
0x000000000040eb04:  a94463f7      ldp x23, x24, [sp, #64]
0x000000000040eb08:  a9456bf9      ldp x25, x26, [sp, #80]
0x000000000040eb0c:  a94673fb      ldp x27, x28, [sp, #96]
0x000000000040eb10:  911d03ff      add sp, sp, #0x740 (1856)
0x000000000040eb14:  d65f03c0      ret

----------------
IN: __isoc99_sscanf
0x000000000040e57c:  f945de94      ldr x20, [x20, #3000]
0x000000000040e580:  f940b7e1      ldr x1, [sp, #360]
0x000000000040e584:  f9400282      ldr x2, [x20]
0x000000000040e588:  eb020021      subs x1, x1, x2
0x000000000040e58c:  d2800002      mov x2, #0x0
0x000000000040e590:  540000c1      b.ne #+0x18 (addr 0x40e5a8)

----------------
IN: __isoc99_sscanf
0x000000000040e594:  a9407bfd      ldp x29, x30, [sp]
0x000000000040e598:  a94153f3      ldp x19, x20, [sp, #16]
0x000000000040e59c:  a9425bf5      ldp x21, x22, [sp, #32]
0x000000000040e5a0:  910883ff      add sp, sp, #0x220 (544)
0x000000000040e5a4:  d65f03c0      ret

----------------
IN: decode
0x0000000000402208:  7100041f      cmp w0, #0x1 (1)
0x000000000040220c:  54000101      b.ne #+0x20 (addr 0x40222c)

----------------
IN: decode
0x000000000040222c:  f9401be0      ldr x0, [sp, #48]
0x0000000000402230:  aa0003e1      mov x1, x0
0x0000000000402234:  90000520      adrp x0, #+0xa4000 (addr 0x4a6000)
0x0000000000402238:  f945dc00      ldr x0, [x0, #3000]
0x000000000040223c:  f9401fe3      ldr x3, [sp, #56]
0x0000000000402240:  f9400002      ldr x2, [x0]
0x0000000000402244:  eb020063      subs x3, x3, x2
0x0000000000402248:  d2800002      mov x2, #0x0
0x000000000040224c:  54000040      b.eq #+0x8 (addr 0x402254)

----------------
IN: decode
0x0000000000402254:  aa0103e0      mov x0, x1
0x0000000000402258:  a8c47bfd      ldp x29, x30, [sp], #64
0x000000000040225c:  d65f03c0      ret

----------------
IN: generate
0x000000000040315c:  f9003fe0      str x0, [sp, #120]
0x0000000000403160:  f9403fe0      ldr x0, [sp, #120]
0x0000000000403164:  97fffc3f      bl #-0xf04 (addr 0x402260)

----------------
IN: safe_printf
0x0000000000402260:  a9bd7bfd      stp x29, x30, [sp, #-48]!
0x0000000000402264:  910003fd      mov x29, sp
0x0000000000402268:  f9000fe0      str x0, [sp, #24]
0x000000000040226c:  f9400fe0      ldr x0, [sp, #24]
0x0000000000402270:  f100001f      cmp x0, #0x0 (0)
0x0000000000402274:  54000480      b.eq #+0x90 (addr 0x402304)

----------------
IN: safe_printf
0x0000000000402278:  f9400fe0      ldr x0, [sp, #24]
0x000000000040227c:  39400000      ldrb w0, [x0]
0x0000000000402280:  7100001f      cmp w0, #0x0 (0)
0x0000000000402284:  54000440      b.eq #+0x88 (addr 0x40230c)

----------------
IN: safe_printf
0x0000000000402288:  f9400fe0      ldr x0, [sp, #24]
0x000000000040228c:  91000400      add x0, x0, #0x1 (1)
0x0000000000402290:  39400000      ldrb w0, [x0]
0x0000000000402294:  7100001f      cmp w0, #0x0 (0)
0x0000000000402298:  540002c1      b.ne #+0x58 (addr 0x4022f0)

----------------
IN: safe_printf
0x00000000004022f0:  f9400fe1      ldr x1, [sp, #24]
0x00000000004022f4:  b0000340      adrp x0, #+0x69000 (addr 0x46b000)
0x00000000004022f8:  911e8000      add x0, x0, #0x7a0 (1952)
0x00000000004022fc:  94002fdd      bl #+0xbf74 (addr 0x40e270)

----------------
IN: __printf
0x000000000040e270:  a9ad7bfd      stp x29, x30, [sp, #-304]!
0x000000000040e274:  128006ea      mov w10, #0xffffffc8
0x000000000040e278:  12800fe9      mov w9, #0xffffff80
0x000000000040e27c:  910003fd      mov x29, sp
0x000000000040e280:  f9000bf3      str x19, [sp, #16]
0x000000000040e284:  900004d3      adrp x19, #+0x98000 (addr 0x4a6000)
0x000000000040e288:  3d801fe0      str q0, [sp, #112]
0x000000000040e28c:  9103c3eb      add x11, sp, #0xf0 (240)
0x000000000040e290:  910083e8      add x8, sp, #0x20 (32)
0x000000000040e294:  f945de6c      ldr x12, [x19, #3000]
0x000000000040e298:  3d8023e1      str q1, [sp, #128]
0x000000000040e29c:  3d8027e2      str q2, [sp, #144]
0x000000000040e2a0:  3d802be3      str q3, [sp, #160]
0x000000000040e2a4:  3d802fe4      str q4, [sp, #176]
0x000000000040e2a8:  3d8033e5      str q5, [sp, #192]
0x000000000040e2ac:  3d8037e6      str q6, [sp, #208]
0x000000000040e2b0:  3d803be7      str q7, [sp, #224]
0x000000000040e2b4:  a90f8be1      stp x1, x2, [sp, #248]
0x000000000040e2b8:  aa0003e1      mov x1, x0
0x000000000040e2bc:  aa0803e2      mov x2, x8
0x000000000040e2c0:  a91093e3      stp x3, x4, [sp, #264]
0x000000000040e2c4:  52800003      mov w3, #0x0
0x000000000040e2c8:  a9119be5      stp x5, x6, [sp, #280]
0x000000000040e2cc:  f90097e7      str x7, [sp, #296]
0x000000000040e2d0:  f945ce6d      ldr x13, [x19, #2968]
0x000000000040e2d4:  f9400184      ldr x4, [x12]
0x000000000040e2d8:  f90037e4      str x4, [sp, #104]
0x000000000040e2dc:  d2800004      mov x4, #0x0
0x000000000040e2e0:  9104c3e4      add x4, sp, #0x130 (304)
0x000000000040e2e4:  a90493e4      stp x4, x4, [sp, #72]
0x000000000040e2e8:  910123e4      add x4, sp, #0x48 (72)
0x000000000040e2ec:  f9002feb      str x11, [sp, #88]
0x000000000040e2f0:  290c27ea      stp w10, w9, [sp, #96]
0x000000000040e2f4:  f94001a0      ldr x0, [x13]
0x000000000040e2f8:  ad400480      ldp q0, q1, [x4]
0x000000000040e2fc:  ad000500      stp q0, q1, [x8]
0x000000000040e300:  94002378      bl #+0x8de0 (addr 0x4170e0)

----------------
IN: __vfprintf_internal
0x00000000004170e0:  d11803ff      sub sp, sp, #0x600 (1536)
0x00000000004170e4:  f0000464      adrp x4, #+0x8f000 (addr 0x4a6000)
0x00000000004170e8:  f946e884      ldr x4, [x4, #3536]
0x00000000004170ec:  d53bd045      mrs x5, (unknown)
0x00000000004170f0:  a9037bfd      stp x29, x30, [sp, #48]
0x00000000004170f4:  9100c3fd      add x29, sp, #0x30 (48)
0x00000000004170f8:  a9055bf5      stp x21, x22, [sp, #80]
0x00000000004170fc:  f0000476      adrp x22, #+0x8f000 (addr 0x4a6000)
0x0000000000417100:  a90873fb      stp x27, x28, [sp, #128]
0x0000000000417104:  aa0003fb      mov x27, x0
0x0000000000417108:  f945dec0      ldr x0, [x22, #3000]
0x000000000041710c:  a90453f3      stp x19, x20, [sp, #64]
0x0000000000417110:  aa0203f4      mov x20, x2
0x0000000000417114:  a90663f7      stp x23, x24, [sp, #96]
0x0000000000417118:  aa0103f8      mov x24, x1
0x000000000041711c:  b940c362      ldr w2, [x27, #192]
0x0000000000417120:  a9076bf9      stp x25, x26, [sp, #112]
0x0000000000417124:  f90077e5      str x5, [sp, #232]
0x0000000000417128:  f9008fe4      str x4, [sp, #280]
0x000000000041712c:  f9400299      ldr x25, [x20]
0x0000000000417130:  f9400006      ldr x6, [x0]
0x0000000000417134:  f902ffe6      str x6, [sp, #1528]
0x0000000000417138:  d2800006      mov x6, #0x0
0x000000000041713c:  b86468a0      ldr w0, [x5, x4]
0x0000000000417140:  b9010fe0      str w0, [sp, #268]
0x0000000000417144:  f9400680      ldr x0, [x20, #8]
0x0000000000417148:  f90083e0      str x0, [sp, #256]
0x000000000041714c:  f9400a80      ldr x0, [x20, #16]
0x0000000000417150:  f9008be0      str x0, [sp, #272]
0x0000000000417154:  b9401a80      ldr w0, [x20, #24]
0x0000000000417158:  b900c3e0      str w0, [sp, #192]
0x000000000041715c:  b9401e80      ldr w0, [x20, #28]
0x0000000000417160:  b900cbe3      str w3, [sp, #200]
0x0000000000417164:  b9010be0      str w0, [sp, #264]
0x0000000000417168:  35001ca2      cbnz w2, #+0x394 (addr 0x4174fc)

----------------
IN: __vfprintf_internal
0x000000000041716c:  12800000      mov w0, #0xffffffff
0x0000000000417170:  b900c360      str w0, [x27, #192]
0x0000000000417174:  b9400373      ldr w19, [x27]
0x0000000000417178:  3718df13      tbnz w19, #3, #+0x1be0 (addr 0x418d58)

----------------
IN: __vfprintf_internal
0x000000000041717c:  b400ec38      cbz x24, #+0x1d84 (addr 0x418f00)

----------------
IN: __vfprintf_internal
0x0000000000417180:  ad400680      ldp q0, q1, [x20]
0x0000000000417184:  37087d53      tbnz w19, #1, #+0xfa8 (addr 0x41812c)

----------------
IN: __vfprintf_internal
0x0000000000417188:  9106e3e0      add x0, sp, #0x1b8 (440)
0x000000000041718c:  528004a1      mov w1, #0x25
0x0000000000417190:  aa0003e2      mov x2, x0
0x0000000000417194:  aa1803e0      mov x0, x24
0x0000000000417198:  b900c7ff      str wzr, [sp, #196]
0x000000000041719c:  f9009fe2      str x2, [sp, #312]
0x00000000004171a0:  ad000440      stp q0, q1, [x2]
0x00000000004171a4:  94005287      bl #+0x14a1c (addr 0x42bbc0)

----------------
IN: __strchrnul
0x000000000042bbc0:  d503201f      nop
0x000000000042bbc4:  927cec02      and x2, x0, #0xfffffffffffffff0
0x000000000042bbc8:  4e010c20      dup v0.16b, w1
0x000000000042bbcc:  4c407041      ld1 {v1.16b}, [x2]
0x000000000042bbd0:  529e01e3      mov w3, #0xf00f
0x000000000042bbd4:  4e020c64      dup v4.8h, w3
0x000000000042bbd8:  6e208c23      cmeq v3.16b, v1.16b, v0.16b
0x000000000042bbdc:  6e213c63      cmhs v3.16b, v3.16b, v1.16b
0x000000000042bbe0:  d37ef403      lsl x3, x0, #2
0x000000000042bbe4:  4e241c63      and v3.16b, v3.16b, v4.16b
0x000000000042bbe8:  4e23bc65      addp v5.16b, v3.16b, v3.16b
0x000000000042bbec:  9e6600a1      fmov x1, d5
0x000000000042bbf0:  9ac32421      lsr x1, x1, x3
0x000000000042bbf4:  b40000e1      cbz x1, #+0x1c (addr 0x42bc10)

----------------
IN: __strchrnul
0x000000000042bbf8:  dac00021      rbit x1, x1
0x000000000042bbfc:  dac01021      clz x1, x1
0x000000000042bc00:  8b410800      add x0, x0, x1, lsr #2
0x000000000042bc04:  d65f03c0      ret

----------------
IN: __vfprintf_internal
0x00000000004171a8:  f9006fe0      str x0, [sp, #216]
0x00000000004171ac:  f900c3e0      str x0, [sp, #384]
0x00000000004171b0:  f900f3fb      str x27, [sp, #480]
0x00000000004171b4:  36781ad3      tbz w19, #15, #+0x358 (addr 0x41750c)

----------------
IN: __vfprintf_internal
0x000000000041750c:  f94626c1      ldr x1, [x22, #3144]
0x0000000000417510:  910763e0      add x0, sp, #0x1d8 (472)
0x0000000000417514:  f900efe1      str x1, [sp, #472]
0x0000000000417518:  94003022      bl #+0xc088 (addr 0x4235a0)

----------------
IN: __vfprintf_internal
0x000000000041751c:  b9400361      ldr w1, [x27]
0x0000000000417520:  3778d8e1      tbnz w1, #15, #+0x1b1c (addr 0x41903c)

----------------
IN: __vfprintf_internal
0x0000000000417524:  f9404773      ldr x19, [x27, #136]
0x0000000000417528:  f94077e0      ldr x0, [sp, #232]
0x000000000041752c:  d11f0015      sub x21, x0, #0x7c0 (1984)
0x0000000000417530:  f9400660      ldr x0, [x19, #8]
0x0000000000417534:  eb15001f      cmp x0, x21
0x0000000000417538:  54000100      b.eq #+0x20 (addr 0x417558)

----------------
IN: __vfprintf_internal
0x000000000041753c:  aa1303e2      mov x2, x19
0x0000000000417540:  52800021      mov w1, #0x1
0x0000000000417544:  52800000      mov w0, #0x0
0x0000000000417548:  94013356      bl #+0x4cd58 (addr 0x4642a0)

----------------
IN: __vfprintf_internal
0x000000000041754c:  3500afa0      cbnz w0, #+0x15f4 (addr 0x418b40)

----------------
IN: __vfprintf_internal
0x0000000000417550:  f9404773      ldr x19, [x27, #136]
0x0000000000417554:  f9000675      str x21, [x19, #8]
0x0000000000417558:  b9400660      ldr w0, [x19, #4]
0x000000000041755c:  52800021      mov w1, #0x1
0x0000000000417560:  b900c7e1      str w1, [sp, #196]
0x0000000000417564:  0b010000      add w0, w0, w1
0x0000000000417568:  b9000660      str w0, [x19, #4]
0x000000000041756c:  17ffff13      b #-0x3b4 (addr 0x4171b8)

----------------
IN: __vfprintf_internal
0x00000000004171b8:  f94702da      ldr x26, [x22, #3584]
0x00000000004171bc:  f94652d7      ldr x23, [x22, #3232]
0x00000000004171c0:  f9406fe0      ldr x0, [sp, #216]
0x00000000004171c4:  cb1a02f7      sub x23, x23, x26
0x00000000004171c8:  f9406f73      ldr x19, [x27, #216]
0x00000000004171cc:  cb180015      sub x21, x0, x24
0x00000000004171d0:  cb1a0260      sub x0, x19, x26
0x00000000004171d4:  eb0002ff      cmp x23, x0
0x00000000004171d8:  54009649      b.ls #+0x12c8 (addr 0x4184a0)

----------------
IN: __vfprintf_internal
0x00000000004171dc:  f9401e63      ldr x3, [x19, #56]
0x00000000004171e0:  aa1503e2      mov x2, x21
0x00000000004171e4:  aa1803e1      mov x1, x24
0x00000000004171e8:  aa1b03e0      mov x0, x27
0x00000000004171ec:  d63f0060      blr x3

----------------
IN: _IO_new_file_xsputn
0x000000000041fd50:  a9bc7bfd      stp x29, x30, [sp, #-64]!
0x000000000041fd54:  910003fd      mov x29, sp
0x000000000041fd58:  a90153f3      stp x19, x20, [sp, #16]
0x000000000041fd5c:  d2800013      mov x19, #0x0
0x000000000041fd60:  b4000402      cbz x2, #+0x80 (addr 0x41fde0)

----------------
IN: _IO_new_file_xsputn
0x000000000041fde0:  aa1303e0      mov x0, x19
0x000000000041fde4:  a94153f3      ldp x19, x20, [sp, #16]
0x000000000041fde8:  a8c47bfd      ldp x29, x30, [sp], #64
0x000000000041fdec:  d65f03c0      ret

----------------
IN: __vfprintf_internal
0x00000000004171f0:  eb0002bf      cmp x21, x0
0x00000000004171f4:  540087e1      b.ne #+0x10fc (addr 0x4182f0)

----------------
IN: __vfprintf_internal
0x00000000004171f8:  eb35c2bf      cmp x21, w21, sxtw
0x00000000004171fc:  d37ffea2      lsr x2, x21, #63
0x0000000000417200:  1a9f0442      csinc w2, w2, wzr, eq
0x0000000000417204:  2a1503f3      mov w19, w21
0x0000000000417208:  35002902      cbnz w2, #+0x520 (addr 0x417728)

----------------
IN: __vfprintf_internal
0x000000000041720c:  37f804f5      tbnz w21, #31, #+0x9c (addr 0x4172a8)

----------------
IN: __vfprintf_internal
0x0000000000417210:  f940c3e0      ldr x0, [sp, #384]
0x0000000000417214:  39400001      ldrb w1, [x0]
0x0000000000417218:  34000481      cbz w1, #+0x90 (addr 0x4172a8)

----------------
IN: __vfprintf_internal
0x000000000041721c:  f00004a1      adrp x1, #+0x97000 (addr 0x4ae000)
0x0000000000417220:  f9419821      ldr x1, [x1, #816]
0x0000000000417224:  f900a3e1      str x1, [sp, #320]
0x0000000000417228:  b500c3c1      cbnz x1, #+0x1878 (addr 0x418aa0)

----------------
IN: __vfprintf_internal
0x000000000041722c:  f00004a1      adrp x1, #+0x97000 (addr 0x4ae000)
0x0000000000417230:  f9419c21      ldr x1, [x1, #824]
0x0000000000417234:  b5009401      cbnz x1, #+0x1280 (addr 0x4184b4)

----------------
IN: __vfprintf_internal
0x0000000000417238:  f00004a1      adrp x1, #+0x97000 (addr 0x4ae000)
0x000000000041723c:  f943c021      ldr x1, [x1, #1920]
0x0000000000417240:  b50093a1      cbnz x1, #+0x1274 (addr 0x4184b4)

----------------
IN: __vfprintf_internal
0x0000000000417244:  90000461      adrp x1, #+0x8c000 (addr 0x4a3000)
0x0000000000417248:  9123c021      add x1, x1, #0x8f0 (2288)
0x000000000041724c:  9103e022      add x2, x1, #0xf8 (248)
0x0000000000417250:  f900abe1      str x1, [sp, #336]
0x0000000000417254:  91136021      add x1, x1, #0x4d8 (1240)
0x0000000000417258:  5280001c      mov w28, #0x0
0x000000000041725c:  f9007be2      str x2, [sp, #240]
0x0000000000417260:  f900a7e1      str x1, [sp, #328]
0x0000000000417264:  92800001      mov x1, #0xffffffffffffffff
0x0000000000417268:  f9007fe1      str x1, [sp, #248]
0x000000000041726c:  b9015fff      str wzr, [sp, #348]
0x0000000000417270:  91000401      add x1, x0, #0x1 (1)
0x0000000000417274:  f900c3e1      str x1, [sp, #384]
0x0000000000417278:  39400405      ldrb w5, [x0, #1]
0x000000000041727c:  510080a1      sub w1, w5, #0x20 (32)
0x0000000000417280:  12001c20      and w0, w1, #0xff
0x0000000000417284:  7101681f      cmp w0, #0x5a (90)
0x0000000000417288:  54000509      b.ls #+0xa0 (addr 0x417328)

----------------
IN: __vfprintf_internal
0x0000000000417328:  b00002c9      adrp x9, #+0x59000 (addr 0x470000)
0x000000000041732c:  9116a129      add x9, x9, #0x5a8 (1448)
0x0000000000417330:  52800006      mov w6, #0x0
0x0000000000417334:  52800002      mov w2, #0x0
0x0000000000417338:  5280000a      mov w10, #0x0
0x000000000041733c:  52800015      mov w21, #0x0
0x0000000000417340:  3861c920      ldrb w0, [x9, w1, sxtw]
0x0000000000417344:  52800401      mov w1, #0x20
0x0000000000417348:  b900abe1      str w1, [sp, #168]
0x000000000041734c:  5280000b      mov w11, #0x0
0x0000000000417350:  f9407be1      ldr x1, [sp, #240]
0x0000000000417354:  52800004      mov w4, #0x0
0x0000000000417358:  12800007      mov w7, #0xffffffff
0x000000000041735c:  b9009bff      str wzr, [sp, #152]
0x0000000000417360:  b900a3ff      str wzr, [sp, #160]
0x0000000000417364:  f8607821      ldr x1, [x1, x0, lsl #3]
0x0000000000417368:  b900b3ff      str wzr, [sp, #176]
0x000000000041736c:  b900bbff      str wzr, [sp, #184]
0x0000000000417370:  b900d3ff      str wzr, [sp, #208]
0x0000000000417374:  d61f0020      br x1

----------------
IN: __vfprintf_internal
0x0000000000417b94:  b940c3e0      ldr w0, [sp, #192]
0x0000000000417b98:  37f86d20      tbnz w0, #31, #+0xda4 (addr 0x41893c)

----------------
IN: __vfprintf_internal
0x000000000041893c:  b940c3e0      ldr w0, [sp, #192]
0x0000000000418940:  11002001      add w1, w0, #0x8 (8)
0x0000000000418944:  7100003f      cmp w1, #0x0 (0)
0x0000000000418948:  540011cd      b.le #+0x238 (addr 0x418b80)

----------------
IN: __vfprintf_internal
0x0000000000418b80:  f94083e2      ldr x2, [sp, #256]
0x0000000000418b84:  b940c3e0      ldr w0, [sp, #192]
0x0000000000418b88:  b900c3e1      str w1, [sp, #192]
0x0000000000418b8c:  8b20c040      add x0, x2, w0, sxtw
0x0000000000418b90:  17fffc06      b #-0xfe8 (addr 0x417ba8)

----------------
IN: __vfprintf_internal
0x0000000000417ba8:  f9400009      ldr x9, [x0]
0x0000000000417bac:  52000140      eor w0, w10, #0x1
0x0000000000417bb0:  b5ffde69      cbnz x9, #-0x434 (addr 0x41777c)

----------------
IN: __vfprintf_internal
0x000000000041777c:  71014cbf      cmp w5, #0x53 (83)
0x0000000000417780:  7a401804      ccmp w0, #0, #nZcv, ne
0x0000000000417784:  54007620      b.eq #+0xec4 (addr 0x418648)

----------------
IN: __vfprintf_internal
0x0000000000417788:  310004ff      cmn w7, #0x1 (1)
0x000000000041778c:  54007720      b.eq #+0xee4 (addr 0x418670)

----------------
IN: __vfprintf_internal
0x0000000000418670:  aa0903e0      mov x0, x9
0x0000000000418674:  f90053e9      str x9, [sp, #160]
0x0000000000418678:  b900abe6      str w6, [sp, #168]
0x000000000041867c:  97ff9f21      bl #-0x1837c (addr 0x400300)

----------------
IN: __vfprintf_internal
0x0000000000418680:  b940abe6      ldr w6, [sp, #168]
0x0000000000418684:  aa0003f5      mov x21, x0
0x0000000000418688:  f94053e9      ldr x9, [sp, #160]
0x000000000041868c:  17fffc49      b #-0xedc (addr 0x4177b0)

----------------
IN: __vfprintf_internal
0x00000000004177b0:  6b0000c6      subs w6, w6, w0
0x00000000004177b4:  540090a4      b.mi #+0x1214 (addr 0x4189c8)

----------------
IN: __vfprintf_internal
0x00000000004189c8:  f9406f60      ldr x0, [x27, #216]
0x00000000004189cc:  cb1a0001      sub x1, x0, x26
0x00000000004189d0:  eb0102ff      cmp x23, x1
0x00000000004189d4:  54002a29      b.ls #+0x544 (addr 0x418f18)

----------------
IN: __vfprintf_internal
0x00000000004189d8:  f9401c03      ldr x3, [x0, #56]
0x00000000004189dc:  aa0903e1      mov x1, x9
0x00000000004189e0:  aa1503e2      mov x2, x21
0x00000000004189e4:  aa1b03e0      mov x0, x27
0x00000000004189e8:  d63f0060      blr x3

----------------
IN: _IO_new_file_xsputn
0x000000000041fd64:  aa0203f3      mov x19, x2
0x000000000041fd68:  a9025bf5      stp x21, x22, [sp, #32]
0x000000000041fd6c:  aa0003f6      mov x22, x0
0x000000000041fd70:  f9400002      ldr x2, [x0]
0x000000000041fd74:  a90363f7      stp x23, x24, [sp, #48]
0x000000000041fd78:  aa0103f7      mov x23, x1
0x000000000041fd7c:  d2814001      mov x1, #0xa00
0x000000000041fd80:  8a010042      and x2, x2, x1
0x000000000041fd84:  f9401400      ldr x0, [x0, #40]
0x000000000041fd88:  eb01005f      cmp x2, x1
0x000000000041fd8c:  54000320      b.eq #+0x64 (addr 0x41fdf0)

----------------
IN: _IO_new_file_xsputn
0x000000000041fd90:  f9401ac2      ldr x2, [x22, #48]
0x000000000041fd94:  eb00005f      cmp x2, x0
0x000000000041fd98:  540003c9      b.ls #+0x78 (addr 0x41fe10)

----------------
IN: _IO_new_file_xsputn
0x000000000041fe10:  aa1303f5      mov x21, x19
0x000000000041fe14:  f0000422      adrp x2, #+0x87000 (addr 0x4a6000)
0x000000000041fe18:  f9406ed4      ldr x20, [x22, #216]
0x000000000041fe1c:  f9465040      ldr x0, [x2, #3232]
0x000000000041fe20:  f9470042      ldr x2, [x2, #3584]
0x000000000041fe24:  cb020000      sub x0, x0, x2
0x000000000041fe28:  cb020282      sub x2, x20, x2
0x000000000041fe2c:  eb02001f      cmp x0, x2
0x000000000041fe30:  54000769      b.ls #+0xec (addr 0x41ff1c)

----------------
IN: _IO_new_file_xsputn
0x000000000041fe34:  f9400e82      ldr x2, [x20, #24]
0x000000000041fe38:  aa1603e0      mov x0, x22
0x000000000041fe3c:  12800001      mov w1, #0xffffffff
0x000000000041fe40:  d63f0040      blr x2

----------------
IN: _IO_file_overflow
0x00000000004208b0:  a9bd7bfd      stp x29, x30, [sp, #-48]!
0x00000000004208b4:  910003fd      mov x29, sp
0x00000000004208b8:  a90153f3      stp x19, x20, [sp, #16]
0x00000000004208bc:  aa0003f3      mov x19, x0
0x00000000004208c0:  b9400000      ldr w0, [x0]
0x00000000004208c4:  37180d40      tbnz w0, #3, #+0x1a8 (addr 0x420a6c)

----------------
IN: _IO_file_overflow
0x00000000004208c8:  2a0103f4      mov w20, w1
0x00000000004208cc:  f9401261      ldr x1, [x19, #32]
0x00000000004208d0:  36580280      tbz w0, #11, #+0x50 (addr 0x420920)

----------------
IN: _IO_file_overflow
0x0000000000420920:  b4000781      cbz x1, #+0xf0 (addr 0x420a10)

----------------
IN: _IO_file_overflow
0x0000000000420a10:  aa1303e0      mov x0, x19
0x0000000000420a14:  94000354      bl #+0xd50 (addr 0x421764)

----------------
IN: _IO_file_overflow
0x0000000000420a18:  f9401e62      ldr x2, [x19, #56]
0x0000000000420a1c:  a9008a62      stp x2, x2, [x19, #8]
0x0000000000420a20:  b9400260      ldr w0, [x19]
0x0000000000420a24:  f9000e62      str x2, [x19, #24]
0x0000000000420a28:  17ffffc0      b #-0x100 (addr 0x420928)

----------------
IN: _IO_file_overflow
0x0000000000420928:  37400820      tbnz w0, #8, #+0x104 (addr 0x420a2c)

----------------
IN: _IO_file_overflow
0x000000000042092c:  f9402261      ldr x1, [x19, #64]
0x0000000000420930:  eb02003f      cmp x1, x2
0x0000000000420934:  54000560      b.eq #+0xac (addr 0x4209e0)

----------------
IN: _IO_file_overflow
0x0000000000420938:  f9400a63      ldr x3, [x19, #16]
0x000000000042093c:  32150005      orr w5, w0, #0x800
0x0000000000420940:  b940c264      ldr w4, [x19, #192]
0x0000000000420944:  b9000265      str w5, [x19]
0x0000000000420948:  f9000663      str x3, [x19, #8]
0x000000000042094c:  a9018a63      stp x3, x2, [x19, #24]
0x0000000000420950:  a9028662      stp x2, x1, [x19, #40]
0x0000000000420954:  7100009f      cmp w4, #0x0 (0)
0x0000000000420958:  54fffc2c      b.gt #-0x7c (addr 0x4208dc)

----------------
IN: _IO_file_overflow
0x000000000042095c:  52804041      mov w1, #0x202
0x0000000000420960:  6a01001f      tst w0, w1
0x0000000000420964:  54fffbc0      b.eq #-0x88 (addr 0x4208dc)

----------------
IN: _IO_file_overflow
0x00000000004208dc:  3100069f      cmn w20, #0x1 (1)
0x00000000004208e0:  540004a0      b.eq #+0x94 (addr 0x420974)

----------------
IN: _IO_file_overflow
0x0000000000420974:  aa1303e0      mov x0, x19
0x0000000000420978:  f9401261      ldr x1, [x19, #32]
0x000000000042097c:  a94153f3      ldp x19, x20, [sp, #16]
0x0000000000420980:  cb010042      sub x2, x2, x1
0x0000000000420984:  a8c37bfd      ldp x29, x30, [sp], #48
0x0000000000420988:  17fffe2e      b #-0x748 (addr 0x420240)

----------------
IN: _IO_new_do_write
0x0000000000420240:  b5000062      cbnz x2, #+0xc (addr 0x42024c)

----------------
IN: _IO_new_do_write
0x0000000000420244:  52800000      mov w0, #0x0
0x0000000000420248:  d65f03c0      ret

----------------
IN: _IO_new_file_xsputn
0x000000000041fe44:  3100041f      cmn w0, #0x1 (1)
0x000000000041fe48:  54000520      b.eq #+0xa4 (addr 0x41feec)

----------------
IN: _IO_new_file_xsputn
0x000000000041fe4c:  a94382c1      ldp x1, x0, [x22, #56]
0x000000000041fe50:  aa1503f4      mov x20, x21
0x000000000041fe54:  cb010000      sub x0, x0, x1
0x000000000041fe58:  f101fc1f      cmp x0, #0x7f (127)
0x000000000041fe5c:  54000089      b.ls #+0x10 (addr 0x41fe6c)

----------------
IN: _IO_new_file_xsputn
0x000000000041fe60:  9ac00ab4      udiv x20, x21, x0
0x000000000041fe64:  9b00d694      msub x20, x20, x0, x21
0x000000000041fe68:  cb1402b4      sub x20, x21, x20
0x000000000041fe6c:  b50001f4      cbnz x20, #+0x3c (addr 0x41fea8)

----------------
IN: _IO_new_file_xsputn
0x000000000041fe70:  b50002d5      cbnz x21, #+0x58 (addr 0x41fec8)

----------------
IN: _IO_new_file_xsputn
0x000000000041fec8:  8b1402e1      add x1, x23, x20
0x000000000041fecc:  aa1603e0      mov x0, x22
0x000000000041fed0:  aa1503e2      mov x2, x21
0x000000000041fed4:  9400067b      bl #+0x19ec (addr 0x4218c0)

----------------
IN: _IO_default_xsputn
0x00000000004218c0:  b4000882      cbz x2, #+0x110 (addr 0x4219d0)

----------------
IN: _IO_default_xsputn
0x00000000004218c4:  a9bb7bfd      stp x29, x30, [sp, #-80]!
0x00000000004218c8:  910003fd      mov x29, sp
0x00000000004218cc:  a90363f7      stp x23, x24, [sp, #48]
0x00000000004218d0:  b0000437      adrp x23, #+0x85000 (addr 0x4a6000)
0x00000000004218d4:  aa0203f8      mov x24, x2
0x00000000004218d8:  f90023f9      str x25, [sp, #64]
0x00000000004218dc:  f94652f9      ldr x25, [x23, #3232]
0x00000000004218e0:  a90153f3      stp x19, x20, [sp, #16]
0x00000000004218e4:  aa0103f3      mov x19, x1
0x00000000004218e8:  f94702f7      ldr x23, [x23, #3584]
0x00000000004218ec:  a9025bf5      stp x21, x22, [sp, #32]
0x00000000004218f0:  aa0003f6      mov x22, x0
0x00000000004218f4:  aa0203f5      mov x21, x2
0x00000000004218f8:  cb170339      sub x25, x25, x23
0x00000000004218fc:  d503201f      nop
0x0000000000421900:  a942d2c0      ldp x0, x20, [x22, #40]
0x0000000000421904:  eb14001f      cmp x0, x20
0x0000000000421908:  54000102      b.hs #+0x20 (addr 0x421928)

----------------
IN: _IO_default_xsputn
0x000000000042190c:  cb000294      sub x20, x20, x0
0x0000000000421910:  eb15029f      cmp x20, x21
0x0000000000421914:  9a959294      csel x20, x20, x21, ls
0x0000000000421918:  f100529f      cmp x20, #0x14 (20)
0x000000000042191c:  54000368      b.hi #+0x6c (addr 0x421988)

----------------
IN: _IO_default_xsputn
0x0000000000421920:  b50001f4      cbnz x20, #+0x3c (addr 0x42195c)

----------------
IN: _IO_default_xsputn
0x000000000042195c:  d2800001      mov x1, #0x0
0x0000000000421960:  38616a62      ldrb w2, [x19, x1]
0x0000000000421964:  38216802      strb w2, [x0, x1]
0x0000000000421968:  91000421      add x1, x1, #0x1 (1)
0x000000000042196c:  eb01029f      cmp x20, x1
0x0000000000421970:  54ffff81      b.ne #-0x10 (addr 0x421960)

----------------
IN: _IO_default_xsputn
0x0000000000421960:  38616a62      ldrb w2, [x19, x1]
0x0000000000421964:  38216802      strb w2, [x0, x1]
0x0000000000421968:  91000421      add x1, x1, #0x1 (1)
0x000000000042196c:  eb01029f      cmp x20, x1
0x0000000000421970:  54ffff81      b.ne #-0x10 (addr 0x421960)

----------------
IN: _IO_default_xsputn
0x0000000000421974:  8b140000      add x0, x0, x20
0x0000000000421978:  8b140273      add x19, x19, x20
0x000000000042197c:  cb1402b5      sub x21, x21, x20
0x0000000000421980:  f90016c0      str x0, [x22, #40]
0x0000000000421984:  17ffffe9      b #-0x5c (addr 0x421928)

----------------
IN: _IO_default_xsputn
0x0000000000421928:  b4000435      cbz x21, #+0x84 (addr 0x4219ac)

----------------
IN: _IO_default_xsputn
0x00000000004219ac:  aa1803e0      mov x0, x24
0x00000000004219b0:  a94153f3      ldp x19, x20, [sp, #16]
0x00000000004219b4:  a9425bf5      ldp x21, x22, [sp, #32]
0x00000000004219b8:  a94363f7      ldp x23, x24, [sp, #48]
0x00000000004219bc:  f94023f9      ldr x25, [sp, #64]
0x00000000004219c0:  a8c57bfd      ldp x29, x30, [sp], #80
0x00000000004219c4:  d65f03c0      ret

----------------
IN: _IO_new_file_xsputn
0x000000000041fed8:  cb150000      sub x0, x0, x21
0x000000000041fedc:  8b130013      add x19, x0, x19
0x000000000041fee0:  a9425bf5      ldp x21, x22, [sp, #32]
0x000000000041fee4:  a94363f7      ldp x23, x24, [sp, #48]
0x000000000041fee8:  17ffffbe      b #-0x108 (addr 0x41fde0)

----------------
IN: __vfprintf_internal
0x00000000004189ec:  eb15001f      cmp x0, x21
0x00000000004189f0:  54ffc801      b.ne #-0x700 (addr 0x4182f0)

----------------
IN: __vfprintf_internal
0x00000000004189f4:  ab33c2a0      adds x0, x21, w19, sxtw
0x00000000004189f8:  52800001      mov w1, #0x0
0x00000000004189fc:  54000064      b.mi #+0xc (addr 0x418a08)

----------------
IN: __vfprintf_internal
0x0000000000418a00:  eb15001f      cmp x0, x21
0x0000000000418a04:  54ff8322      b.hs #-0xf9c (addr 0x417a68)

----------------
IN: __vfprintf_internal
0x0000000000417a68:  eb20c01f      cmp x0, w0, sxtw
0x0000000000417a6c:  2a0003f3      mov w19, w0
0x0000000000417a70:  1a9f0421      csinc w1, w1, wzr, eq
0x0000000000417a74:  35ffe5a1      cbnz w1, #-0x34c (addr 0x417728)

----------------
IN: __vfprintf_internal
0x0000000000417a78:  36ffcfa0      tbz w0, #31, #-0x60c (addr 0x41746c)

----------------
IN: __vfprintf_internal
0x000000000041746c:  f940c3e2      ldr x2, [sp, #384]
0x0000000000417470:  528004a1      mov w1, #0x25
0x0000000000417474:  1100079c      add w28, w28, #0x1 (1)
0x0000000000417478:  91000442      add x2, x2, #0x1 (1)
0x000000000041747c:  f9004fe2      str x2, [sp, #152]
0x0000000000417480:  aa0203e0      mov x0, x2
0x0000000000417484:  f900c3e2      str x2, [sp, #384]
0x0000000000417488:  940051ce      bl #+0x14738 (addr 0x42bbc0)

----------------
IN: __vfprintf_internal
0x000000000041748c:  f900c3e0      str x0, [sp, #384]
0x0000000000417490:  f9404fe2      ldr x2, [sp, #152]
0x0000000000417494:  f9406f61      ldr x1, [x27, #216]
0x0000000000417498:  cb020015      sub x21, x0, x2
0x000000000041749c:  cb1a0020      sub x0, x1, x26
0x00000000004174a0:  eb0002ff      cmp x23, x0
0x00000000004174a4:  540072e9      b.ls #+0xe5c (addr 0x418300)

----------------
IN: __vfprintf_internal
0x00000000004174a8:  f9401c23      ldr x3, [x1, #56]
0x00000000004174ac:  aa1b03e0      mov x0, x27
0x00000000004174b0:  aa0203e1      mov x1, x2
0x00000000004174b4:  aa1503e2      mov x2, x21
0x00000000004174b8:  d63f0060      blr x3

----------------
IN: __vfprintf_internal
0x00000000004174bc:  eb15001f      cmp x0, x21
0x00000000004174c0:  54007181      b.ne #+0xe30 (addr 0x4182f0)

----------------
IN: __vfprintf_internal
0x00000000004174c4:  ab33c2a0      adds x0, x21, w19, sxtw
0x00000000004174c8:  52800001      mov w1, #0x0
0x00000000004174cc:  5400d7e4      b.mi #+0x1afc (addr 0x418fc8)

----------------
IN: __vfprintf_internal
0x00000000004174d0:  eb15001f      cmp x0, x21
0x00000000004174d4:  5400d7a3      b.lo #+0x1af4 (addr 0x418fc8)

----------------
IN: __vfprintf_internal
0x00000000004174d8:  eb20c01f      cmp x0, w0, sxtw
0x00000000004174dc:  2a0003f3      mov w19, w0
0x00000000004174e0:  1a9f0421      csinc w1, w1, wzr, eq
0x00000000004174e4:  35001221      cbnz w1, #+0x244 (addr 0x417728)

----------------
IN: __vfprintf_internal
0x00000000004174e8:  37ffee00      tbnz w0, #31, #-0x240 (addr 0x4172a8)

----------------
IN: __vfprintf_internal
0x00000000004174ec:  f940c3e0      ldr x0, [sp, #384]
0x00000000004174f0:  39400001      ldrb w1, [x0]
0x00000000004174f4:  35ffebe1      cbnz w1, #-0x284 (addr 0x417270)

----------------
IN: __vfprintf_internal
0x00000000004174f8:  17ffff6c      b #-0x250 (addr 0x4172a8)

----------------
IN: __vfprintf_internal
0x00000000004172a8:  b9400360      ldr w0, [x27]
0x00000000004172ac:  36780240      tbz w0, #15, #+0x48 (addr 0x4172f4)

----------------
IN: __vfprintf_internal
0x00000000004172f4:  f9404774      ldr x20, [x27, #136]
0x00000000004172f8:  b9400680      ldr w0, [x20, #4]
0x00000000004172fc:  51000400      sub w0, w0, #0x1 (1)
0x0000000000417300:  b9000680      str w0, [x20, #4]
0x0000000000417304:  35fffd60      cbnz w0, #-0x54 (addr 0x4172b0)

----------------
IN: __vfprintf_internal
0x0000000000417308:  f900069f      str xzr, [x20, #8]
0x000000000041730c:  aa1403e1      mov x1, x20
0x0000000000417310:  94013478      bl #+0x4d1e0 (addr 0x4644f0)

----------------
IN: __vfprintf_internal
0x0000000000417314:  7100041f      cmp w0, #0x1 (1)
0x0000000000417318:  54fffccd      b.le #-0x68 (addr 0x4172b0)

----------------
IN: __vfprintf_internal
0x00000000004172b0:  b940c7e0      ldr w0, [sp, #196]
0x00000000004172b4:  350015e0      cbnz w0, #+0x2bc (addr 0x417570)

----------------
IN: __vfprintf_internal
0x0000000000417570:  910763e0      add x0, sp, #0x1d8 (472)
0x0000000000417574:  94003014      bl #+0xc050 (addr 0x4235c4)

----------------
IN: __vfprintf_internal
0x0000000000417578:  17ffff50      b #-0x2c0 (addr 0x4172b8)

----------------
IN: __vfprintf_internal
0x00000000004172b8:  f945ded6      ldr x22, [x22, #3000]
0x00000000004172bc:  f942ffe0      ldr x0, [sp, #1528]
0x00000000004172c0:  f94002c1      ldr x1, [x22]
0x00000000004172c4:  eb010000      subs x0, x0, x1
0x00000000004172c8:  d2800001      mov x1, #0x0
0x00000000004172cc:  5400e941      b.ne #+0x1d28 (addr 0x418ff4)

----------------
IN: __vfprintf_internal
0x00000000004172d0:  2a1303e0      mov w0, w19
0x00000000004172d4:  a9437bfd      ldp x29, x30, [sp, #48]
0x00000000004172d8:  a94453f3      ldp x19, x20, [sp, #64]
0x00000000004172dc:  a9455bf5      ldp x21, x22, [sp, #80]
0x00000000004172e0:  a94663f7      ldp x23, x24, [sp, #96]
0x00000000004172e4:  a9476bf9      ldp x25, x26, [sp, #112]
0x00000000004172e8:  a94873fb      ldp x27, x28, [sp, #128]
0x00000000004172ec:  911803ff      add sp, sp, #0x600 (1536)
0x00000000004172f0:  d65f03c0      ret

----------------
IN: __printf
0x000000000040e304:  f945de73      ldr x19, [x19, #3000]
0x000000000040e308:  f94037e1      ldr x1, [sp, #104]
0x000000000040e30c:  f9400262      ldr x2, [x19]
0x000000000040e310:  eb020021      subs x1, x1, x2
0x000000000040e314:  d2800002      mov x2, #0x0
0x000000000040e318:  54000081      b.ne #+0x10 (addr 0x40e328)

----------------
IN: __printf
0x000000000040e31c:  f9400bf3      ldr x19, [sp, #16]
0x000000000040e320:  a8d37bfd      ldp x29, x30, [sp], #304
0x000000000040e324:  d65f03c0      ret

----------------
IN: safe_printf
0x0000000000402300:  14000006      b #+0x18 (addr 0x402318)

----------------
IN: safe_printf
0x0000000000402318:  a8c37bfd      ldp x29, x30, [sp], #48
0x000000000040231c:  d65f03c0      ret

----------------
IN: generate
0x0000000000403168:  f0000500      adrp x0, #+0xa3000 (addr 0x4a6000)
0x000000000040316c:  f945cc00      ldr x0, [x0, #2968]
0x0000000000403170:  f9400000      ldr x0, [x0]
0x0000000000403174:  94005bdb      bl #+0x16f6c (addr 0x41a0e0)

----------------
IN: _IO_fflush
0x000000000041a0e0:  b4000720      cbz x0, #+0xe4 (addr 0x41a1c4)

----------------
IN: _IO_fflush
0x000000000041a0e4:  a9bd7bfd      stp x29, x30, [sp, #-48]!
0x000000000041a0e8:  910003fd      mov x29, sp
0x000000000041a0ec:  a90153f3      stp x19, x20, [sp, #16]
0x000000000041a0f0:  aa0003f3      mov x19, x0
0x000000000041a0f4:  b9400000      ldr w0, [x0]
0x000000000041a0f8:  f90013f5      str x21, [sp, #32]
0x000000000041a0fc:  37780220      tbnz w0, #15, #+0x44 (addr 0x41a140)

----------------
IN: _IO_fflush
0x000000000041a100:  f9404674      ldr x20, [x19, #136]
0x000000000041a104:  d53bd055      mrs x21, (unknown)
0x000000000041a108:  d11f02b5      sub x21, x21, #0x7c0 (1984)
0x000000000041a10c:  f9400680      ldr x0, [x20, #8]
0x000000000041a110:  eb15001f      cmp x0, x21
0x000000000041a114:  54000100      b.eq #+0x20 (addr 0x41a134)

----------------
IN: _IO_fflush
0x000000000041a118:  aa1403e2      mov x2, x20
0x000000000041a11c:  52800021      mov w1, #0x1
0x000000000041a120:  52800000      mov w0, #0x0
0x000000000041a124:  9401285f      bl #+0x4a17c (addr 0x4642a0)

----------------
IN: _IO_fflush
0x000000000041a128:  35000540      cbnz w0, #+0xa8 (addr 0x41a1d0)

----------------
IN: _IO_fflush
0x000000000041a12c:  f9404674      ldr x20, [x19, #136]
0x000000000041a130:  f9000695      str x21, [x20, #8]
0x000000000041a134:  b9400680      ldr w0, [x20, #4]
0x000000000041a138:  11000400      add w0, w0, #0x1 (1)
0x000000000041a13c:  b9000680      str w0, [x20, #4]
0x000000000041a140:  90000460      adrp x0, #+0x8c000 (addr 0x4a6000)
0x000000000041a144:  f9406e74      ldr x20, [x19, #216]
0x000000000041a148:  f9465001      ldr x1, [x0, #3232]
0x000000000041a14c:  f9470000      ldr x0, [x0, #3584]
0x000000000041a150:  cb000021      sub x1, x1, x0
0x000000000041a154:  cb000280      sub x0, x20, x0
0x000000000041a158:  eb00003f      cmp x1, x0
0x000000000041a15c:  54000369      b.ls #+0x6c (addr 0x41a1c8)

----------------
IN: _IO_fflush
0x000000000041a160:  f9403281      ldr x1, [x20, #96]
0x000000000041a164:  aa1303e0      mov x0, x19
0x000000000041a168:  d63f0020      blr x1

----------------
IN: _IO_file_sync
0x0000000000420a90:  a9bd7bfd      stp x29, x30, [sp, #-48]!
0x0000000000420a94:  910003fd      mov x29, sp
0x0000000000420a98:  a9420801      ldp x1, x2, [x0, #32]
0x0000000000420a9c:  a90153f3      stp x19, x20, [sp, #16]
0x0000000000420aa0:  aa0003f3      mov x19, x0
0x0000000000420aa4:  eb01005f      cmp x2, x1
0x0000000000420aa8:  54000149      b.ls #+0x28 (addr 0x420ad0)

----------------
IN: _IO_file_sync
0x0000000000420aac:  b940c003      ldr w3, [x0, #192]
0x0000000000420ab0:  7100007f      cmp w3, #0x0 (0)
0x0000000000420ab4:  5400040d      b.le #+0x80 (addr 0x420b34)

----------------
IN: _IO_file_sync
0x0000000000420b34:  cb010042      sub x2, x2, x1
0x0000000000420b38:  97fffdc2      bl #-0x8f8 (addr 0x420240)

----------------
IN: _IO_new_do_write
0x000000000042024c:  a9be7bfd      stp x29, x30, [sp, #-32]!
0x0000000000420250:  910003fd      mov x29, sp
0x0000000000420254:  f9000bf3      str x19, [sp, #16]
0x0000000000420258:  aa0203f3      mov x19, x2
0x000000000042025c:  97fff999      bl #-0x199c (addr 0x41e8c0)

----------------
IN: new_do_write
0x000000000041e8c0:  a9bc7bfd      stp x29, x30, [sp, #-64]!
0x000000000041e8c4:  90000443      adrp x3, #+0x88000 (addr 0x4a6000)
0x000000000041e8c8:  910003fd      mov x29, sp
0x000000000041e8cc:  a90153f3      stp x19, x20, [sp, #16]
0x000000000041e8d0:  aa0003f3      mov x19, x0
0x000000000041e8d4:  b9400000      ldr w0, [x0]
0x000000000041e8d8:  a9025bf5      stp x21, x22, [sp, #32]
0x000000000041e8dc:  f9470076      ldr x22, [x3, #3584]
0x000000000041e8e0:  a90363f7      stp x23, x24, [sp, #48]
0x000000000041e8e4:  aa0103f7      mov x23, x1
0x000000000041e8e8:  f9465063      ldr x3, [x3, #3232]
0x000000000041e8ec:  aa0203f8      mov x24, x2
0x000000000041e8f0:  f9406e75      ldr x21, [x19, #216]
0x000000000041e8f4:  cb160074      sub x20, x3, x22
0x000000000041e8f8:  366004a0      tbz w0, #12, #+0x94 (addr 0x41e98c)

----------------
IN: new_do_write
0x000000000041e98c:  f9400a60      ldr x0, [x19, #16]
0x000000000041e990:  f9401261      ldr x1, [x19, #32]
0x000000000041e994:  eb01001f      cmp x0, x1
0x000000000041e998:  54fffb60      b.eq #-0x94 (addr 0x41e904)

----------------
IN: new_do_write
0x000000000041e904:  cb1602b6      sub x22, x21, x22
0x000000000041e908:  eb1402df      cmp x22, x20
0x000000000041e90c:  54000722      b.hs #+0xe4 (addr 0x41e9f0)

----------------
IN: new_do_write
0x000000000041e910:  f9403ea3      ldr x3, [x21, #120]
0x000000000041e914:  aa1803e2      mov x2, x24
0x000000000041e918:  aa1703e1      mov x1, x23
0x000000000041e91c:  aa1303e0      mov x0, x19
0x000000000041e920:  d63f0060      blr x3

----------------
IN: _IO_new_file_write
0x000000000041f780:  a9bd7bfd      stp x29, x30, [sp, #-48]!
0x000000000041f784:  910003fd      mov x29, sp
0x000000000041f788:  a9025bf5      stp x21, x22, [sp, #32]
0x000000000041f78c:  aa0003f5      mov x21, x0
0x000000000041f790:  f100005f      cmp x2, #0x0 (0)
0x000000000041f794:  5400042d      b.le #+0x84 (addr 0x41f818)

----------------
IN: _IO_new_file_write
0x000000000041f798:  aa0203f6      mov x22, x2
0x000000000041f79c:  a90153f3      stp x19, x20, [sp, #16]
0x000000000041f7a0:  aa0103f4      mov x20, x1
0x000000000041f7a4:  aa0203f3      mov x19, x2
0x000000000041f7a8:  294e0ea0      ldp w0, w3, [x21, #112]
0x000000000041f7ac:  aa1303e2      mov x2, x19
0x000000000041f7b0:  aa1403e1      mov x1, x20
0x000000000041f7b4:  37080203      tbnz w3, #1, #+0x40 (addr 0x41f7f4)

----------------
IN: _IO_new_file_write
0x000000000041f7b8:  9400402e      bl #+0x100b8 (addr 0x42f870)

----------------
IN: write
0x000000000042f870:  a9bd7bfd      stp x29, x30, [sp, #-48]!
0x000000000042f874:  910003fd      mov x29, sp
0x000000000042f878:  a9025bf5      stp x21, x22, [sp, #32]
0x000000000042f87c:  d53bd056      mrs x22, (unknown)
0x000000000042f880:  d11f02c3      sub x3, x22, #0x7c0 (1984)
0x000000000042f884:  a90153f3      stp x19, x20, [sp, #16]
0x000000000042f888:  93407c13      sxtw x19, w0
0x000000000042f88c:  b9400060      ldr w0, [x3]
0x000000000042f890:  35000180      cbnz w0, #+0x30 (addr 0x42f8c0)

----------------
IN: write
0x000000000042f894:  aa1303e0      mov x0, x19
0x000000000042f898:  d2800808      mov x8, #0x40
0x000000000042f89c:  d4000001      svc #0x0

Once----------------
IN: write
0x000000000042f8a0:  aa0003f3      mov x19, x0
0x000000000042f8a4:  b140041f      cmn x0, #0x1000 (4096)
0x000000000042f8a8:  54000328      b.hi #+0x64 (addr 0x42f90c)

----------------
IN: write
0x000000000042f8ac:  aa1303e0      mov x0, x19
0x000000000042f8b0:  a94153f3      ldp x19, x20, [sp, #16]
0x000000000042f8b4:  a9425bf5      ldp x21, x22, [sp, #32]
0x000000000042f8b8:  a8c37bfd      ldp x29, x30, [sp], #48
0x000000000042f8bc:  d65f03c0      ret

----------------
IN: _IO_new_file_write
0x000000000041f7bc:  b7f80220      tbnz x0, #63, #+0x44 (addr 0x41f800)

----------------
IN: _IO_new_file_write
0x000000000041f7c0:  cb000273      sub x19, x19, x0
0x000000000041f7c4:  8b000294      add x20, x20, x0
0x000000000041f7c8:  f100027f      cmp x19, #0x0 (0)
0x000000000041f7cc:  54fffeec      b.gt #-0x24 (addr 0x41f7a8)

----------------
IN: _IO_new_file_write
0x000000000041f7d0:  cb1302c0      sub x0, x22, x19
0x000000000041f7d4:  a94153f3      ldp x19, x20, [sp, #16]
0x000000000041f7d8:  f9404aa1      ldr x1, [x21, #144]
0x000000000041f7dc:  b7f80061      tbnz x1, #63, #+0xc (addr 0x41f7e8)

----------------
IN: _IO_new_file_write
0x000000000041f7e8:  a9425bf5      ldp x21, x22, [sp, #32]
0x000000000041f7ec:  a8c37bfd      ldp x29, x30, [sp], #48
0x000000000041f7f0:  d65f03c0      ret

----------------
IN: new_do_write
0x000000000041e924:  aa0003f5      mov x21, x0
0x000000000041e928:  79410260      ldrh w0, [x19, #128]
0x000000000041e92c:  f10002bf      cmp x21, #0x0 (0)
0x000000000041e930:  7a401804      ccmp w0, #0, #nZcv, ne
0x000000000041e934:  54000501      b.ne #+0xa0 (addr 0x41e9d4)

----------------
IN: new_do_write
0x000000000041e938:  b940c260      ldr w0, [x19, #192]
0x000000000041e93c:  f9401e61      ldr x1, [x19, #56]
0x000000000041e940:  a9008661      stp x1, x1, [x19, #8]
0x000000000041e944:  a9018661      stp x1, x1, [x19, #24]
0x000000000041e948:  f9001661      str x1, [x19, #40]
0x000000000041e94c:  7100001f      cmp w0, #0x0 (0)
0x000000000041e950:  5400012d      b.le #+0x24 (addr 0x41e974)

----------------
IN: new_do_write
0x000000000041e974:  b9400262      ldr w2, [x19]
0x000000000041e978:  52804040      mov w0, #0x202
0x000000000041e97c:  6a00005f      tst w2, w0
0x000000000041e980:  54fffec1      b.ne #-0x28 (addr 0x41e958)

----------------
IN: new_do_write
0x000000000041e984:  f9402261      ldr x1, [x19, #64]
0x000000000041e988:  17fffff4      b #-0x30 (addr 0x41e958)

----------------
IN: new_do_write
0x000000000041e958:  f9001a61      str x1, [x19, #48]
0x000000000041e95c:  aa1503e0      mov x0, x21
0x000000000041e960:  a94153f3      ldp x19, x20, [sp, #16]
0x000000000041e964:  a9425bf5      ldp x21, x22, [sp, #32]
0x000000000041e968:  a94363f7      ldp x23, x24, [sp, #48]
0x000000000041e96c:  a8c47bfd      ldp x29, x30, [sp], #64
0x000000000041e970:  d65f03c0      ret

----------------
IN: _IO_new_do_write
0x0000000000420260:  eb00027f      cmp x19, x0
0x0000000000420264:  5a9f03e0      csetm w0, ne
0x0000000000420268:  f9400bf3      ldr x19, [sp, #16]
0x000000000042026c:  a8c27bfd      ldp x29, x30, [sp], #32
0x0000000000420270:  d65f03c0      ret

----------------
IN: _IO_file_sync
0x0000000000420b3c:  34fffca0      cbz w0, #-0x6c (addr 0x420ad0)

----------------
IN: _IO_file_sync
0x0000000000420ad0:  a9408261      ldp x1, x0, [x19, #8]
0x0000000000420ad4:  eb000021      subs x1, x1, x0
0x0000000000420ad8:  54000220      b.eq #+0x44 (addr 0x420b1c)

----------------
IN: _IO_file_sync
0x0000000000420b1c:  92800001      mov x1, #0xffffffffffffffff
0x0000000000420b20:  52800000      mov w0, #0x0
0x0000000000420b24:  f9004a61      str x1, [x19, #144]
0x0000000000420b28:  a94153f3      ldp x19, x20, [sp, #16]
0x0000000000420b2c:  a8c37bfd      ldp x29, x30, [sp], #48
0x0000000000420b30:  d65f03c0      ret

----------------
IN: _IO_fflush
0x000000000041a16c:  b9400261      ldr w1, [x19]
0x000000000041a170:  7100001f      cmp w0, #0x0 (0)
0x000000000041a174:  5a9f03f4      csetm w20, ne
0x000000000041a178:  377800c1      tbnz w1, #15, #+0x18 (addr 0x41a190)

----------------
IN: _IO_fflush
0x000000000041a17c:  f9404673      ldr x19, [x19, #136]
0x000000000041a180:  b9400660      ldr w0, [x19, #4]
0x000000000041a184:  51000400      sub w0, w0, #0x1 (1)
0x000000000041a188:  b9000660      str w0, [x19, #4]
0x000000000041a18c:  340000c0      cbz w0, #+0x18 (addr 0x41a1a4)

----------------
IN: _IO_fflush
0x000000000041a1a4:  f900067f      str xzr, [x19, #8]
0x000000000041a1a8:  aa1303e1      mov x1, x19
0x000000000041a1ac:  940128d1      bl #+0x4a344 (addr 0x4644f0)

----------------
IN: _IO_fflush
0x000000000041a1b0:  7100041f      cmp w0, #0x1 (1)
0x000000000041a1b4:  54fffeed      b.le #-0x24 (addr 0x41a190)

----------------
IN: _IO_fflush
0x000000000041a190:  2a1403e0      mov w0, w20
0x000000000041a194:  a94153f3      ldp x19, x20, [sp, #16]
0x000000000041a198:  f94013f5      ldr x21, [sp, #32]
0x000000000041a19c:  a8c37bfd      ldp x29, x30, [sp], #48
0x000000000041a1a0:  d65f03c0      ret

----------------
IN: generate
0x0000000000403178:  b9404fe0      ldr w0, [sp, #76]
0x000000000040317c:  b90053e0      str w0, [sp, #80]
0x0000000000403180:  f9402fe0      ldr x0, [sp, #88]
0x0000000000403184:  f100001f      cmp x0, #0x0 (0)
0x0000000000403188:  54000061      b.ne #+0xc (addr 0x403194)

----------------
IN: generate
0x000000000040318c:  97ffff74      bl #-0x230 (addr 0x402f5c)

----------------
IN: time_in_ms
0x0000000000402f5c:  a9bd7bfd      stp x29, x30, [sp, #-48]!
0x0000000000402f60:  910003fd      mov x29, sp
0x0000000000402f64:  90000520      adrp x0, #+0xa4000 (addr 0x4a6000)
0x0000000000402f68:  f945dc00      ldr x0, [x0, #3000]
0x0000000000402f6c:  f9400001      ldr x1, [x0]
0x0000000000402f70:  f90017e1      str x1, [sp, #40]
0x0000000000402f74:  d2800001      mov x1, #0x0
0x0000000000402f78:  910063e0      add x0, sp, #0x18 (24)
0x0000000000402f7c:  aa0003e1      mov x1, x0
0x0000000000402f80:  52800000      mov w0, #0x0
0x0000000000402f84:  9400af63      bl #+0x2bd8c (addr 0x42ed10)

----------------
IN: time_in_ms
0x0000000000402f88:  f9400fe1      ldr x1, [sp, #24]
0x0000000000402f8c:  aa0103e0      mov x0, x1
0x0000000000402f90:  d37be800      lsl x0, x0, #5
0x0000000000402f94:  cb010000      sub x0, x0, x1
0x0000000000402f98:  d37ef400      lsl x0, x0, #2
0x0000000000402f9c:  8b010000      add x0, x0, x1
0x0000000000402fa0:  d37df000      lsl x0, x0, #3
0x0000000000402fa4:  aa0003e2      mov x2, x0
0x0000000000402fa8:  f94013e0      ldr x0, [sp, #32]
0x0000000000402fac:  d2869b61      mov x1, #0x34db
0x0000000000402fb0:  f2baf6c1      movk x1, #0xd7b6, lsl #16
0x0000000000402fb4:  f2dbd041      movk x1, #0xde82, lsl #32
0x0000000000402fb8:  f2e86361      movk x1, #0x431b, lsl #48
0x0000000000402fbc:  9b417c01      smulh x1, x0, x1
0x0000000000402fc0:  9352fc21      asr x1, x1, #18
0x0000000000402fc4:  937ffc00      asr x0, x0, #63
0x0000000000402fc8:  cb000020      sub x0, x1, x0
0x0000000000402fcc:  8b000040      add x0, x2, x0
0x0000000000402fd0:  aa0003e1      mov x1, x0
0x0000000000402fd4:  90000520      adrp x0, #+0xa4000 (addr 0x4a6000)
0x0000000000402fd8:  f945dc00      ldr x0, [x0, #3000]
0x0000000000402fdc:  f94017e3      ldr x3, [sp, #40]
0x0000000000402fe0:  f9400002      ldr x2, [x0]
0x0000000000402fe4:  eb020063      subs x3, x3, x2
0x0000000000402fe8:  d2800002      mov x2, #0x0
0x0000000000402fec:  54000040      b.eq #+0x8 (addr 0x402ff4)

----------------
IN: time_in_ms
0x0000000000402ff4:  aa0103e0      mov x0, x1
0x0000000000402ff8:  a8c37bfd      ldp x29, x30, [sp], #48
0x0000000000402ffc:  d65f03c0      ret

----------------
IN: generate
0x0000000000403190:  f9002fe0      str x0, [sp, #88]
0x0000000000403194:  b94057e1      ldr w1, [sp, #84]
0x0000000000403198:  b9401fe0      ldr w0, [sp, #28]
0x000000000040319c:  6b00003f      cmp w1, w0
0x00000000004031a0:  54fff9eb      b.lt #-0xc4 (addr 0x4030dc)

----------------
IN: cosf
0x00000000004040c4:  7110b81f      cmp w0, #0x42e (1070)
0x00000000004040c8:  540004c8      b.hi #+0x98 (addr 0x404160)

----------------
IN: cosf
0x00000000004040cc:  d0000503      adrp x3, #+0xa2000 (addr 0x4a6000)
0x00000000004040d0:  f946a060      ldr x0, [x3, #3392]
0x00000000004040d4:  9101c001      add x1, x0, #0x70 (112)
0x00000000004040d8:  6d420800      ldp d0, d2, [x0, #32]
0x00000000004040dc:  1e600820      fmul d0, d1, d0
0x00000000004040e0:  1e664003      frinta d3, d0
0x00000000004040e4:  9e640002      fcvtas x2, d0
0x00000000004040e8:  1f428461      fmsub d1, d3, d2, d1
0x00000000004040ec:  f27f005f      tst x2, #0x2
0x00000000004040f0:  9a801021      csel x1, x1, x0, ne
0x00000000004040f4:  1e610822      fmul d2, d1, d1
0x00000000004040f8:  360001a2      tbz w2, #0, #+0x34 (addr 0x40412c)

----------------
IN: cosf
0x00000000004040fc:  92400442      and x2, x2, #0x3
0x0000000000404100:  fd403425      ldr d5, [x1, #104]
0x0000000000404104:  6d458024      ldp d4, d0, [x1, #88]
0x0000000000404108:  fc627803      ldr d3, [x0, x2, lsl #3]
0x000000000040410c:  1f450040      fmadd d0, d2, d5, d0
0x0000000000404110:  1e630821      fmul d1, d1, d3
0x0000000000404114:  1e620823      fmul d3, d1, d2
0x0000000000404118:  1f440461      fmadd d1, d3, d4, d1
0x000000000040411c:  1e630842      fmul d2, d2, d3
0x0000000000404120:  1f420401      fmadd d1, d0, d2, d1
0x0000000000404124:  1e624020      fcvt s0, d1
0x0000000000404128:  d65f03c0      ret

----------------
IN: sinf
0x00000000004042a0:  7110b81f      cmp w0, #0x42e (1070)
0x00000000004042a4:  54000508      b.hi #+0xa0 (addr 0x404344)

----------------
IN: sinf
0x00000000004042a8:  d0000503      adrp x3, #+0xa2000 (addr 0x4a6000)
0x00000000004042ac:  f946a060      ldr x0, [x3, #3392]
0x00000000004042b0:  9101c001      add x1, x0, #0x70 (112)
0x00000000004042b4:  6d420800      ldp d0, d2, [x0, #32]
0x00000000004042b8:  1e600820      fmul d0, d1, d0
0x00000000004042bc:  1e664003      frinta d3, d0
0x00000000004042c0:  9e640002      fcvtas x2, d0
0x00000000004042c4:  1f428461      fmsub d1, d3, d2, d1
0x00000000004042c8:  f27f005f      tst x2, #0x2
0x00000000004042cc:  9a801021      csel x1, x1, x0, ne
0x00000000004042d0:  1e610822      fmul d2, d1, d1
0x00000000004042d4:  370001a2      tbnz w2, #0, #+0x34 (addr 0x404308)

----------------
IN: sinf
0x0000000000404308:  6d431420      ldp d0, d5, [x1, #48]
0x000000000040430c:  1e620843      fmul d3, d2, d2
0x0000000000404310:  6d449021      ldp d1, d4, [x1, #72]
0x0000000000404314:  1f450040      fmadd d0, d2, d5, d0
0x0000000000404318:  1f440441      fmadd d1, d2, d4, d1
0x000000000040431c:  fd402024      ldr d4, [x1, #64]
0x0000000000404320:  1e630842      fmul d2, d2, d3
0x0000000000404324:  1f440060      fmadd d0, d3, d4, d0
0x0000000000404328:  1f420020      fmadd d0, d1, d2, d0
0x000000000040432c:  1e624000      fcvt s0, d0
0x0000000000404330:  d65f03c0      ret

----------------
IN: cosf
0x0000000000404090:  d0000501      adrp x1, #+0xa2000 (addr 0x4a6000)
0x0000000000404094:  1e610823      fmul d3, d1, d1
0x0000000000404098:  f946a020      ldr x0, [x1, #3392]
0x000000000040409c:  1e630824      fmul d4, d1, d3
0x00000000004040a0:  6d431800      ldp d0, d6, [x0, #48]
0x00000000004040a4:  6d449402      ldp d2, d5, [x0, #72]
0x00000000004040a8:  1f460020      fmadd d0, d1, d6, d0
0x00000000004040ac:  1f450821      fmadd d1, d1, d5, d2
0x00000000004040b0:  fd402002      ldr d2, [x0, #64]
0x00000000004040b4:  1f420060      fmadd d0, d3, d2, d0
0x00000000004040b8:  1f440020      fmadd d0, d1, d4, d0
0x00000000004040bc:  1e624000      fcvt s0, d0
0x00000000004040c0:  d65f03c0      ret

----------------
IN: sinf
0x0000000000404274:  d0000501      adrp x1, #+0xa2000 (addr 0x4a6000)
0x0000000000404278:  1e630820      fmul d0, d1, d3
0x000000000040427c:  f946a020      ldr x0, [x1, #3392]
0x0000000000404280:  1e600864      fmul d4, d3, d0
0x0000000000404284:  6d458805      ldp d5, d2, [x0, #88]
0x0000000000404288:  fd403406      ldr d6, [x0, #104]
0x000000000040428c:  1f450400      fmadd d0, d0, d5, d1
0x0000000000404290:  1f460862      fmadd d2, d3, d6, d2
0x0000000000404294:  1f440040      fmadd d0, d2, d4, d0
0x0000000000404298:  1e624000      fcvt s0, d0
0x000000000040429c:  d65f03c0      ret

----------------
IN: sinf
0x000000000040429c:  d65f03c0      ret

----------------
IN: qsort_r
0x0000000000409710:  91003e73      add x19, x19, #0xf (15)
0x0000000000409714:  9270be60      and x0, x19, #0xffffffffffff0000
0x0000000000409718:  927cee73      and x19, x19, #0xfffffffffffffff0
0x000000000040971c:  cb2063e0      sub x0, sp, x0
0x0000000000409720:  eb2063ff      cmp sp, x0
0x0000000000409724:  540000a0      b.eq #+0x14 (addr 0x409738)

----------------
IN: qsort_r
0x0000000000409738:  92403e73      and x19, x19, #0xffff
0x000000000040973c:  cb3363ff      sub sp, sp, x19
0x0000000000409740:  f90003ff      str xzr, [sp]
0x0000000000409744:  f110027f      cmp x19, #0x400 (1024)
0x0000000000409748:  54000043      b.lo #+0x8 (addr 0x409750)

----------------
IN: qsort_r
0x0000000000409750:  910043fc      add x28, sp, #0x10 (16)
0x0000000000409754:  d2800080      mov x0, #0x4
0x0000000000409758:  f90037bf      str xzr, [x29, #104]
0x000000000040975c:  a90703bb      stp x27, x0, [x29, #112]
0x0000000000409760:  a90857b8      stp x24, x21, [x29, #128]
0x0000000000409764:  f9004bbc      str x28, [x29, #144]
0x0000000000409768:  f100837f      cmp x27, #0x20 (32)
0x000000000040976c:  54000688      b.hi #+0xd0 (addr 0x40983c)

----------------
IN: decode
0x00000000004021f0:  9100bfe0      add x0, sp, #0x2f (47)
0x00000000004021f4:  aa0003e2      mov x2, x0
0x00000000004021f8:  b0000340      adrp x0, #+0x69000 (addr 0x46b000)
0x00000000004021fc:  911e4001      add x1, x0, #0x790 (1936)
0x0000000000402200:  f9401be0      ldr x0, [sp, #48]
0x0000000000402204:  940030a7      bl #+0xc29c (addr 0x40e4a0)

----------------
IN: __vfprintf_internal
0x00000000004174fc:  3100045f      cmn w2, #0x1 (1)
0x0000000000417500:  54ffe3a0      b.eq #-0x38c (addr 0x417174)

----------------
IN: __vfprintf_internal
0x0000000000417174:  b9400373      ldr w19, [x27]
0x0000000000417178:  3718df13      tbnz w19, #3, #+0x1be0 (addr 0x418d58)

----------------
IN: _IO_new_file_xsputn
0x000000000041fd9c:  cb000042      sub x2, x2, x0
0x000000000041fda0:  d2800018      mov x24, #0x0
0x000000000041fda4:  b4000362      cbz x2, #+0x6c (addr 0x41fe10)

----------------
IN: _IO_new_file_xsputn
0x000000000041fda8:  eb02027f      cmp x19, x2
0x000000000041fdac:  aa1703e1      mov x1, x23
0x000000000041fdb0:  9a829274      csel x20, x19, x2, ls
0x000000000041fdb4:  8b1402f7      add x23, x23, x20
0x000000000041fdb8:  cb140275      sub x21, x19, x20
0x000000000041fdbc:  aa1403e2      mov x2, x20
0x000000000041fdc0:  97ff813c      bl #-0x1fb10 (addr 0x4002b0)

----------------
IN: _IO_new_file_xsputn
0x000000000041fdc4:  8b140000      add x0, x0, x20
0x000000000041fdc8:  f90016c0      str x0, [x22, #40]
0x000000000041fdcc:  ab1802bf      cmn x21, x24
0x000000000041fdd0:  54000221      b.ne #+0x44 (addr 0x41fe14)

----------------
IN: _IO_new_file_xsputn
0x000000000041fdd4:  cb150273      sub x19, x19, x21
0x000000000041fdd8:  a9425bf5      ldp x21, x22, [sp, #32]
0x000000000041fddc:  a94363f7      ldp x23, x24, [sp, #48]
0x000000000041fde0:  aa1303e0      mov x0, x19
0x000000000041fde4:  a94153f3      ldp x19, x20, [sp, #16]
0x000000000041fde8:  a8c47bfd      ldp x29, x30, [sp], #64
0x000000000041fdec:  d65f03c0      ret

 upon a----------------
IN: cosf
0x000000000040412c:  6d431420      ldp d0, d5, [x1, #48]
0x0000000000404130:  1e620843      fmul d3, d2, d2
0x0000000000404134:  6d449021      ldp d1, d4, [x1, #72]
0x0000000000404138:  1f450040      fmadd d0, d2, d5, d0
0x000000000040413c:  1f440441      fmadd d1, d2, d4, d1
0x0000000000404140:  fd402024      ldr d4, [x1, #64]
0x0000000000404144:  1e630842      fmul d2, d2, d3
0x0000000000404148:  1f440060      fmadd d0, d3, d4, d0
0x000000000040414c:  1f420020      fmadd d0, d1, d2, d0
0x0000000000404150:  1e624000      fcvt s0, d0
0x0000000000404154:  d65f03c0      ret

----------------
IN: sinf
0x00000000004042d8:  92400442      and x2, x2, #0x3
0x00000000004042dc:  fd403425      ldr d5, [x1, #104]
0x00000000004042e0:  6d458024      ldp d4, d0, [x1, #88]
0x00000000004042e4:  fc627803      ldr d3, [x0, x2, lsl #3]
0x00000000004042e8:  1f450040      fmadd d0, d2, d5, d0
0x00000000004042ec:  1e630821      fmul d1, d1, d3
0x00000000004042f0:  1e620823      fmul d3, d1, d2
0x00000000004042f4:  1f440461      fmadd d1, d3, d4, d1
0x00000000004042f8:  1e630842      fmul d2, d2, d3
0x00000000004042fc:  1f420400      fmadd d0, d0, d2, d1
0x0000000000404300:  1e624000      fcvt s0, d0
0x0000000000404304:  d65f03c0      ret

 time----------------
IN: safe_printf
0x000000000040229c:  f9400fe0      ldr x0, [sp, #24]
0x00000000004022a0:  39400000      ldrb w0, [x0]
0x00000000004022a4:  3900bfe0      strb w0, [sp, #47]
0x00000000004022a8:  94000ae2      bl #+0x2b88 (addr 0x404e30)

----------------
IN: __ctype_b_loc
0x0000000000404e30:  d2a00000      movz x0, #0x0
0x0000000000404e34:  f2800700      movk x0, #0x38
0x0000000000404e38:  d53bd041      mrs x1, (unknown)
0x0000000000404e3c:  8b000020      add x0, x1, x0
0x0000000000404e40:  d65f03c0      ret

----------------
IN: safe_printf
0x00000000004022ac:  f9400001      ldr x1, [x0]
0x00000000004022b0:  3940bfe0      ldrb w0, [sp, #47]
0x00000000004022b4:  d37ff800      lsl x0, x0, #1
0x00000000004022b8:  8b000020      add x0, x1, x0
0x00000000004022bc:  79400000      ldrh w0, [x0]
0x00000000004022c0:  12120000      and w0, w0, #0x4000
0x00000000004022c4:  7100001f      cmp w0, #0x0 (0)
0x00000000004022c8:  54000141      b.ne #+0x28 (addr 0x4022f0)

, there was a----------------
IN: sample_topp
0x0000000000402c6c:  14000007      b #+0x1c (addr 0x402c88)

----------------
IN: sample_topp
0x0000000000402c88:  b94057e0      ldr w0, [sp, #84]
0x0000000000402c8c:  11000400      add w0, w0, #0x1 (1)
0x0000000000402c90:  b90057e0      str w0, [sp, #84]
0x0000000000402c94:  b94057e1      ldr w1, [sp, #84]
0x0000000000402c98:  b9404be0      ldr w0, [sp, #72]
0x0000000000402c9c:  6b00003f      cmp w1, w0
0x0000000000402ca0:  54fffced      b.le #-0x64 (addr 0x402c3c)

 curious----------------
IN: _int_malloc
0x0000000000427868:  f9400402      ldr x2, [x0, #8]
0x000000000042786c:  eb13005f      cmp x2, x19
0x0000000000427870:  54002d62      b.hs #+0x5ac (addr 0x427e1c)

----------------
IN: _int_malloc
0x0000000000427e1c:  f9401415      ldr x21, [x0, #40]
0x0000000000427e20:  14000002      b #+0x8 (addr 0x427e28)

----------------
IN: _int_malloc
0x0000000000427e28:  f94006a2      ldr x2, [x21, #8]
0x0000000000427e2c:  927df057      and x23, x2, #0xfffffffffffffff8
0x0000000000427e30:  eb17027f      cmp x19, x23
0x0000000000427e34:  54ffff88      b.hi #-0x10 (addr 0x427e24)

----------------
IN: _int_malloc
0x0000000000427e38:  f9400c20      ldr x0, [x1, #24]
0x0000000000427e3c:  eb15001f      cmp x0, x21
0x0000000000427e40:  540000a0      b.eq #+0x14 (addr 0x427e54)

----------------
IN: _int_malloc
0x0000000000427e54:  cb1302f8      sub x24, x23, x19
0x0000000000427e58:  aa1503e0      mov x0, x21
0x0000000000427e5c:  97fff401      bl #-0x2ffc (addr 0x424e60)

----------------
IN: _int_malloc
0x0000000000427e60:  f1007f1f      cmp x24, #0x1f (31)
0x0000000000427e64:  54000409      b.ls #+0x80 (addr 0x427ee4)

----------------
IN: _int_malloc
0x0000000000427e68:  f9400b61      ldr x1, [x27, #16]
0x0000000000427e6c:  8b1302a0      add x0, x21, x19
0x0000000000427e70:  f9400c22      ldr x2, [x1, #24]
0x0000000000427e74:  eb1b005f      cmp x2, x27
0x0000000000427e78:  54000301      b.ne #+0x60 (addr 0x427ed8)

----------------
IN: _int_malloc
0x0000000000427e7c:  a9016c01      stp x1, x27, [x0, #16]
0x0000000000427e80:  f9000b60      str x0, [x27, #16]
0x0000000000427e84:  f9000c20      str x0, [x1, #24]
0x0000000000427e88:  f10fff1f      cmp x24, #0x3ff (1023)
0x0000000000427e8c:  54000049      b.ls #+0x8 (addr 0x427e94)

----------------
IN: _int_malloc
0x0000000000427e94:  90000401      adrp x1, #+0x80000 (addr 0x4a7000)
0x0000000000427e98:  9119e021      add x1, x1, #0x678 (1656)
0x0000000000427e9c:  b2400302      orr x2, x24, #0x1
0x0000000000427ea0:  eb01029f      cmp x20, x1
0x0000000000427ea4:  9a9f07e1      cset x1, ne
0x0000000000427ea8:  aa010a61      orr x1, x19, x1, lsl #2
0x0000000000427eac:  b2400021      orr x1, x1, #0x1
0x0000000000427eb0:  f90006a1      str x1, [x21, #8]
0x0000000000427eb4:  f9000402      str x2, [x0, #8]
0x0000000000427eb8:  f8376ab8      str x24, [x21, x23]
0x0000000000427ebc:  910042b5      add x21, x21, #0x10 (16)
0x0000000000427ec0:  aa1603e1      mov x1, x22
0x0000000000427ec4:  aa1503e0      mov x0, x21
0x0000000000427ec8:  17fffee7      b #-0x464 (addr 0x427a64)

 little girl named----------------
IN: _int_malloc
0x0000000000427ba4:  90000401      adrp x1, #+0x80000 (addr 0x4a7000)
0x0000000000427ba8:  9119e021      add x1, x1, #0x678 (1656)
0x0000000000427bac:  b2400322      orr x2, x25, #0x1
0x0000000000427bb0:  eb01029f      cmp x20, x1
0x0000000000427bb4:  9a9f07e1      cset x1, ne
0x0000000000427bb8:  aa010a61      orr x1, x19, x1, lsl #2
0x0000000000427bbc:  b2400021      orr x1, x1, #0x1
0x0000000000427bc0:  f90006a1      str x1, [x21, #8]
0x0000000000427bc4:  f9000402      str x2, [x0, #8]
0x0000000000427bc8:  f8376ab9      str x25, [x21, x23]
0x0000000000427bcc:  b94f5b01      ldr w1, [x24, #3928]
0x0000000000427bd0:  910042b5      add x21, x21, #0x10 (16)
0x0000000000427bd4:  34ffd841      cbz w1, #-0x4f8 (addr 0x4276dc)

 Lily. She loved to explore the world around her and ask many questions. One day, she saw a cactus in her backyard and she was scared to touch it because----------------
IN: generate
0x00000000004031a4:  14000002      b #+0x8 (addr 0x4031ac)

----------------
IN: generate
0x00000000004031ac:  52800140      mov w0, #0xa
0x00000000004031b0:  94006004      bl #+0x18010 (addr 0x41b1c0)

----------------
IN: putchar
0x000000000041b1c0:  a9bc7bfd      stp x29, x30, [sp, #-64]!
0x000000000041b1c4:  910003fd      mov x29, sp
0x000000000041b1c8:  a9025bf5      stp x21, x22, [sp, #32]
0x000000000041b1cc:  f0000455      adrp x21, #+0x8b000 (addr 0x4a6000)
0x000000000041b1d0:  a90153f3      stp x19, x20, [sp, #16]
0x000000000041b1d4:  2a0003f4      mov w20, w0
0x000000000041b1d8:  f945cea0      ldr x0, [x21, #2968]
0x000000000041b1dc:  f9400013      ldr x19, [x0]
0x000000000041b1e0:  b9400260      ldr w0, [x19]
0x000000000041b1e4:  f9001bf7      str x23, [sp, #48]
0x000000000041b1e8:  37780440      tbnz w0, #15, #+0x88 (addr 0x41b270)

----------------
IN: putchar
0x000000000041b1ec:  f9404676      ldr x22, [x19, #136]
0x000000000041b1f0:  d53bd057      mrs x23, (unknown)
0x000000000041b1f4:  d11f02f7      sub x23, x23, #0x7c0 (1984)
0x000000000041b1f8:  f94006c0      ldr x0, [x22, #8]
0x000000000041b1fc:  eb17001f      cmp x0, x23
0x000000000041b200:  54000680      b.eq #+0xd0 (addr 0x41b2d0)

----------------
IN: putchar
0x000000000041b204:  aa1603e2      mov x2, x22
0x000000000041b208:  52800021      mov w1, #0x1
0x000000000041b20c:  52800000      mov w0, #0x0
0x000000000041b210:  94012424      bl #+0x49090 (addr 0x4642a0)

----------------
IN: putchar
0x000000000041b214:  35000620      cbnz w0, #+0xc4 (addr 0x41b2d8)

----------------
IN: putchar
0x000000000041b218:  f945ceb5      ldr x21, [x21, #2968]
0x000000000041b21c:  f9404676      ldr x22, [x19, #136]
0x000000000041b220:  f94002a0      ldr x0, [x21]
0x000000000041b224:  f90006d7      str x23, [x22, #8]
0x000000000041b228:  b94006c1      ldr w1, [x22, #4]
0x000000000041b22c:  12001e95      and w21, w20, #0xff
0x000000000041b230:  11000421      add w1, w1, #0x1 (1)
0x000000000041b234:  b90006c1      str w1, [x22, #4]
0x000000000041b238:  a9428801      ldp x1, x2, [x0, #40]
0x000000000041b23c:  eb02003f      cmp x1, x2
0x000000000041b240:  54000223      b.lo #+0x44 (addr 0x41b284)

----------------
IN: putchar
0x000000000041b284:  91000422      add x2, x1, #0x1 (1)
0x000000000041b288:  f9001402      str x2, [x0, #40]
0x000000000041b28c:  39000034      strb w20, [x1]
0x000000000041b290:  b9400260      ldr w0, [x19]
0x000000000041b294:  377ffe20      tbnz w0, #15, #-0x3c (addr 0x41b258)

----------------
IN: putchar
0x000000000041b298:  f9404673      ldr x19, [x19, #136]
0x000000000041b29c:  b9400662      ldr w2, [x19, #4]
0x000000000041b2a0:  51000442      sub w2, w2, #0x1 (1)
0x000000000041b2a4:  b9000662      str w2, [x19, #4]
0x000000000041b2a8:  35fffd82      cbnz w2, #-0x50 (addr 0x41b258)

----------------
IN: putchar
0x000000000041b2ac:  f900067f      str xzr, [x19, #8]
0x000000000041b2b0:  aa1303e1      mov x1, x19
0x000000000041b2b4:  52800000      mov w0, #0x0
0x000000000041b2b8:  9401248e      bl #+0x49238 (addr 0x4644f0)

----------------
IN: putchar
0x000000000041b2bc:  7100041f      cmp w0, #0x1 (1)
0x000000000041b2c0:  54fffccd      b.le #-0x68 (addr 0x41b258)

----------------
IN: putchar
0x000000000041b258:  2a1503e0      mov w0, w21
0x000000000041b25c:  a94153f3      ldp x19, x20, [sp, #16]
0x000000000041b260:  a9425bf5      ldp x21, x22, [sp, #32]
0x000000000041b264:  f9401bf7      ldr x23, [sp, #48]
0x000000000041b268:  a8c47bfd      ldp x29, x30, [sp], #64
0x000000000041b26c:  d65f03c0      ret

----------------
IN: generate
0x00000000004031b4:  b94057e0      ldr w0, [sp, #84]
0x00000000004031b8:  7100041f      cmp w0, #0x1 (1)
0x00000000004031bc:  540002ed      b.le #+0x5c (addr 0x403218)

----------------
IN: generate
0x00000000004031c0:  97ffff67      bl #-0x264 (addr 0x402f5c)

----------------
IN: generate
0x00000000004031c4:  f90043e0      str x0, [sp, #128]
0x00000000004031c8:  f0000500      adrp x0, #+0xa3000 (addr 0x4a6000)
0x00000000004031cc:  f9475c00      ldr x0, [x0, #3768]
0x00000000004031d0:  f9400002      ldr x2, [x0]
0x00000000004031d4:  b94057e0      ldr w0, [sp, #84]
0x00000000004031d8:  51000400      sub w0, w0, #0x1 (1)
0x00000000004031dc:  1e620001      scvtf d1, w0
0x00000000004031e0:  f94043e1      ldr x1, [sp, #128]
0x00000000004031e4:  f9402fe0      ldr x0, [sp, #88]
0x00000000004031e8:  cb000020      sub x0, x1, x0
0x00000000004031ec:  9e670000      fmov d0, x0
0x00000000004031f0:  5e61d800      scvtf d0, d0
0x00000000004031f4:  1e601820      fdiv d0, d1, d0
0x00000000004031f8:  d2c80000      mov x0, #0x400000000000
0x00000000004031fc:  f2e811e0      movk x0, #0x408f, lsl #48
0x0000000000403200:  9e670001      fmov d1, x0
0x0000000000403204:  1e610800      fmul d0, d0, d1
0x0000000000403208:  90000340      adrp x0, #+0x68000 (addr 0x46b000)
0x000000000040320c:  91206001      add x1, x0, #0x818 (2072)
0x0000000000403210:  aa0203e0      mov x0, x2
0x0000000000403214:  94002beb      bl #+0xafac (addr 0x40e1c0)

----------------
IN: __fprintf
0x000000000040e1c0:  a9ae7bfd      stp x29, x30, [sp, #-288]!
0x000000000040e1c4:  128005ea      mov w10, #0xffffffd0
0x000000000040e1c8:  12800fe9      mov w9, #0xffffff80
0x000000000040e1cc:  910003fd      mov x29, sp
0x000000000040e1d0:  f9000bf3      str x19, [sp, #16]
0x000000000040e1d4:  900004d3      adrp x19, #+0x98000 (addr 0x4a6000)
0x000000000040e1d8:  3d801fe0      str q0, [sp, #112]
0x000000000040e1dc:  9103c3eb      add x11, sp, #0xf0 (240)
0x000000000040e1e0:  910083e8      add x8, sp, #0x20 (32)
0x000000000040e1e4:  f945de6c      ldr x12, [x19, #3000]
0x000000000040e1e8:  3d8023e1      str q1, [sp, #128]
0x000000000040e1ec:  3d8027e2      str q2, [sp, #144]
0x000000000040e1f0:  3d802be3      str q3, [sp, #160]
0x000000000040e1f4:  3d802fe4      str q4, [sp, #176]
0x000000000040e1f8:  3d8033e5      str q5, [sp, #192]
0x000000000040e1fc:  3d8037e6      str q6, [sp, #208]
0x000000000040e200:  3d803be7      str q7, [sp, #224]
0x000000000040e204:  a90f0fe2      stp x2, x3, [sp, #240]
0x000000000040e208:  aa0803e2      mov x2, x8
0x000000000040e20c:  52800003      mov w3, #0x0
0x000000000040e210:  a91017e4      stp x4, x5, [sp, #256]
0x000000000040e214:  a9111fe6      stp x6, x7, [sp, #272]
0x000000000040e218:  f9400184      ldr x4, [x12]
0x000000000040e21c:  f90037e4      str x4, [sp, #104]
0x000000000040e220:  d2800004      mov x4, #0x0
0x000000000040e224:  f9002feb      str x11, [sp, #88]
0x000000000040e228:  910483e4      add x4, sp, #0x120 (288)
0x000000000040e22c:  a90493e4      stp x4, x4, [sp, #72]
0x000000000040e230:  910123e4      add x4, sp, #0x48 (72)
0x000000000040e234:  290c27ea      stp w10, w9, [sp, #96]
0x000000000040e238:  ad400480      ldp q0, q1, [x4]
0x000000000040e23c:  ad000500      stp q0, q1, [x8]
0x000000000040e240:  940023a8      bl #+0x8ea0 (addr 0x4170e0)

----------------
IN: __vfprintf_internal
0x000000000041812c:  b940cbe3      ldr w3, [sp, #200]
0x0000000000418130:  910583e2      add x2, sp, #0x160 (352)
0x0000000000418134:  aa1803e1      mov x1, x24
0x0000000000418138:  aa1b03e0      mov x0, x27
0x000000000041813c:  ad000440      stp q0, q1, [x2]
0x0000000000418140:  940003c8      bl #+0xf20 (addr 0x419060)

----------------
IN: buffered_vfprintf
0x0000000000419060:  d284300c      mov x12, #0x2180
0x0000000000419064:  cb2c63ff      sub sp, sp, x12
0x0000000000419068:  a9007bfd      stp x29, x30, [sp]
0x000000000041906c:  910003fd      mov x29, sp
0x0000000000419070:  a90153f3      stp x19, x20, [sp, #16]
0x0000000000419074:  b0000474      adrp x20, #+0x8d000 (addr 0x4a6000)
0x0000000000419078:  aa0003f3      mov x19, x0
0x000000000041907c:  f945de84      ldr x4, [x20, #3000]
0x0000000000419080:  a9025bf5      stp x21, x22, [sp, #32]
0x0000000000419084:  b940c000      ldr w0, [x0, #192]
0x0000000000419088:  f9400085      ldr x5, [x4]
0x000000000041908c:  f910bfe5      str x5, [sp, #8568]
0x0000000000419090:  d2800005      mov x5, #0x0
0x0000000000419094:  35000c00      cbnz w0, #+0x180 (addr 0x419214)

----------------
IN: buffered_vfprintf
0x0000000000419214:  3100041f      cmn w0, #0x1 (1)
0x0000000000419218:  540001c1      b.ne #+0x38 (addr 0x419250)

----------------
IN: buffered_vfprintf
0x000000000041921c:  a90363f7      stp x23, x24, [sp, #48]
0x0000000000419220:  17ffffa1      b #-0x17c (addr 0x4190a4)

----------------
IN: buffered_vfprintf
0x00000000004190a4:  b9407668      ldr w8, [x19, #116]
0x00000000004190a8:  9105e3e4      add x4, sp, #0x178 (376)
0x00000000004190ac:  ad400440      ldp q0, q1, [x2]
0x00000000004190b0:  d2842f00      mov x0, #0x2178
0x00000000004190b4:  910103e2      add x2, sp, #0x40 (64)
0x00000000004190b8:  8b2063e6      add x6, sp, x0
0x00000000004190bc:  f0000465      adrp x5, #+0x8f000 (addr 0x4a8000)
0x00000000004190c0:  52900089      mov w9, #0x8004
0x00000000004190c4:  912640a5      add x5, x5, #0x990 (2448)
0x00000000004190c8:  12800007      mov w7, #0xffffffff
0x00000000004190cc:  72bf75a9      movk w9, #0xfbad, lsl #16
0x00000000004190d0:  b90083e9      str w9, [sp, #128]
0x00000000004190d4:  a90a13e4      stp x4, x4, [sp, #160]
0x00000000004190d8:  910203e0      add x0, sp, #0x80 (128)
0x00000000004190dc:  910183f6      add x22, sp, #0x60 (96)
0x00000000004190e0:  f9005be6      str x6, [sp, #176]
0x00000000004190e4:  b900f7e8      str w8, [sp, #244]
0x00000000004190e8:  f90087ff      str xzr, [sp, #264]
0x00000000004190ec:  b90143e7      str w7, [sp, #320]
0x00000000004190f0:  a915cfe5      stp x5, x19, [sp, #344]
0x00000000004190f4:  ad000440      stp q0, q1, [x2]
0x00000000004190f8:  97fff7fa      bl #-0x2018 (addr 0x4170e0)

----------------
IN: __strchrnul
0x000000000042bc10:  3cc10c41      ldr q1, [x2, #16]!
0x000000000042bc14:  6e208c23      cmeq v3.16b, v1.16b, v0.16b
0x000000000042bc18:  6e213c63      cmhs v3.16b, v3.16b, v1.16b
0x000000000042bc1c:  6e23a465      umaxp v5.16b, v3.16b, v3.16b
0x000000000042bc20:  9e6600a1      fmov x1, d5
0x000000000042bc24:  b4ffff61      cbz x1, #-0x14 (addr 0x42bc10)

----------------
IN: __strchrnul
0x000000000042bc28:  4e241c63      and v3.16b, v3.16b, v4.16b
0x000000000042bc2c:  4e23bc65      addp v5.16b, v3.16b, v3.16b
0x000000000042bc30:  9e6600a1      fmov x1, d5
0x000000000042bc34:  dac00021      rbit x1, x1
0x000000000042bc38:  dac01021      clz x1, x1
0x000000000042bc3c:  8b410840      add x0, x2, x1, lsr #2
0x000000000042bc40:  d65f03c0      ret

----------------
IN: _IO_default_xsputn
0x00000000004218c0:  b4000882      cbz x2, #+0x110 (addr 0x4219d0)

----------------
IN: __vfprintf_internal
0x00000000004173b0:  f94067e0      ldr x0, [sp, #200]
0x00000000004173b4:  3700bcc0      tbnz w0, #0, #+0x1798 (addr 0x418b4c)

----------------
IN: __vfprintf_internal
0x00000000004173b8:  2a0b03e0      mov w0, w11
0x00000000004173bc:  b940a3e1      ldr w1, [sp, #160]
0x00000000004173c0:  2a150400      orr w0, w0, w21, lsl #1
0x00000000004173c4:  2a0a0800      orr w0, w0, w10, lsl #2
0x00000000004173c8:  9106a3e2      add x2, sp, #0x1a8 (424)
0x00000000004173cc:  2a010c00      orr w0, w0, w1, lsl #3
0x00000000004173d0:  b940bbe1      ldr w1, [sp, #184]
0x00000000004173d4:  293f1847      stp w7, w6, [x2, #-8]
0x00000000004173d8:  29007c45      stp w5, wzr, [x2]
0x00000000004173dc:  2a011000      orr w0, w0, w1, lsl #4
0x00000000004173e0:  b9409be1      ldr w1, [sp, #152]
0x00000000004173e4:  2a011400      orr w0, w0, w1, lsl #5
0x00000000004173e8:  b940abe1      ldr w1, [sp, #168]
0x00000000004173ec:  b901b3e1      str w1, [sp, #432]
0x00000000004173f0:  b940b3e1      ldr w1, [sp, #176]
0x00000000004173f4:  2a011800      orr w0, w0, w1, lsl #6
0x00000000004173f8:  2a041c04      orr w4, w0, w4, lsl #7
0x00000000004173fc:  b940d3e0      ldr w0, [sp, #208]
0x0000000000417400:  2a002c80      orr w0, w4, w0, lsl #11
0x0000000000417404:  79035be0      strh w0, [sp, #428]
0x0000000000417408:  b9410be0      ldr w0, [sp, #264]
0x000000000041740c:  35000b8b      cbnz w11, #+0x170 (addr 0x41757c)

----------------
IN: __vfprintf_internal
0x0000000000417410:  37f8a620      tbnz w0, #31, #+0x14c4 (addr 0x4188d4)

----------------
IN: __vfprintf_internal
0x00000000004188d4:  b9410be0      ldr w0, [sp, #264]
0x00000000004188d8:  11004001      add w1, w0, #0x10 (16)
0x00000000004188dc:  7100003f      cmp w1, #0x0 (0)
0x00000000004188e0:  5400146d      b.le #+0x28c (addr 0x418b6c)

----------------
IN: __vfprintf_internal
0x0000000000418b6c:  f9408be2      ldr x2, [sp, #272]
0x0000000000418b70:  b9410be0      ldr w0, [sp, #264]
0x0000000000418b74:  b9010be1      str w1, [sp, #264]
0x0000000000418b78:  8b20c040      add x0, x2, w0, sxtw
0x0000000000418b7c:  17fffa29      b #-0x175c (addr 0x417420)

----------------
IN: __vfprintf_internal
0x0000000000417420:  fd400000      ldr d0, [x0]
0x0000000000417424:  121a78a5      and w5, w5, #0xffffffdf
0x0000000000417428:  910643e0      add x0, sp, #0x190 (400)
0x000000000041742c:  f900c7e0      str x0, [sp, #392]
0x0000000000417430:  910623e2      add x2, sp, #0x188 (392)
0x0000000000417434:  910683e1      add x1, sp, #0x1a0 (416)
0x0000000000417438:  fd00cbe0      str d0, [sp, #400]
0x000000000041743c:  aa1b03e0      mov x0, x27
0x0000000000417440:  710104bf      cmp w5, #0x41 (65)
0x0000000000417444:  54000b81      b.ne #+0x170 (addr 0x4175b4)

----------------
IN: __vfprintf_internal
0x00000000004175b4:  9400c3d4      bl #+0x30f50 (addr 0x448504)

----------------
IN: ___printf_fp
0x0000000000448504:  d00002e4      adrp x4, #+0x5e000 (addr 0x4a6000)
0x0000000000448508:  f9477484      ldr x4, [x4, #3816]
0x000000000044850c:  d53bd045      mrs x5, (unknown)
0x0000000000448510:  aa0203e3      mov x3, x2
0x0000000000448514:  aa0103e2      mov x2, x1
0x0000000000448518:  f86468a1      ldr x1, [x5, x4]
0x000000000044851c:  17fff7a5      b #-0x216c (addr 0x4463b0)

----------------
IN: __printf_fp_l
0x00000000004463b0:  a9aa7bfd      stp x29, x30, [sp, #-352]!
0x00000000004463b4:  90000305      adrp x5, #+0x60000 (addr 0x4a6000)
0x00000000004463b8:  910003fd      mov x29, sp
0x00000000004463bc:  f945dca4      ldr x4, [x5, #3000]
0x00000000004463c0:  a90153f3      stp x19, x20, [sp, #16]
0x00000000004463c4:  aa0203f4      mov x20, x2
0x00000000004463c8:  a90573fb      stp x27, x28, [sp, #80]
0x00000000004463cc:  aa0003f3      mov x19, x0
0x00000000004463d0:  7940185b      ldrh w27, [x2, #12]
0x00000000004463d4:  f9400442      ldr x2, [x2, #8]
0x00000000004463d8:  a9025bf5      stp x21, x22, [sp, #32]
0x00000000004463dc:  a90363f7      stp x23, x24, [sp, #48]
0x00000000004463e0:  d36aa840      ubfx x0, x2, #42, #1
0x00000000004463e4:  a9046bf9      stp x25, x26, [sp, #64]
0x00000000004463e8:  12180362      and w2, w27, #0x100
0x00000000004463ec:  d10043ff      sub sp, sp, #0x10 (16)
0x00000000004463f0:  f90067a5      str x5, [x29, #200]
0x00000000004463f4:  f9400086      ldr x6, [x4]
0x00000000004463f8:  f900afa6      str x6, [x29, #344]
0x00000000004463fc:  d2800006      mov x6, #0x0
0x0000000000446400:  f90063a1      str x1, [x29, #192]
0x0000000000446404:  f90077a0      str x0, [x29, #232]
0x0000000000446408:  aa0103e4      mov x4, x1
0x000000000044640c:  291effbf      stp wzr, wzr, [x29, #244]
0x0000000000446410:  12190361      and w1, w27, #0x80
0x0000000000446414:  3740101b      tbnz w27, #8, #+0x200 (addr 0x446614)

----------------
IN: __printf_fp_l
0x0000000000446418:  f9400480      ldr x0, [x4, #8]
0x000000000044641c:  f9402004      ldr x4, [x0, #64]
0x0000000000446420:  f90057a4      str x4, [x29, #168]
0x0000000000446424:  b9405804      ldr w4, [x0, #88]
0x0000000000446428:  b900e3a4      str w4, [x29, #224]
0x000000000044642c:  340000e1      cbz w1, #+0x1c (addr 0x446448)

----------------
IN: __printf_fp_l
0x0000000000446448:  d2800016      mov x22, #0x0
0x000000000044644c:  b90097bf      str wzr, [x29, #148]
0x0000000000446450:  f90053bf      str xzr, [x29, #160]
0x0000000000446454:  f9400060      ldr x0, [x3]
0x0000000000446458:  3600129b      tbz w27, #0, #+0x250 (addr 0x4466a8)

----------------
IN: __printf_fp_l
0x00000000004466a8:  fd400000      ldr d0, [x0]
0x00000000004466ac:  1e602000      fcmp d0, d0
0x00000000004466b0:  54002686      b.vs #+0x4d0 (addr 0x446b80)

----------------
IN: __printf_fp_l
0x00000000004466b4:  1e60c002      fabs d2, d0
0x00000000004466b8:  92f00200      mov x0, #0x7fefffffffffffff
0x00000000004466bc:  9e670001      fmov d1, x0
0x00000000004466c0:  1e612040      fcmp d2, d1
0x00000000004466c4:  5400104d      b.le #+0x208 (addr 0x4468cc)

----------------
IN: __printf_fp_l
0x00000000004468cc:  9104e3bb      add x27, x29, #0x138 (312)
0x00000000004468d0:  9103d3a3      add x3, x29, #0xf4 (244)
0x00000000004468d4:  aa1b03e0      mov x0, x27
0x00000000004468d8:  910403a2      add x2, x29, #0x100 (256)
0x00000000004468dc:  d2800041      mov x1, #0x2
0x00000000004468e0:  94005a2c      bl #+0x168b0 (addr 0x45d190)

----------------
IN: __mpn_extract_double
0x000000000045d190:  9e660005      fmov x5, d0
0x000000000045d194:  d37ffca6      lsr x6, x5, #63
0x000000000045d198:  d374f8a1      ubfx x1, x5, #52, #11
0x000000000045d19c:  b9000066      str w6, [x3]
0x000000000045d1a0:  510ffc21      sub w1, w1, #0x3ff (1023)
0x000000000045d1a4:  b9000041      str w1, [x2]
0x000000000045d1a8:  9240cca4      and x4, x5, #0xfffffffffffff
0x000000000045d1ac:  f9000004      str x4, [x0]
0x000000000045d1b0:  f24c28bf      tst x5, #0x7ff0000000000000
0x000000000045d1b4:  540000a1      b.ne #+0x14 (addr 0x45d1c8)

----------------
IN: __mpn_extract_double
0x000000000045d1c8:  b24c0084      orr x4, x4, #0x10000000000000
0x000000000045d1cc:  f9000004      str x4, [x0]
0x000000000045d1d0:  d2800020      mov x0, #0x1
0x000000000045d1d4:  d65f03c0      ret

----------------
IN: __printf_fp_l
0x00000000004468e4:  531a641a      lsl w26, w0, #6
0x00000000004468e8:  aa0003f9      mov x25, x0
0x00000000004468ec:  5100d35a      sub w26, w26, #0x34 (52)
0x00000000004468f0:  b94103b5      ldr w21, [x29, #256]
0x00000000004468f4:  f9008bb9      str x25, [x29, #272]
0x00000000004468f8:  710002bf      cmp w21, #0x0 (0)
0x00000000004468fc:  5a95a6a1      cneg w1, w21, lt
0x0000000000446900:  1100fc21      add w1, w1, #0x3f (63)
0x0000000000446904:  13067c21      asr w1, w1, #6
0x0000000000446908:  11001021      add w1, w1, #0x4 (4)
0x000000000044690c:  937d7c21      sbfiz x1, x1, #3, #32
0x0000000000446910:  91003c21      add x1, x1, #0xf (15)
0x0000000000446914:  9270bc20      and x0, x1, #0xffffffffffff0000
0x0000000000446918:  927cec22      and x2, x1, #0xfffffffffffffff0
0x000000000044691c:  cb2063e0      sub x0, sp, x0
0x0000000000446920:  eb2063ff      cmp sp, x0
0x0000000000446924:  540000a0      b.eq #+0x14 (addr 0x446938)

----------------
IN: __printf_fp_l
0x0000000000446938:  92403c42      and x2, x2, #0xffff
0x000000000044693c:  cb2263ff      sub sp, sp, x2
0x0000000000446940:  f90003ff      str xzr, [sp]
0x0000000000446944:  f110005f      cmp x2, #0x400 (1024)
0x0000000000446948:  54001282      b.hs #+0x250 (addr 0x446b98)

----------------
IN: __printf_fp_l
0x000000000044694c:  9270bc22      and x2, x1, #0xffffffffffff0000
0x0000000000446950:  910043e0      add x0, sp, #0x10 (16)
0x0000000000446954:  cb2263e2      sub x2, sp, x2
0x0000000000446958:  f90087a0      str x0, [x29, #264]
0x000000000044695c:  927cec24      and x4, x1, #0xfffffffffffffff0
0x0000000000446960:  eb2263ff      cmp sp, x2
0x0000000000446964:  540000a0      b.eq #+0x14 (addr 0x446978)

----------------
IN: __printf_fp_l
0x0000000000446978:  92403c84      and x4, x4, #0xffff
0x000000000044697c:  cb2463ff      sub sp, sp, x4
0x0000000000446980:  f90003ff      str xzr, [sp]
0x0000000000446984:  f110009f      cmp x4, #0x400 (1024)
0x0000000000446988:  54000043      b.lo #+0x8 (addr 0x446990)

----------------
IN: __printf_fp_l
0x0000000000446990:  9270bc22      and x2, x1, #0xffffffffffff0000
0x0000000000446994:  910043e4      add x4, sp, #0x10 (16)
0x0000000000446998:  cb2263e2      sub x2, sp, x2
0x000000000044699c:  f90097a4      str x4, [x29, #296]
0x00000000004469a0:  927cec21      and x1, x1, #0xfffffffffffffff0
0x00000000004469a4:  eb2263ff      cmp sp, x2
0x00000000004469a8:  540000a0      b.eq #+0x14 (addr 0x4469bc)

----------------
IN: __printf_fp_l
0x00000000004469bc:  92403c21      and x1, x1, #0xffff
0x00000000004469c0:  cb2163ff      sub sp, sp, x1
0x00000000004469c4:  f90003ff      str xzr, [sp]
0x00000000004469c8:  f110003f      cmp x1, #0x400 (1024)
0x00000000004469cc:  54000043      b.lo #+0x8 (addr 0x4469d4)

----------------
IN: __printf_fp_l
0x00000000004469d4:  910043e1      add x1, sp, #0x10 (16)
0x00000000004469d8:  a911ffa1      stp x1, xzr, [x29, #280]
0x00000000004469dc:  71000abf      cmp w21, #0x2 (2)
0x00000000004469e0:  54001c2d      b.le #+0x384 (addr 0x446d64)

----------------
IN: __printf_fp_l
0x0000000000446d64:  37f856f5      tbnz w21, #31, #+0xadc (addr 0x447840)

----------------
IN: __printf_fp_l
0x0000000000446d68:  0b1a02a3      add w3, w21, w26
0x0000000000446d6c:  aa1903e2      mov x2, x25
0x0000000000446d70:  aa1b03e1      mov x1, x27
0x0000000000446d74:  97ff1833      bl #-0x39f34 (addr 0x40ce40)

----------------
IN: __mpn_lshift
0x000000000040ce40:  d1000444      sub x4, x2, #0x1 (1)
0x000000000040ce44:  52800808      mov w8, #0x40
0x000000000040ce48:  4b030108      sub w8, w8, w3
0x000000000040ce4c:  91002007      add x7, x0, #0x8 (8)
0x000000000040ce50:  f8647825      ldr x5, [x1, x4, lsl #3]
0x000000000040ce54:  f1000844      subs x4, x2, #0x2 (2)
0x000000000040ce58:  9ac824a0      lsr x0, x5, x8
0x000000000040ce5c:  54000144      b.mi #+0x28 (addr 0x40ce84)

----------------
IN: __mpn_lshift
0x000000000040ce84:  9ac320a5      lsl x5, x5, x3
0x000000000040ce88:  f82478e5      str x5, [x7, x4, lsl #3]
0x000000000040ce8c:  d65f03c0      ret

----------------
IN: __printf_fp_l
0x0000000000446d78:  a95087a2      ldp x2, x1, [x29, #264]
0x0000000000446d7c:  91000423      add x3, x1, #0x1 (1)
0x0000000000446d80:  f9008ba3      str x3, [x29, #272]
0x0000000000446d84:  f8217840      str x0, [x2, x1, lsl #3]
0x0000000000446d88:  b90103bf      str wzr, [x29, #256]
0x0000000000446d8c:  90000300      adrp x0, #+0x60000 (addr 0x4a6000)
0x0000000000446d90:  f9467800      ldr x0, [x0, #3312]
0x0000000000446d94:  d53bd042      mrs x2, (unknown)
0x0000000000446d98:  b9400a81      ldr w1, [x20, #8]
0x0000000000446d9c:  b9400283      ldr w3, [x20]
0x0000000000446da0:  b900d3a3      str w3, [x29, #208]
0x0000000000446da4:  f8606840      ldr x0, [x2, x0]
0x0000000000446da8:  f90037a2      str x2, [x29, #104]
0x0000000000446dac:  b9400683      ldr w3, [x20, #4]
0x0000000000446db0:  b9008fa3      str w3, [x29, #140]
0x0000000000446db4:  b861d800      ldr w0, [x0, w1, sxtw #2]
0x0000000000446db8:  12001c00      and w0, w0, #0xff
0x0000000000446dbc:  b9007fa0      str w0, [x29, #124]
0x0000000000446dc0:  7101941f      cmp w0, #0x65 (101)
0x0000000000446dc4:  54004ae0      b.eq #+0x95c (addr 0x447720)

----------------
IN: __printf_fp_l
0x0000000000446dc8:  b9407fa0      ldr w0, [x29, #124]
0x0000000000446dcc:  7101981f      cmp w0, #0x66 (102)
0x0000000000446dd0:  54004fe0      b.eq #+0x9fc (addr 0x4477cc)

----------------
IN: __printf_fp_l
0x00000000004477cc:  b900ffa0      str w0, [x29, #252]
0x00000000004477d0:  b940d3a0      ldr w0, [x29, #208]
0x00000000004477d4:  93407c01      sxtw x1, w0
0x00000000004477d8:  36f80060      tbz w0, #31, #+0xc (addr 0x4477e4)

----------------
IN: __printf_fp_l
0x00000000004477dc:  d28000c1      mov x1, #0x6
0x00000000004477e0:  b900d3a1      str w1, [x29, #208]
0x00000000004477e4:  b940fba0      ldr w0, [x29, #248]
0x00000000004477e8:  b9008ba0      str w0, [x29, #136]
0x00000000004477ec:  35003420      cbnz w0, #+0x684 (addr 0x447e70)

----------------
IN: __printf_fp_l
0x00000000004477f0:  b94103a0      ldr w0, [x29, #256]
0x00000000004477f4:  5280003c      mov w28, #0x1
0x00000000004477f8:  b940d3ba      ldr w26, [x29, #208]
0x00000000004477fc:  11000402      add w2, w0, #0x1 (1)
0x0000000000447800:  b90093a2      str w2, [x29, #144]
0x0000000000447804:  93407c00      sxtw x0, w0
0x0000000000447808:  91000800      add x0, x0, #0x2 (2)
0x000000000044780c:  8b010000      add x0, x0, x1
0x0000000000447810:  f9004fa0      str x0, [x29, #152]
0x0000000000447814:  12b00000      mov w0, #0x7fffffff
0x0000000000447818:  b90077a0      str w0, [x29, #116]
0x000000000044781c:  b5ffb0d6      cbnz x22, #-0x9e8 (addr 0x446e34)

----------------
IN: __printf_fp_l
0x0000000000447820:  17fffd9e      b #-0x988 (addr 0x446e98)

----------------
IN: __printf_fp_l
0x0000000000446e98:  f9404fa1      ldr x1, [x29, #152]
0x0000000000446e9c:  b27eefe0      mov x0, #0x3ffffffffffffffc
0x0000000000446ea0:  eb00003f      cmp x1, x0
0x0000000000446ea4:  54006628      b.hi #+0xcc4 (addr 0x447b68)

----------------
IN: __printf_fp_l
0x0000000000446ea8:  f9404fa0      ldr x0, [x29, #152]
0x0000000000446eac:  eb3ac01f      cmp x0, w26, sxtw
0x0000000000446eb0:  540065c3      b.lo #+0xcb8 (addr 0x447b68)

----------------
IN: __printf_fp_l
0x0000000000446eb4:  91000819      add x25, x0, #0x2 (2)
0x0000000000446eb8:  d37ef739      lsl x25, x25, #2
0x0000000000446ebc:  aa1903e0      mov x0, x25
0x0000000000446ec0:  97ff71ac      bl #-0x23950 (addr 0x423570)

----------------
IN: __libc_alloca_cutoff
0x0000000000423570:  d53bd041      mrs x1, (unknown)
0x0000000000423574:  d29fffe3      mov x3, #0xffff
0x0000000000423578:  d11f0021      sub x1, x1, #0x7c0 (1984)
0x000000000042357c:  d2a00022      mov x2, #0x10000
0x0000000000423580:  f9424c21      ldr x1, [x1, #1176]
0x0000000000423584:  d342fc21      lsr x1, x1, #2
0x0000000000423588:  d1000424      sub x4, x1, #0x1 (1)
0x000000000042358c:  eb03009f      cmp x4, x3
0x0000000000423590:  9a829021      csel x1, x1, x2, ls
0x0000000000423594:  eb00003f      cmp x1, x0
0x0000000000423598:  1a9f37e0      cset w0, hs
0x000000000042359c:  d65f03c0      ret

----------------
IN: __printf_fp_l
0x0000000000446ec4:  f140233f      cmp x25, #0x8000 (32768)
0x0000000000446ec8:  7a408800      ccmp w0, #0, #nzcv, hi
0x0000000000446ecc:  54008a60      b.eq #+0x114c (addr 0x448018)

----------------
IN: __printf_fp_l
0x0000000000446ed0:  91003f39      add x25, x25, #0xf (15)
0x0000000000446ed4:  9270bf20      and x0, x25, #0xffffffffffff0000
0x0000000000446ed8:  927cef39      and x25, x25, #0xfffffffffffffff0
0x0000000000446edc:  cb2063e0      sub x0, sp, x0
0x0000000000446ee0:  eb2063ff      cmp sp, x0
0x0000000000446ee4:  540000a0      b.eq #+0x14 (addr 0x446ef8)

----------------
IN: __printf_fp_l
0x0000000000446ef8:  92403f39      and x25, x25, #0xffff
0x0000000000446efc:  cb3963ff      sub sp, sp, x25
0x0000000000446f00:  f90003ff      str xzr, [sp]
0x0000000000446f04:  f110033f      cmp x25, #0x400 (1024)
0x0000000000446f08:  54000043      b.lo #+0x8 (addr 0x446f10)

----------------
IN: __printf_fp_l
0x0000000000446f10:  910043e0      add x0, sp, #0x10 (16)
0x0000000000446f14:  b90073bf      str wzr, [x29, #112]
0x0000000000446f18:  f90043a0      str x0, [x29, #128]
0x0000000000446f1c:  52800020      mov w0, #0x1
0x0000000000446f20:  b90067a0      str w0, [x29, #100]
0x0000000000446f24:  b940fba0      ldr w0, [x29, #248]
0x0000000000446f28:  f94043a1      ldr x1, [x29, #128]
0x0000000000446f2c:  91002035      add x21, x1, #0x8 (8)
0x0000000000446f30:  34000080      cbz w0, #+0x10 (addr 0x446f40)

----------------
IN: __printf_fp_l
0x0000000000446f40:  b94093a0      ldr w0, [x29, #144]
0x0000000000446f44:  7100001f      cmp w0, #0x0 (0)
0x0000000000446f48:  5400884d      b.le #+0x1108 (addr 0x448050)

----------------
IN: __printf_fp_l
0x0000000000446f4c:  5100041b      sub w27, w0, #0x1 (1)
0x0000000000446f50:  aa1503f7      mov x23, x21
0x0000000000446f54:  f94043a0      ldr x0, [x29, #128]
0x0000000000446f58:  91000f7b      add x27, x27, #0x3 (3)
0x0000000000446f5c:  9103e3b9      add x25, x29, #0xf8 (248)
0x0000000000446f60:  8b1b081b      add x27, x0, x27, lsl #2
0x0000000000446f64:  d503201f      nop
0x0000000000446f68:  aa1903e0      mov x0, x25
0x0000000000446f6c:  97fffc21      bl #-0xf7c (addr 0x445ff0)

----------------
IN: hack_digit
0x0000000000445ff0:  a9bd7bfd      stp x29, x30, [sp, #-48]!
0x0000000000445ff4:  910003fd      mov x29, sp
0x0000000000445ff8:  a90153f3      stp x19, x20, [sp, #16]
0x0000000000445ffc:  aa0003f3      mov x19, x0

----------------
IN: hack_digit
0x0000000000446000:  b9400000      ldr w0, [x0]
0x0000000000446004:  f90013f5      str x21, [sp, #32]
0x0000000000446008:  34000080      cbz w0, #+0x10 (addr 0x446018)

----------------
IN: hack_digit
0x0000000000446018:  f9401665      ldr x5, [x19, #40]
0x000000000044601c:  a9410a74      ldp x20, x2, [x19, #16]
0x0000000000446020:  b4000565      cbz x5, #+0xac (addr 0x4460cc)

----------------
IN: hack_digit
0x00000000004460cc:  d37df053      lsl x19, x2, #3
0x00000000004460d0:  aa1403e1      mov x1, x20
0x00000000004460d4:  d1002273      sub x19, x19, #0x8 (8)
0x00000000004460d8:  d1000442      sub x2, x2, #0x1 (1)
0x00000000004460dc:  aa1403e0      mov x0, x20
0x00000000004460e0:  d2800143      mov x3, #0xa
0x00000000004460e4:  f8736a95      ldr x21, [x20, x19]
0x00000000004460e8:  97ff1c86      bl #-0x38de8 (addr 0x40d300)

----------------
IN: __mpn_mul_1
0x000000000040d300:  d37df044      lsl x4, x2, #3
0x000000000040d304:  d360fc69      lsr x9, x3, #32
0x000000000040d308:  92407c68      and x8, x3, #0xffffffff
0x000000000040d30c:  8b040021      add x1, x1, x4
0x000000000040d310:  cb0203e2      neg x2, x2
0x000000000040d314:  8b04000a      add x10, x0, x4
0x000000000040d318:  d2c0002b      mov x11, #0x100000000
0x000000000040d31c:  d2800000      mov x0, #0x0
0x000000000040d320:  f8627823      ldr x3, [x1, x2, lsl #3]
0x000000000040d324:  92407c65      and x5, x3, #0xffffffff
0x000000000040d328:  d360fc63      lsr x3, x3, #32
0x000000000040d32c:  9b087ca4      mul x4, x5, x8
0x000000000040d330:  9b087c67      mul x7, x3, x8
0x000000000040d334:  9b051d26      madd x6, x9, x5, x7
0x000000000040d338:  9b097c63      mul x3, x3, x9
0x000000000040d33c:  8b244005      add x5, x0, w4, uxtw
0x000000000040d340:  8b4480c4      add x4, x6, x4, lsr #32
0x000000000040d344:  8b0b0066      add x6, x3, x11
0x000000000040d348:  eb0400ff      cmp x7, x4
0x000000000040d34c:  8b0480a5      add x5, x5, x4, lsl #32
0x000000000040d350:  9a8380c3      csel x3, x6, x3, hi
0x000000000040d354:  eb05001f      cmp x0, x5
0x000000000040d358:  f8227945      str x5, [x10, x2, lsl #3]
0x000000000040d35c:  9a9f97e5      cset x5, hi
0x000000000040d360:  b1000442      adds x2, x2, #0x1 (1)
0x000000000040d364:  8b4480a4      add x4, x5, x4, lsr #32
0x000000000040d368:  8b040060      add x0, x3, x4
0x000000000040d36c:  54fffda1      b.ne #-0x4c (addr 0x40d320)

----------------
IN: __mpn_mul_1
0x000000000040d370:  d65f03c0      ret

----------------
IN: hack_digit
0x00000000004460ec:  f8336a80      str x0, [x20, x19]
0x00000000004460f0:  1100c2b5      add w21, w21, #0x30 (48)
0x00000000004460f4:  2a1503e0      mov w0, w21
0x00000000004460f8:  a94153f3      ldp x19, x20, [sp, #16]
0x00000000004460fc:  f94013f5      ldr x21, [sp, #32]
0x0000000000446100:  a8c37bfd      ldp x29, x30, [sp], #48
0x0000000000446104:  d65f03c0      ret

----------------
IN: __printf_fp_l
0x0000000000446f70:  b80046e0      str w0, [x23], #4
0x0000000000446f74:  eb1b02ff      cmp x23, x27
0x0000000000446f78:  54ffff81      b.ne #-0x10 (addr 0x446f68)

----------------
IN: __printf_fp_l
0x0000000000446f7c:  b94093a0      ldr w0, [x29, #144]
0x0000000000446f80:  b9007ba0      str w0, [x29, #120]
0x0000000000446f84:  8b204aa3      add x3, x21, w0, uxtw #2
0x0000000000446f88:  79401a80      ldrh w0, [x20, #12]
0x0000000000446f8c:  f27d001f      tst x0, #0x8
0x0000000000446f90:  b940d3a0      ldr w0, [x29, #208]
0x0000000000446f94:  7a400800      ccmp w0, #0, #nzcv, eq
0x0000000000446f98:  5400682d      b.le #+0xd04 (addr 0x447c9c)

----------------
IN: __printf_fp_l
0x0000000000446f9c:  aa0303f8      mov x24, x3
0x0000000000446fa0:  b940e3a0      ldr w0, [x29, #224]
0x0000000000446fa4:  5280003c      mov w28, #0x1
0x0000000000446fa8:  b8004700      str w0, [x24], #4
0x0000000000446fac:  b940d3bb      ldr w27, [x29, #208]
0x0000000000446fb0:  52800017      mov w23, #0x0
0x0000000000446fb4:  b900b3bf      str wzr, [x29, #176]
0x0000000000446fb8:  6b17037f      cmp w27, w23
0x0000000000446fbc:  540000cc      b.gt #+0x18 (addr 0x446fd4)

----------------
IN: __printf_fp_l
0x0000000000446fd4:  aa1903e0      mov x0, x25
0x0000000000446fd8:  97fffc06      bl #-0xfe8 (addr 0x445ff0)

----------------
IN: __printf_fp_l
0x0000000000446fdc:  7100c01f      cmp w0, #0x30 (48)
0x0000000000446fe0:  52000381      eor w1, w28, #0x1
0x0000000000446fe4:  b8004700      str w0, [x24], #4
0x0000000000446fe8:  1a9f17e0      cset w0, eq
0x0000000000446fec:  110006f7      add w23, w23, #0x1 (1)
0x0000000000446ff0:  5280003c      mov w28, #0x1
0x0000000000446ff4:  6a01001f      tst w0, w1
0x0000000000446ff8:  54fffe00      b.eq #-0x40 (addr 0x446fb8)

----------------
IN: __printf_fp_l
0x0000000000446fb8:  6b17037f      cmp w27, w23
0x0000000000446fbc:  540000cc      b.gt #+0x18 (addr 0x446fd4)

----------------
IN: __printf_fp_l
0x0000000000446fc0:  6b17035f      cmp w26, w23
0x0000000000446fc4:  5400036d      b.le #+0x6c (addr 0x447030)

----------------
IN: __printf_fp_l
0x0000000000447030:  b85fc31a      ldur w26, [x24, #-4]
0x0000000000447034:  b940e3a0      ldr w0, [x29, #224]
0x0000000000447038:  6b00035f      cmp w26, w0
0x000000000044703c:  54000041      b.ne #+0x8 (addr 0x447044)

----------------
IN: __printf_fp_l
0x0000000000447044:  aa1903e0      mov x0, x25
0x0000000000447048:  97fffbea      bl #-0x1058 (addr 0x445ff0)

----------------
IN: __printf_fp_l
0x000000000044704c:  7100c01f      cmp w0, #0x30 (48)
0x0000000000447050:  1a9f07e2      cset w2, ne
0x0000000000447054:  7100d41f      cmp w0, #0x35 (53)
0x0000000000447058:  1a9f07e5      cset w5, ne
0x000000000044705c:  6a050045      ands w5, w2, w5
0x0000000000447060:  54000201      b.ne #+0x40 (addr 0x4470a0)

----------------
IN: __printf_fp_l
0x00000000004470a0:  d53b4402      mrs x2, fpcr
0x00000000004470a4:  7100d01f      cmp w0, #0x34 (52)
0x00000000004470a8:  120a0442      and w2, w2, #0xc00000
0x00000000004470ac:  1a9f97e7      cset w7, hi
0x00000000004470b0:  b940f7a6      ldr w6, [x29, #244]
0x00000000004470b4:  7160005f      cmp w2, #0x800000 (8388608)
0x00000000004470b8:  54005060      b.eq #+0xa0c (addr 0x447ac4)

----------------
IN: __printf_fp_l
0x00000000004470bc:  54002aec      b.gt #+0x55c (addr 0x447618)

----------------
IN: __printf_fp_l
0x00000000004470c0:  35002942      cbnz w2, #+0x528 (addr 0x4475e8)

----------------
IN: __printf_fp_l
0x00000000004470c4:  7100d01f      cmp w0, #0x34 (52)
0x00000000004470c8:  540029c9      b.ls #+0x538 (addr 0x447600)

----------------
IN: __printf_fp_l
0x0000000000447600:  b940b3a0      ldr w0, [x29, #176]
0x0000000000447604:  b940d3a1      ldr w1, [x29, #208]
0x0000000000447608:  0b010002      add w2, w0, w1
0x000000000044760c:  6b17005f      cmp w2, w23
0x0000000000447610:  54ffdbab      b.lt #-0x48c (addr 0x447184)

----------------
IN: __printf_fp_l
0x0000000000447614:  17fffedf      b #-0x484 (addr 0x447190)

----------------
IN: __printf_fp_l
0x0000000000447190:  35000117      cbnz w23, #+0x20 (addr 0x4471b0)

----------------
IN: __printf_fp_l
0x00000000004471b0:  b4000916      cbz x22, #+0x120 (addr 0x4472d0)

----------------
IN: __printf_fp_l
0x00000000004472d0:  b940ffa0      ldr w0, [x29, #252]
0x00000000004472d4:  7101981f      cmp w0, #0x66 (102)
0x00000000004472d8:  54000400      b.eq #+0x80 (addr 0x447358)

----------------
IN: __printf_fp_l
0x0000000000447358:  b940f7a0      ldr w0, [x29, #244]
0x000000000044735c:  350000a0      cbnz w0, #+0x14 (addr 0x447370)

----------------
IN: __printf_fp_l
0x0000000000447360:  b9400e82      ldr w2, [x20, #12]
0x0000000000447364:  52800a01      mov w1, #0x50
0x0000000000447368:  6a01005f      tst w2, w1
0x000000000044736c:  54000080      b.eq #+0x10 (addr 0x44737c)

----------------
IN: __printf_fp_l
0x000000000044737c:  cb150301      sub x1, x24, x21
0x0000000000447380:  79401a82      ldrh w2, [x20, #12]
0x0000000000447384:  cb810bf6      neg x22, x1, asr #2
0x0000000000447388:  9342fc3a      asr x26, x1, #2
0x000000000044738c:  b9408fa1      ldr w1, [x29, #140]
0x0000000000447390:  0b160036      add w22, w1, w22
0x0000000000447394:  37281562      tbnz w2, #5, #+0x2ac (addr 0x447640)

----------------
IN: __printf_fp_l
0x0000000000447398:  b9401281      ldr w1, [x20, #16]
0x000000000044739c:  5280001c      mov w28, #0x0
0x00000000004473a0:  7100c03f      cmp w1, #0x30 (48)
0x00000000004473a4:  7a401ac4      ccmp w22, #0, #nZcv, ne
0x00000000004473a8:  54000eac      b.gt #+0x1d4 (addr 0x44757c)

----------------
IN: __printf_fp_l
0x00000000004473ac:  34000fe0      cbz w0, #+0x1fc (addr 0x4475a8)

----------------
IN: __printf_fp_l
0x00000000004475a8:  79401a80      ldrh w0, [x20, #12]
0x00000000004475ac:  363026e0      tbz w0, #6, #+0x4dc (addr 0x447a88)

----------------
IN: __printf_fp_l
0x0000000000447a88:  3627cae0      tbz w0, #4, #-0x6a4 (addr 0x4473e4)

----------------
IN: __printf_fp_l
0x00000000004473e4:  372800a0      tbnz w0, #5, #+0x14 (addr 0x4473f8)

----------------
IN: __printf_fp_l
0x00000000004473e8:  b9401280      ldr w0, [x20, #16]
0x00000000004473ec:  7100c01f      cmp w0, #0x30 (48)
0x00000000004473f0:  7a400ac4      ccmp w22, #0, #nZcv, eq
0x00000000004473f4:  54005aac      b.gt #+0xb54 (addr 0x447f48)

----------------
IN: __printf_fp_l
0x00000000004473f8:  b940eba0      ldr w0, [x29, #232]
0x00000000004473fc:  35001260      cbnz w0, #+0x24c (addr 0x447648)

----------------
IN: __printf_fp_l
0x0000000000447400:  79401a80      ldrh w0, [x20, #12]
0x0000000000447404:  365800e0      tbz w0, #11, #+0x1c (addr 0x447420)

----------------
IN: __printf_fp_l
0x0000000000447420:  f94057a0      ldr x0, [x29, #168]
0x0000000000447424:  97fee3b7      bl #-0x47124 (addr 0x400300)

----------------
IN: __printf_fp_l
0x0000000000447428:  aa0003f9      mov x25, x0
0x000000000044742c:  f9404fa0      ldr x0, [x29, #152]
0x0000000000447430:  8b00033b      add x27, x25, x0
0x0000000000447434:  f94053a0      ldr x0, [x29, #160]
0x0000000000447438:  b4005000      cbz x0, #+0xa00 (addr 0x447e38)

----------------
IN: __printf_fp_l
0x0000000000447e38:  d2800017      mov x23, #0x0
0x0000000000447e3c:  d280001a      mov x26, #0x0
0x0000000000447e40:  17fffd83      b #-0x9f4 (addr 0x44744c)

----------------
IN: __printf_fp_l
0x000000000044744c:  b94073a0      ldr w0, [x29, #112]
0x0000000000447450:  91000af7      add x23, x23, #0x2 (2)
0x0000000000447454:  8b1b02f7      add x23, x23, x27
0x0000000000447458:  35006ee0      cbnz w0, #+0xddc (addr 0x448234)

----------------
IN: __printf_fp_l
0x000000000044745c:  91003ee0      add x0, x23, #0xf (15)
0x0000000000447460:  9270bc01      and x1, x0, #0xffffffffffff0000
0x0000000000447464:  927cec00      and x0, x0, #0xfffffffffffffff0
0x0000000000447468:  cb2163e1      sub x1, sp, x1
0x000000000044746c:  eb2163ff      cmp sp, x1
0x0000000000447470:  540000a0      b.eq #+0x14 (addr 0x447484)

----------------
IN: __printf_fp_l
0x0000000000447484:  92403c00      and x0, x0, #0xffff
0x0000000000447488:  cb2063ff      sub sp, sp, x0
0x000000000044748c:  f90003ff      str xzr, [sp]
0x0000000000447490:  f110001f      cmp x0, #0x400 (1024)
0x0000000000447494:  54000043      b.lo #+0x8 (addr 0x44749c)

----------------
IN: __printf_fp_l
0x000000000044749c:  910043fb      add x27, sp, #0x10 (16)
0x00000000004474a0:  eb15031f      cmp x24, x21
0x00000000004474a4:  54006a09      b.ls #+0xd40 (addr 0x4481e4)

----------------
IN: __printf_fp_l
0x00000000004474a8:  aa1b03e0      mov x0, x27
0x00000000004474ac:  f90063b4      str x20, [x29, #192]
0x00000000004474b0:  aa1503f4      mov x20, x21
0x00000000004474b4:  b94097b5      ldr w21, [x29, #148]
0x00000000004474b8:  b900d3b6      str w22, [x29, #208]
0x00000000004474bc:  b940e3b6      ldr w22, [x29, #224]
0x00000000004474c0:  f90073b3      str x19, [x29, #224]
0x00000000004474c4:  aa1803f3      mov x19, x24
0x00000000004474c8:  f94057b8      ldr x24, [x29, #168]
0x00000000004474cc:  14000007      b #+0x1c (addr 0x4474e8)

----------------
IN: __printf_fp_l
0x00000000004474e8:  b9400281      ldr w1, [x20]
0x00000000004474ec:  6b16003f      cmp w1, w22
0x00000000004474f0:  54ffff01      b.ne #-0x20 (addr 0x4474d0)

----------------
IN: __printf_fp_l
0x00000000004474d0:  6b0102bf      cmp w21, w1
0x00000000004474d4:  54000a80      b.eq #+0x150 (addr 0x447624)

----------------
IN: __printf_fp_l
0x00000000004474d8:  38001401      strb w1, [x0], #1
0x00000000004474dc:  91001294      add x20, x20, #0x4 (4)
0x00000000004474e0:  eb14027f      cmp x19, x20
0x00000000004474e4:  54000169      b.ls #+0x2c (addr 0x447510)

----------------
IN: __printf_fp_l
0x00000000004474f4:  aa1903e2      mov x2, x25
0x00000000004474f8:  aa1803e1      mov x1, x24
0x00000000004474fc:  91001294      add x20, x20, #0x4 (4)
0x0000000000447500:  97fee36c      bl #-0x47250 (addr 0x4002b0)

----------------
IN: __printf_fp_l
0x0000000000447504:  8b190000      add x0, x0, x25
0x0000000000447508:  eb14027f      cmp x19, x20
0x000000000044750c:  54fffee8      b.hi #-0x24 (addr 0x4474e8)

----------------
IN: __printf_fp_l
0x0000000000447510:  f94063b4      ldr x20, [x29, #192]
0x0000000000447514:  b940d3b6      ldr w22, [x29, #208]
0x0000000000447518:  f94073b3      ldr x19, [x29, #224]
0x000000000044751c:  f9400681      ldr x1, [x20, #8]
0x0000000000447520:  b75866c1      tbnz x1, #43, #+0xcd8 (addr 0x4481f8)

----------------
IN: __printf_fp_l
0x0000000000447524:  aa1b03f5      mov x21, x27
0x0000000000447528:  cb150019      sub x25, x0, x21
0x000000000044752c:  f100533f      cmp x25, #0x14 (20)
0x0000000000447530:  54002e6d      b.le #+0x5cc (addr 0x447afc)

----------------
IN: __printf_fp_l
0x0000000000447afc:  aa1503f8      mov x24, x21
0x0000000000447b00:  b5000159      cbnz x25, #+0x28 (addr 0x447b28)

----------------
IN: __printf_fp_l
0x0000000000447b28:  a9428a60      ldp x0, x2, [x19, #40]
0x0000000000447b2c:  38401701      ldrb w1, [x24], #1
0x0000000000447b30:  eb02001f      cmp x0, x2
0x0000000000447b34:  54fffea3      b.lo #-0x2c (addr 0x447b08)

----------------
IN: __printf_fp_l
0x0000000000447b08:  91000402      add x2, x0, #0x1 (1)
0x0000000000447b0c:  f9001662      str x2, [x19, #40]
0x0000000000447b10:  39000001      strb w1, [x0]
0x0000000000447b14:  0b180380      add w0, w28, w24
0x0000000000447b18:  cb1802a1      sub x1, x21, x24
0x0000000000447b1c:  4b150000      sub w0, w0, w21
0x0000000000447b20:  ab19003f      cmn x1, x25
0x0000000000447b24:  540004a0      b.eq #+0x94 (addr 0x447bb8)

----------------
IN: __printf_fp_l
0x0000000000447bb8:  2a0003f7      mov w23, w0
0x0000000000447bbc:  17fffebf      b #-0x504 (addr 0x4476b8)

----------------
IN: __printf_fp_l
0x00000000004476b8:  b94073a0      ldr w0, [x29, #112]
0x00000000004476bc:  35005100      cbnz w0, #+0xa20 (addr 0x4480dc)

----------------
IN: __printf_fp_l
0x00000000004476c0:  79401a80      ldrh w0, [x20, #12]
0x00000000004476c4:  f27b001f      tst x0, #0x20
0x00000000004476c8:  7a401ac4      ccmp w22, #0, #nZcv, ne
0x00000000004476cc:  54ff784d      b.le #-0x10f8 (addr 0x4465d4)

----------------
IN: __printf_fp_l
0x00000000004465d4:  f94067a0      ldr x0, [x29, #200]
0x00000000004465d8:  f945dc15      ldr x21, [x0, #3000]
0x00000000004465dc:  f940afa0      ldr x0, [x29, #344]
0x00000000004465e0:  f94002a1      ldr x1, [x21]
0x00000000004465e4:  eb010000      subs x0, x0, x1
0x00000000004465e8:  d2800001      mov x1, #0x0
0x00000000004465ec:  5400f761      b.ne #+0x1eec (addr 0x4484d8)

----------------
IN: __printf_fp_l
0x00000000004465f0:  910003bf      mov sp, x29
0x00000000004465f4:  2a1703e0      mov w0, w23
0x00000000004465f8:  a94153f3      ldp x19, x20, [sp, #16]
0x00000000004465fc:  a9425bf5      ldp x21, x22, [sp, #32]
0x0000000000446600:  a94363f7      ldp x23, x24, [sp, #48]
0x0000000000446604:  a9446bf9      ldp x25, x26, [sp, #64]
0x0000000000446608:  a94573fb      ldp x27, x28, [sp, #80]
0x000000000044660c:  a8d67bfd      ldp x29, x30, [sp], #352
0x0000000000446610:  d65f03c0      ret

----------------
IN: __vfprintf_internal
0x00000000004175b8:  17ffffa5      b #-0x16c (addr 0x41744c)

----------------
IN: __vfprintf_internal
0x000000000041744c:  37f87520      tbnz w0, #31, #+0xea4 (addr 0x4182f0)

----------------
IN: __vfprintf_internal
0x0000000000417450:  2b000273      adds w19, w19, w0
0x0000000000417454:  52800001      mov w1, #0x0
0x0000000000417458:  5400dc84      b.mi #+0x1b90 (addr 0x418fe8)

----------------
IN: __vfprintf_internal
0x000000000041745c:  6b00027f      cmp w19, w0
0x0000000000417460:  5400dc43      b.lo #+0x1b88 (addr 0x418fe8)

----------------
IN: __vfprintf_internal
0x0000000000417464:  35001621      cbnz w1, #+0x2c4 (addr 0x417728)

----------------
IN: __vfprintf_internal
0x0000000000417468:  37fff213      tbnz w19, #31, #-0x1c0 (addr 0x4172a8)

----------------
IN: buffered_vfprintf
0x00000000004190fc:  2a0003f5      mov w21, w0
0x0000000000419100:  f9462681      ldr x1, [x20, #3144]
0x0000000000419104:  aa1603e0      mov x0, x22
0x0000000000419108:  a9064fe1      stp x1, x19, [sp, #96]
0x000000000041910c:  94002925      bl #+0xa494 (addr 0x4235a0)

----------------
IN: buffered_vfprintf
0x0000000000419110:  b9400260      ldr w0, [x19]
0x0000000000419114:  36780540      tbz w0, #15, #+0xa8 (addr 0x4191bc)

----------------
IN: buffered_vfprintf
0x00000000004191bc:  f9404677      ldr x23, [x19, #136]
0x00000000004191c0:  d53bd058      mrs x24, (unknown)
0x00000000004191c4:  d11f0318      sub x24, x24, #0x7c0 (1984)
0x00000000004191c8:  f94006e0      ldr x0, [x23, #8]
0x00000000004191cc:  eb18001f      cmp x0, x24
0x00000000004191d0:  54000100      b.eq #+0x20 (addr 0x4191f0)

----------------
IN: buffered_vfprintf
0x00000000004191d4:  aa1703e2      mov x2, x23
0x00000000004191d8:  52800021      mov w1, #0x1
0x00000000004191dc:  52800000      mov w0, #0x0
0x00000000004191e0:  94012c30      bl #+0x4b0c0 (addr 0x4642a0)

----------------
IN: buffered_vfprintf
0x00000000004191e4:  350003a0      cbnz w0, #+0x74 (addr 0x419258)

----------------
IN: buffered_vfprintf
0x00000000004191e8:  f9404677      ldr x23, [x19, #136]
0x00000000004191ec:  f90006f8      str x24, [x23, #8]
0x00000000004191f0:  a94a03e1      ldp x1, x0, [sp, #160]
0x00000000004191f4:  b94006e2      ldr w2, [x23, #4]
0x00000000004191f8:  11000442      add w2, w2, #0x1 (1)
0x00000000004191fc:  b90006e2      str w2, [x23, #4]
0x0000000000419200:  cb010000      sub x0, x0, x1
0x0000000000419204:  2a0003f7      mov w23, w0
0x0000000000419208:  7100001f      cmp w0, #0x0 (0)
0x000000000041920c:  54fff90c      b.gt #-0xe0 (addr 0x41912c)

----------------
IN: buffered_vfprintf
0x000000000041912c:  f9470280      ldr x0, [x20, #3584]
0x0000000000419130:  f9465282      ldr x2, [x20, #3232]
0x0000000000419134:  f9406e78      ldr x24, [x19, #216]
0x0000000000419138:  cb000042      sub x2, x2, x0
0x000000000041913c:  cb000300      sub x0, x24, x0
0x0000000000419140:  eb00005f      cmp x2, x0
0x0000000000419144:  54000809      b.ls #+0x100 (addr 0x419244)

----------------
IN: buffered_vfprintf
0x0000000000419148:  f9401f03      ldr x3, [x24, #56]
0x000000000041914c:  93407ee2      sxtw x2, w23
0x0000000000419150:  aa1303e0      mov x0, x19
0x0000000000419154:  d63f0060      blr x3

----------------
IN: _IO_doallocbuf
0x0000000000421794:  b940c260      ldr w0, [x19, #192]
0x0000000000421798:  7100001f      cmp w0, #0x0 (0)
0x000000000042179c:  540003ed      b.le #+0x7c (addr 0x421818)

----------------
IN: _IO_doallocbuf
0x0000000000421818:  91020e75      add x21, x19, #0x83 (131)
0x000000000042181c:  91021274      add x20, x19, #0x84 (132)
0x0000000000421820:  17fffff3      b #-0x34 (addr 0x4217ec)

----------------
IN: _IO_doallocbuf
0x00000000004217ec:  32000021      orr w1, w1, #0x1
0x00000000004217f0:  b9000261      str w1, [x19]
0x00000000004217f4:  a903d275      stp x21, x20, [x19, #56]
0x00000000004217f8:  a94153f3      ldp x19, x20, [sp, #16]
0x00000000004217fc:  f94013f5      ldr x21, [sp, #32]
0x0000000000421800:  a8c37bfd      ldp x29, x30, [sp], #48
0x0000000000421804:  d65f03c0      ret

----------------
IN: _IO_file_overflow
0x0000000000420968:  f9001a62      str x2, [x19, #48]
0x000000000042096c:  3100069f      cmn w20, #0x1 (1)
0x0000000000420970:  54fffba1      b.ne #-0x8c (addr 0x4208e4)

----------------
IN: _IO_new_file_xsputn
0x000000000041fe6c:  b50001f4      cbnz x20, #+0x3c (addr 0x41fea8)

----------------
IN: _IO_new_file_xsputn
0x000000000041fea8:  aa1403e2      mov x2, x20
0x000000000041feac:  aa1703e1      mov x1, x23
0x000000000041feb0:  aa1603e0      mov x0, x22
0x000000000041feb4:  97fffa83      bl #-0x15f4 (addr 0x41e8c0)

achieved tok/s: 5.106294
----------------
IN: _IO_new_file_xsputn
0x000000000041feb8:  eb00029f      cmp x20, x0
0x000000000041febc:  54000348      b.hi #+0x68 (addr 0x41ff24)

----------------
IN: _IO_new_file_xsputn
0x000000000041fec0:  cb0002b5      sub x21, x21, x0
0x000000000041fec4:  b4fffd95      cbz x21, #-0x50 (addr 0x41fe74)

----------------
IN: _IO_new_file_xsputn
0x000000000041fe74:  aa1303e0      mov x0, x19
0x000000000041fe78:  a94153f3      ldp x19, x20, [sp, #16]
0x000000000041fe7c:  a9425bf5      ldp x21, x22, [sp, #32]
0x000000000041fe80:  a94363f7      ldp x23, x24, [sp, #48]
0x000000000041fe84:  a8c47bfd      ldp x29, x30, [sp], #64
0x000000000041fe88:  d65f03c0      ret

----------------
IN: buffered_vfprintf
0x0000000000419158:  6b0002ff      cmp w23, w0
0x000000000041915c:  5a9f02b5      csinv w21, w21, wzr, eq
0x0000000000419160:  b9400260      ldr w0, [x19]
0x0000000000419164:  377800c0      tbnz w0, #15, #+0x18 (addr 0x41917c)

----------------
IN: buffered_vfprintf
0x0000000000419168:  f9404673      ldr x19, [x19, #136]
0x000000000041916c:  b9400660      ldr w0, [x19, #4]
0x0000000000419170:  51000400      sub w0, w0, #0x1 (1)
0x0000000000419174:  b9000660      str w0, [x19, #4]
0x0000000000419178:  34000560      cbz w0, #+0xac (addr 0x419224)

----------------
IN: buffered_vfprintf
0x0000000000419224:  f900067f      str xzr, [x19, #8]
0x0000000000419228:  aa1303e1      mov x1, x19
0x000000000041922c:  94012cb1      bl #+0x4b2c4 (addr 0x4644f0)

----------------
IN: buffered_vfprintf
0x0000000000419230:  7100041f      cmp w0, #0x1 (1)
0x0000000000419234:  54fffa4d      b.le #-0xb8 (addr 0x41917c)

----------------
IN: buffered_vfprintf
0x000000000041917c:  aa1603e0      mov x0, x22
0x0000000000419180:  94002911      bl #+0xa444 (addr 0x4235c4)

----------------
IN: buffered_vfprintf
0x0000000000419184:  a94363f7      ldp x23, x24, [sp, #48]
0x0000000000419188:  f945de94      ldr x20, [x20, #3000]
0x000000000041918c:  f950bfe0      ldr x0, [sp, #8568]
0x0000000000419190:  f9400281      ldr x1, [x20]
0x0000000000419194:  eb010000      subs x0, x0, x1
0x0000000000419198:  d2800001      mov x1, #0x0
0x000000000041919c:  54000641      b.ne #+0xc8 (addr 0x419264)

----------------
IN: buffered_vfprintf
0x00000000004191a0:  2a1503e0      mov w0, w21
0x00000000004191a4:  d284300c      mov x12, #0x2180
0x00000000004191a8:  a9407bfd      ldp x29, x30, [sp]
0x00000000004191ac:  a94153f3      ldp x19, x20, [sp, #16]
0x00000000004191b0:  a9425bf5      ldp x21, x22, [sp, #32]
0x00000000004191b4:  8b2c63ff      add sp, sp, x12
0x00000000004191b8:  d65f03c0      ret

----------------
IN: __vfprintf_internal
0x0000000000418144:  2a0003f3      mov w19, w0
0x0000000000418148:  17fffc5c      b #-0xe90 (addr 0x4172b8)

----------------
IN: __fprintf
0x000000000040e244:  f945de73      ldr x19, [x19, #3000]
0x000000000040e248:  f94037e1      ldr x1, [sp, #104]
0x000000000040e24c:  f9400262      ldr x2, [x19]
0x000000000040e250:  eb020021      subs x1, x1, x2
0x000000000040e254:  d2800002      mov x2, #0x0
0x000000000040e258:  54000081      b.ne #+0x10 (addr 0x40e268)

----------------
IN: __fprintf
0x000000000040e25c:  f9400bf3      ldr x19, [sp, #16]
0x000000000040e260:  a8d27bfd      ldp x29, x30, [sp], #288
0x000000000040e264:  d65f03c0      ret

----------------
IN: generate
0x0000000000403218:  f94037e0      ldr x0, [sp, #104]
0x000000000040321c:  94009691      bl #+0x25a44 (addr 0x428c60)

----------------
IN: generate
0x0000000000403220:  d503201f      nop
0x0000000000403224:  f0000500      adrp x0, #+0xa3000 (addr 0x4a6000)
0x0000000000403228:  f945dc00      ldr x0, [x0, #3000]
0x000000000040322c:  f94047e2      ldr x2, [sp, #136]
0x0000000000403230:  f9400001      ldr x1, [x0]
0x0000000000403234:  eb010042      subs x2, x2, x1
0x0000000000403238:  d2800001      mov x1, #0x0
0x000000000040323c:  54000040      b.eq #+0x8 (addr 0x403244)

----------------
IN: generate
0x0000000000403244:  a8c97bfd      ldp x29, x30, [sp], #144
0x0000000000403248:  d65f03c0      ret

----------------
IN: main
0x0000000000403ba4:  14000018      b #+0x60 (addr 0x403c04)

----------------
IN: main
0x0000000000403c04:  910183e0      add x0, sp, #0x60 (96)
0x0000000000403c08:  97fffc4c      bl #-0xed0 (addr 0x402d38)

----------------
IN: free_sampler
0x0000000000402d38:  a9be7bfd      stp x29, x30, [sp, #-32]!
0x0000000000402d3c:  910003fd      mov x29, sp
0x0000000000402d40:  f9000fe0      str x0, [sp, #24]
0x0000000000402d44:  f9400fe0      ldr x0, [sp, #24]
0x0000000000402d48:  f9400400      ldr x0, [x0, #8]
0x0000000000402d4c:  940097c5      bl #+0x25f14 (addr 0x428c60)

----------------
IN: free_sampler
0x0000000000402d50:  d503201f      nop
0x0000000000402d54:  a8c27bfd      ldp x29, x30, [sp], #32
0x0000000000402d58:  d65f03c0      ret

----------------
IN: main
0x0000000000403c0c:  9105e3e0      add x0, sp, #0x178 (376)
0x0000000000403c10:  97fff93d      bl #-0x1b0c (addr 0x402104)

----------------
IN: free_tokenizer
0x0000000000402104:  a9bd7bfd      stp x29, x30, [sp, #-48]!
0x0000000000402108:  910003fd      mov x29, sp
0x000000000040210c:  f9000fe0      str x0, [sp, #24]
0x0000000000402110:  b9002fff      str wzr, [sp, #44]
0x0000000000402114:  1400000b      b #+0x2c (addr 0x402140)

----------------
IN: free_tokenizer
0x0000000000402140:  f9400fe0      ldr x0, [sp, #24]
0x0000000000402144:  b9401800      ldr w0, [x0, #24]
0x0000000000402148:  b9402fe1      ldr w1, [sp, #44]
0x000000000040214c:  6b00003f      cmp w1, w0
0x0000000000402150:  54fffe4b      b.lt #-0x38 (addr 0x402118)

----------------
IN: free_tokenizer
0x0000000000402118:  f9400fe0      ldr x0, [sp, #24]
0x000000000040211c:  f9400001      ldr x1, [x0]
0x0000000000402120:  b9802fe0      ldrsw x0, [sp, #44]
0x0000000000402124:  d37df000      lsl x0, x0, #3
0x0000000000402128:  8b000020      add x0, x1, x0
0x000000000040212c:  f9400000      ldr x0, [x0]
0x0000000000402130:  94009acc      bl #+0x26b30 (addr 0x428c60)

----------------
IN: free_tokenizer
0x0000000000402134:  b9402fe0      ldr w0, [sp, #44]
0x0000000000402138:  11000400      add w0, w0, #0x1 (1)
0x000000000040213c:  b9002fe0      str w0, [sp, #44]
0x0000000000402140:  f9400fe0      ldr x0, [sp, #24]
0x0000000000402144:  b9401800      ldr w0, [x0, #24]
0x0000000000402148:  b9402fe1      ldr w1, [sp, #44]
0x000000000040214c:  6b00003f      cmp w1, w0
0x0000000000402150:  54fffe4b      b.lt #-0x38 (addr 0x402118)

----------------
IN: _int_free
0x0000000000426018:  8b140279      add x25, x19, x20
0x000000000042601c:  f9400720      ldr x0, [x25, #8]
0x0000000000426020:  f100401f      cmp x0, #0x10 (16)
0x0000000000426024:  54001589      b.ls #+0x2b0 (addr 0x4262d4)

----------------
IN: _int_free
0x0000000000426028:  f94446c1      ldr x1, [x22, #2184]
0x000000000042602c:  927df000      and x0, x0, #0xfffffffffffffff8
0x0000000000426030:  eb01001f      cmp x0, x1
0x0000000000426034:  54001502      b.hs #+0x2a0 (addr 0x4262d4)

----------------
IN: _int_free
0x0000000000426038:  b94f5b41      ldr w1, [x26, #3928]
0x000000000042603c:  35002841      cbnz w1, #+0x508 (addr 0x426544)

----------------
IN: _int_free
0x0000000000426040:  910022c0      add x0, x22, #0x8 (8)
0x0000000000426044:  52800021      mov w1, #0x1
0x0000000000426048:  b9000001      str w1, [x0]
0x000000000042604c:  d11f02b5      sub x21, x21, #0x7c0 (1984)
0x0000000000426050:  53047e94      lsr w20, w20, #4
0x0000000000426054:  51000a80      sub w0, w20, #0x2 (2)
0x0000000000426058:  b94002a1      ldr w1, [x21]
0x000000000042605c:  8b000ec0      add x0, x22, x0, lsl #3
0x0000000000426060:  f9400815      ldr x21, [x0, #16]
0x0000000000426064:  35000d61      cbnz w1, #+0x1ac (addr 0x426210)

----------------
IN: _int_free
0x0000000000426068:  eb15027f      cmp x19, x21
0x000000000042606c:  54000f20      b.eq #+0x1e4 (addr 0x426250)

----------------
IN: _int_free
0x0000000000426070:  91004261      add x1, x19, #0x10 (16)
0x0000000000426074:  ca4132a1      eor x1, x21, x1, lsr #12
0x0000000000426078:  f9000a61      str x1, [x19, #16]
0x000000000042607c:  f9000813      str x19, [x0, #16]
0x0000000000426080:  f10002bf      cmp x21, #0x0 (0)
0x0000000000426084:  1a9f07e0      cset w0, ne
0x0000000000426088:  6a00031f      tst w24, w0
0x000000000042608c:  54000080      b.eq #+0x10 (addr 0x42609c)

----------------
IN: free_tokenizer
0x0000000000402154:  f9400fe0      ldr x0, [sp, #24]
0x0000000000402158:  f9400000      ldr x0, [x0]
0x000000000040215c:  94009ac1      bl #+0x26b04 (addr 0x428c60)

----------------
IN: free_tokenizer
0x0000000000402160:  f9400fe0      ldr x0, [sp, #24]
0x0000000000402164:  f9400400      ldr x0, [x0, #8]
0x0000000000402168:  94009abe      bl #+0x26af8 (addr 0x428c60)

----------------
IN: _int_free
0x00000000004266a8:  aa1603e0      mov x0, x22
0x00000000004266ac:  97fffa22      bl #-0x1778 (addr 0x424f34)

----------------
IN: malloc_consolidate
0x0000000000424f34:  a9b97bfd      stp x29, x30, [sp, #-112]!
0x0000000000424f38:  910003fd      mov x29, sp
0x0000000000424f3c:  a90363f7      stp x23, x24, [sp, #48]
0x0000000000424f40:  aa0003f8      mov x24, x0
0x0000000000424f44:  91002000      add x0, x0, #0x8 (8)
0x0000000000424f48:  a9046bf9      stp x25, x26, [sp, #64]
0x0000000000424f4c:  a90573fb      stp x27, x28, [sp, #80]
0x0000000000424f50:  b900001f      str wzr, [x0]
0x0000000000424f54:  9101831b      add x27, x24, #0x60 (96)
0x0000000000424f58:  91004319      add x25, x24, #0x10 (16)
0x0000000000424f5c:  aa1903e1      mov x1, x25
0x0000000000424f60:  d2800000      mov x0, #0x0
0x0000000000424f64:  9400fd4b      bl #+0x3f52c (addr 0x464490)

----------------
IN: __aarch64_swp8_acq
0x0000000000464490:  d503245f      unallocated (Unallocated)
0x0000000000464494:  d0000250      adrp x16, #+0x4a000 (addr 0x4ae000)
0x0000000000464498:  39546210      ldrb w16, [x16, #1304]
0x000000000046449c:  34000070      cbz w16, #+0xc (addr 0x4644a8)

----------------
IN: __aarch64_swp8_acq
0x00000000004644a0:  f8a08020      unallocated (Unallocated)
0x00000000004644a4:  d65f03c0      ret

----------------
IN: malloc_consolidate
0x0000000000424f68:  b5000120      cbnz x0, #+0x24 (addr 0x424f8c)

----------------
IN: malloc_consolidate
0x0000000000424f8c:  a90153f3      stp x19, x20, [sp, #16]
0x0000000000424f90:  aa0003f3      mov x19, x0
0x0000000000424f94:  a9025bf5      stp x21, x22, [sp, #32]
0x0000000000424f98:  14000013      b #+0x4c (addr 0x424fe4)

----------------
IN: malloc_consolidate
0x0000000000424fe4:  f2400e7f      tst x19, #0xf
0x0000000000424fe8:  540005c1      b.ne #+0xb8 (addr 0x4250a0)

----------------
IN: malloc_consolidate
0x0000000000424fec:  f9400663      ldr x3, [x19, #8]
0x0000000000424ff0:  53047c62      lsr w2, w3, #4
0x0000000000424ff4:  51000842      sub w2, w2, #0x2 (2)
0x0000000000424ff8:  91000842      add x2, x2, #0x2 (2)
0x0000000000424ffc:  8b020f02      add x2, x24, x2, lsl #3

----------------
IN: malloc_consolidate
0x0000000000425000:  eb02033f      cmp x25, x2
0x0000000000425004:  540005a1      b.ne #+0xb4 (addr 0x4250b8)

----------------
IN: malloc_consolidate
0x0000000000425008:  aa1303e2      mov x2, x19
0x000000000042500c:  927df074      and x20, x3, #0xfffffffffffffff8
0x0000000000425010:  8b140276      add x22, x19, x20
0x0000000000425014:  f8410c5a      ldr x26, [x2, #16]!
0x0000000000425018:  f94006d7      ldr x23, [x22, #8]
0x000000000042501c:  d34cfc55      lsr x21, x2, #12
0x0000000000425020:  ca150342      eor x2, x26, x21
0x0000000000425024:  927df2fc      and x28, x23, #0xfffffffffffffff8
0x0000000000425028:  37000183      tbnz w3, #0, #+0x30 (addr 0x425058)

----------------
IN: malloc_consolidate
0x0000000000425058:  f9403300      ldr x0, [x24, #96]
0x000000000042505c:  eb16001f      cmp x0, x22
0x0000000000425060:  54fff9e1      b.ne #-0xc4 (addr 0x424f9c)

----------------
IN: malloc_consolidate
0x0000000000424f9c:  8b1c02c0      add x0, x22, x28
0x0000000000424fa0:  f9400400      ldr x0, [x0, #8]
0x0000000000424fa4:  36000720      tbz w0, #0, #+0xe4 (addr 0x425088)

----------------
IN: malloc_consolidate
0x0000000000424fa8:  927ffaf7      and x23, x23, #0xfffffffffffffffe
0x0000000000424fac:  f90006d7      str x23, [x22, #8]
0x0000000000424fb0:  f9400b60      ldr x0, [x27, #16]
0x0000000000424fb4:  f9000b73      str x19, [x27, #16]
0x0000000000424fb8:  f9000c13      str x19, [x0, #24]
0x0000000000424fbc:  f10ffe9f      cmp x20, #0x3ff (1023)
0x0000000000424fc0:  54000049      b.ls #+0x8 (addr 0x424fc8)

----------------
IN: malloc_consolidate
0x0000000000424fc8:  b2400281      orr x1, x20, #0x1
0x0000000000424fcc:  a9008261      stp x1, x0, [x19, #8]
0x0000000000424fd0:  f9000e7b      str x27, [x19, #24]
0x0000000000424fd4:  f8346a74      str x20, [x19, x20]
0x0000000000424fd8:  eb15035f      cmp x26, x21
0x0000000000424fdc:  54000500      b.eq #+0xa0 (addr 0x42507c)

----------------
IN: malloc_consolidate
0x0000000000424fe0:  aa0203f3      mov x19, x2
0x0000000000424fe4:  f2400e7f      tst x19, #0xf
0x0000000000424fe8:  540005c1      b.ne #+0xb8 (addr 0x4250a0)

----------------
IN: malloc_consolidate
0x0000000000425088:  aa1603e0      mov x0, x22
0x000000000042508c:  f90037e2      str x2, [sp, #104]
0x0000000000425090:  97ffff74      bl #-0x230 (addr 0x424e60)

----------------
IN: malloc_consolidate
0x0000000000425094:  8b1c0294      add x20, x20, x28
0x0000000000425098:  f94037e2      ldr x2, [sp, #104]
0x000000000042509c:  17ffffc5      b #-0xec (addr 0x424fb0)

----------------
IN: malloc_consolidate
0x0000000000424fb0:  f9400b60      ldr x0, [x27, #16]
0x0000000000424fb4:  f9000b73      str x19, [x27, #16]
0x0000000000424fb8:  f9000c13      str x19, [x0, #24]
0x0000000000424fbc:  f10ffe9f      cmp x20, #0x3ff (1023)
0x0000000000424fc0:  54000049      b.ls #+0x8 (addr 0x424fc8)

----------------
IN: malloc_consolidate
0x0000000000424fc4:  a9027e7f      stp xzr, xzr, [x19, #32]
0x0000000000424fc8:  b2400281      orr x1, x20, #0x1
0x0000000000424fcc:  a9008261      stp x1, x0, [x19, #8]
0x0000000000424fd0:  f9000e7b      str x27, [x19, #24]
0x0000000000424fd4:  f8346a74      str x20, [x19, x20]
0x0000000000424fd8:  eb15035f      cmp x26, x21
0x0000000000424fdc:  54000500      b.eq #+0xa0 (addr 0x42507c)

----------------
IN: malloc_consolidate
0x000000000042507c:  a94153f3      ldp x19, x20, [sp, #16]
0x0000000000425080:  a9425bf5      ldp x21, x22, [sp, #32]
0x0000000000425084:  17ffffba      b #-0x118 (addr 0x424f6c)

----------------
IN: malloc_consolidate
0x0000000000424f6c:  91002339      add x25, x25, #0x8 (8)
0x0000000000424f70:  eb19037f      cmp x27, x25
0x0000000000424f74:  54ffff41      b.ne #-0x18 (addr 0x424f5c)

----------------
IN: malloc_consolidate
0x0000000000424f5c:  aa1903e1      mov x1, x25
0x0000000000424f60:  d2800000      mov x0, #0x0
0x0000000000424f64:  9400fd4b      bl #+0x3f52c (addr 0x464490)

----------------
IN: malloc_consolidate
0x0000000000424f78:  a94363f7      ldp x23, x24, [sp, #48]
0x0000000000424f7c:  a9446bf9      ldp x25, x26, [sp, #64]
0x0000000000424f80:  a94573fb      ldp x27, x28, [sp, #80]
0x0000000000424f84:  a8c77bfd      ldp x29, x30, [sp], #112
0x0000000000424f88:  d65f03c0      ret

----------------
IN: _int_free
0x00000000004266b0:  17ffff39      b #-0x31c (addr 0x426394)

----------------
IN: free_tokenizer
0x000000000040216c:  f9400fe0      ldr x0, [sp, #24]
0x0000000000402170:  f9400800      ldr x0, [x0, #16]
0x0000000000402174:  94009abb      bl #+0x26aec (addr 0x428c60)

----------------
IN: free_tokenizer
0x0000000000402178:  d503201f      nop
0x000000000040217c:  a8c37bfd      ldp x29, x30, [sp], #48
0x0000000000402180:  d65f03c0      ret

----------------
IN: main
0x0000000000403c14:  910203e0      add x0, sp, #0x80 (128)
0x0000000000403c18:  97fff4dc      bl #-0x2c90 (addr 0x400f88)

----------------
IN: free_transformer
0x0000000000400f88:  a9be7bfd      stp x29, x30, [sp, #-32]!
0x0000000000400f8c:  910003fd      mov x29, sp
0x0000000000400f90:  f9000fe0      str x0, [sp, #24]
0x0000000000400f94:  f9400fe0      ldr x0, [sp, #24]
0x0000000000400f98:  f9407400      ldr x0, [x0, #232]
0x0000000000400f9c:  b100041f      cmn x0, #0x1 (1)
0x0000000000400fa0:  54000100      b.eq #+0x20 (addr 0x400fc0)

----------------
IN: free_transformer
0x0000000000400fa4:  f9400fe0      ldr x0, [sp, #24]
0x0000000000400fa8:  f9407402      ldr x2, [x0, #232]
0x0000000000400fac:  f9400fe0      ldr x0, [sp, #24]
0x0000000000400fb0:  f9407800      ldr x0, [x0, #240]
0x0000000000400fb4:  aa0003e1      mov x1, x0
0x0000000000400fb8:  aa0203e0      mov x0, x2
0x0000000000400fbc:  9400bdb1      bl #+0x2f6c4 (addr 0x430680)

----------------
IN: free_transformer
0x0000000000400fc0:  f9400fe0      ldr x0, [sp, #24]
0x0000000000400fc4:  b940e000      ldr w0, [x0, #224]
0x0000000000400fc8:  3100041f      cmn w0, #0x1 (1)
0x0000000000400fcc:  54000080      b.eq #+0x10 (addr 0x400fdc)

----------------
IN: free_transformer
0x0000000000400fd0:  f9400fe0      ldr x0, [sp, #24]
0x0000000000400fd4:  b940e000      ldr w0, [x0, #224]
0x0000000000400fd8:  9400ba6a      bl #+0x2e9a8 (addr 0x42f980)

----------------
IN: __close
0x000000000042f980:  a9be7bfd      stp x29, x30, [sp, #-32]!
0x000000000042f984:  910003fd      mov x29, sp
0x000000000042f988:  a90153f3      stp x19, x20, [sp, #16]
0x000000000042f98c:  d53bd054      mrs x20, (unknown)
0x000000000042f990:  d11f0281      sub x1, x20, #0x7c0 (1984)
0x000000000042f994:  93407c13      sxtw x19, w0
0x000000000042f998:  b9400020      ldr w0, [x1]
0x000000000042f99c:  35000160      cbnz w0, #+0x2c (addr 0x42f9c8)

----------------
IN: __close
0x000000000042f9a0:  aa1303e0      mov x0, x19
0x000000000042f9a4:  d2800728      mov x8, #0x39
0x000000000042f9a8:  d4000001      svc #0x0

----------------
IN: __close
0x000000000042f9ac:  b140041f      cmn x0, #0x1000 (4096)
0x000000000042f9b0:  54000288      b.hi #+0x50 (addr 0x42fa00)

----------------
IN: __close
0x000000000042f9b4:  2a0003f3      mov w19, w0
0x000000000042f9b8:  2a1303e0      mov w0, w19
0x000000000042f9bc:  a94153f3      ldp x19, x20, [sp, #16]
0x000000000042f9c0:  a8c27bfd      ldp x29, x30, [sp], #32
0x000000000042f9c4:  d65f03c0      ret

----------------
IN: free_transformer
0x0000000000400fdc:  f9400fe0      ldr x0, [sp, #24]
0x0000000000400fe0:  91020000      add x0, x0, #0x80 (128)
0x0000000000400fe4:  97fffe5c      bl #-0x690 (addr 0x400954)

----------------
IN: free_run_state
0x0000000000400954:  a9be7bfd      stp x29, x30, [sp, #-32]!
0x0000000000400958:  910003fd      mov x29, sp
0x000000000040095c:  f9000fe0      str x0, [sp, #24]
0x0000000000400960:  f9400fe0      ldr x0, [sp, #24]
0x0000000000400964:  f9400000      ldr x0, [x0]
0x0000000000400968:  9400a0be      bl #+0x282f8 (addr 0x428c60)

----------------
IN: free_run_state
0x000000000040096c:  f9400fe0      ldr x0, [sp, #24]
0x0000000000400970:  f9400400      ldr x0, [x0, #8]
0x0000000000400974:  9400a0bb      bl #+0x282ec (addr 0x428c60)

----------------
IN: _int_free
0x000000000042613c:  f9400260      ldr x0, [x19]
0x0000000000426140:  cb000273      sub x19, x19, x0
0x0000000000426144:  8b000294      add x20, x20, x0
0x0000000000426148:  f9400661      ldr x1, [x19, #8]
0x000000000042614c:  927df021      and x1, x1, #0xfffffffffffffff8
0x0000000000426150:  eb00003f      cmp x1, x0
0x0000000000426154:  54002e81      b.ne #+0x5d0 (addr 0x426724)

----------------
IN: _int_free
0x0000000000426158:  aa1303e0      mov x0, x19
0x000000000042615c:  97fffb41      bl #-0x12fc (addr 0x424e60)

----------------
IN: free_run_state
0x0000000000400978:  f9400fe0      ldr x0, [sp, #24]
0x000000000040097c:  f9400800      ldr x0, [x0, #16]
0x0000000000400980:  9400a0b8      bl #+0x282e0 (addr 0x428c60)

----------------
IN: free_run_state
0x0000000000400984:  f9400fe0      ldr x0, [sp, #24]
0x0000000000400988:  f9400c00      ldr x0, [x0, #24]
0x000000000040098c:  9400a0b5      bl #+0x282d4 (addr 0x428c60)

----------------
IN: free_run_state
0x0000000000400990:  f9400fe0      ldr x0, [sp, #24]
0x0000000000400994:  f9401000      ldr x0, [x0, #32]
0x0000000000400998:  9400a0b2      bl #+0x282c8 (addr 0x428c60)

----------------
IN: free_run_state
0x000000000040099c:  f9400fe0      ldr x0, [sp, #24]
0x00000000004009a0:  f9401400      ldr x0, [x0, #40]
0x00000000004009a4:  9400a0af      bl #+0x282bc (addr 0x428c60)

----------------
IN: free_run_state
0x00000000004009a8:  f9400fe0      ldr x0, [sp, #24]
0x00000000004009ac:  f9402000      ldr x0, [x0, #64]
0x00000000004009b0:  9400a0ac      bl #+0x282b0 (addr 0x428c60)

----------------
IN: free_run_state
0x00000000004009b4:  f9400fe0      ldr x0, [sp, #24]
0x00000000004009b8:  f9402400      ldr x0, [x0, #72]
0x00000000004009bc:  9400a0a9      bl #+0x282a4 (addr 0x428c60)

----------------
IN: free_run_state
0x00000000004009c0:  f9400fe0      ldr x0, [sp, #24]
0x00000000004009c4:  f9402800      ldr x0, [x0, #80]
0x00000000004009c8:  9400a0a6      bl #+0x28298 (addr 0x428c60)

----------------
IN: free_run_state
0x00000000004009cc:  f9400fe0      ldr x0, [sp, #24]
0x00000000004009d0:  f9402c00      ldr x0, [x0, #88]
0x00000000004009d4:  9400a0a3      bl #+0x2828c (addr 0x428c60)

----------------
IN: free_run_state
0x00000000004009d8:  d503201f      nop
0x00000000004009dc:  a8c27bfd      ldp x29, x30, [sp], #32
0x00000000004009e0:  d65f03c0      ret

----------------
IN: free_transformer
0x0000000000400fe8:  d503201f      nop
0x0000000000400fec:  a8c27bfd      ldp x29, x30, [sp], #32
0x0000000000400ff0:  d65f03c0      ret

----------------
IN: main
0x0000000000403c1c:  52800000      mov w0, #0x0
0x0000000000403c20:  2a0003e1      mov w1, w0
0x0000000000403c24:  f0000500      adrp x0, #+0xa3000 (addr 0x4a6000)
0x0000000000403c28:  f945dc00      ldr x0, [x0, #3000]
0x0000000000403c2c:  f941cfe3      ldr x3, [sp, #920]
0x0000000000403c30:  f9400002      ldr x2, [x0]
0x0000000000403c34:  eb020063      subs x3, x3, x2
0x0000000000403c38:  d2800002      mov x2, #0x0
0x0000000000403c3c:  54000040      b.eq #+0x8 (addr 0x403c44)

----------------
IN: main
0x0000000000403c44:  2a0103e0      mov w0, w1
0x0000000000403c48:  a9407bfd      ldp x29, x30, [sp]
0x0000000000403c4c:  910e83ff      add sp, sp, #0x3a0 (928)
0x0000000000403c50:  d65f03c0      ret

----------------
IN: __libc_start_call_main
0x00000000004045a4:  940015e7      bl #+0x579c (addr 0x409d40)

----------------
IN: exit
0x0000000000409d40:  a9bf7bfd      stp x29, x30, [sp, #-16]!
0x0000000000409d44:  d00004e1      adrp x1, #+0x9e000 (addr 0x4a7000)
0x0000000000409d48:  52800023      mov w3, #0x1
0x0000000000409d4c:  910003fd      mov x29, sp
0x0000000000409d50:  91014021      add x1, x1, #0x50 (80)
0x0000000000409d54:  2a0303e2      mov w2, w3
0x0000000000409d58:  97ffff6e      bl #-0x248 (addr 0x409b10)

----------------
IN: __run_exit_handlers
0x0000000000409b10:  a9b97bfd      stp x29, x30, [sp, #-112]!
0x0000000000409b14:  12001c63      and w3, w3, #0xff
0x0000000000409b18:  910003fd      mov x29, sp
0x0000000000409b1c:  a90153f3      stp x19, x20, [sp, #16]
0x0000000000409b20:  b00004f4      adrp x20, #+0x9d000 (addr 0x4a6000)
0x0000000000409b24:  f947be84      ldr x4, [x20, #3960]
0x0000000000409b28:  a9025bf5      stp x21, x22, [sp, #32]
0x0000000000409b2c:  a90363f7      stp x23, x24, [sp, #48]
0x0000000000409b30:  2a0003f7      mov w23, w0
0x0000000000409b34:  12001c40      and w0, w2, #0xff
0x0000000000409b38:  a9046bf9      stp x25, x26, [sp, #64]
0x0000000000409b3c:  f100009f      cmp x4, #0x0 (0)
0x0000000000409b40:  aa0103f9      mov x25, x1
0x0000000000409b44:  a90573fb      stp x27, x28, [sp, #80]
0x0000000000409b48:  7a401864      ccmp w3, #0, #nZcv, ne
0x0000000000409b4c:  b9006fe0      str w0, [sp, #108]
0x0000000000409b50:  54000e41      b.ne #+0x1c8 (addr 0x409d18)

----------------
IN: __run_exit_handlers
0x0000000000409b54:  f9466a93      ldr x19, [x20, #3280]
0x0000000000409b58:  52800021      mov w1, #0x1
0x0000000000409b5c:  52800000      mov w0, #0x0
0x0000000000409b60:  aa1303e2      mov x2, x19
0x0000000000409b64:  940169cf      bl #+0x5a73c (addr 0x4642a0)

----------------
IN: __run_exit_handlers
0x0000000000409b68:  35000e20      cbnz w0, #+0x1c4 (addr 0x409d2c)

----------------
IN: __run_exit_handlers
0x0000000000409b6c:  f9466a98      ldr x24, [x20, #3280]
0x0000000000409b70:  900004f6      adrp x22, #+0x9c000 (addr 0x4a5000)
0x0000000000409b74:  f9400333      ldr x19, [x25]
0x0000000000409b78:  b40008b3      cbz x19, #+0x114 (addr 0x409c8c)

----------------
IN: __run_exit_handlers
0x0000000000409b7c:  91004275      add x21, x19, #0x10 (16)
0x0000000000409b80:  f9400662      ldr x2, [x19, #8]
0x0000000000409b84:  b40007e2      cbz x2, #+0xfc (addr 0x409c80)

----------------
IN: __run_exit_handlers
0x0000000000409b88:  d1000442      sub x2, x2, #0x1 (1)
0x0000000000409b8c:  f9000662      str x2, [x19, #8]
0x0000000000409b90:  d37be843      lsl x3, x2, #5
0x0000000000409b94:  f8636aa0      ldr x0, [x21, x3]
0x0000000000409b98:  f1000c1f      cmp x0, #0x3 (3)
0x0000000000409b9c:  54000540      b.eq #+0xa8 (addr 0x409c44)

----------------
IN: __run_exit_handlers
0x0000000000409ba0:  f100101f      cmp x0, #0x4 (4)
0x0000000000409ba4:  54000320      b.eq #+0x64 (addr 0x409c08)

----------------
IN: __run_exit_handlers
0x0000000000409c08:  8b030263      add x3, x19, x3
0x0000000000409c0c:  52800000      mov w0, #0x0
0x0000000000409c10:  f944dec5      ldr x5, [x22, #2488]
0x0000000000409c14:  a941e87b      ldp x27, x26, [x3, #24]
0x0000000000409c18:  f900087f      str xzr, [x3, #16]
0x0000000000409c1c:  f9466a9c      ldr x28, [x20, #3280]
0x0000000000409c20:  aa1c03e1      mov x1, x28
0x0000000000409c24:  ca05037b      eor x27, x27, x5
0x0000000000409c28:  94016a32      bl #+0x5a8c8 (addr 0x4644f0)

----------------
IN: __run_exit_handlers
0x0000000000409c2c:  7100041f      cmp w0, #0x1 (1)
0x0000000000409c30:  5400068c      b.gt #+0xd0 (addr 0x409d00)

----------------
IN: __run_exit_handlers
0x0000000000409c34:  aa1a03e0      mov x0, x26
0x0000000000409c38:  2a1703e1      mov w1, w23
0x0000000000409c3c:  d63f0360      blr x27

----------------
IN: call_fini
0x0000000000404500:  a9be7bfd      stp x29, x30, [sp, #-32]!
0x0000000000404504:  f00004e0      adrp x0, #+0x9f000 (addr 0x4a3000)
0x0000000000404508:  9120a000      add x0, x0, #0x828 (2088)
0x000000000040450c:  910003fd      mov x29, sp
0x0000000000404510:  a90153f3      stp x19, x20, [sp, #16]
0x0000000000404514:  f00004f3      adrp x19, #+0x9f000 (addr 0x4a3000)
0x0000000000404518:  9120c273      add x19, x19, #0x830 (2096)
0x000000000040451c:  cb000273      sub x19, x19, x0
0x0000000000404520:  9343fe73      asr x19, x19, #3
0x0000000000404524:  b40000f3      cbz x19, #+0x1c (addr 0x404540)

----------------
IN: call_fini
0x0000000000404528:  f00004f4      adrp x20, #+0x9f000 (addr 0x4a3000)
0x000000000040452c:  91208294      add x20, x20, #0x820 (2080)
0x0000000000404530:  f8737a80      ldr x0, [x20, x19, lsl #3]
0x0000000000404534:  d63f0000      blr x0

----------------
IN: 
0x0000000000400650:  a9be7bfd      stp x29, x30, [sp, #-32]!
0x0000000000400654:  910003fd      mov x29, sp
0x0000000000400658:  f9000bf3      str x19, [sp, #16]
0x000000000040065c:  b0000553      adrp x19, #+0xa9000 (addr 0x4a9000)
0x0000000000400660:  39434260      ldrb w0, [x19, #208]
0x0000000000400664:  35000140      cbnz w0, #+0x28 (addr 0x40068c)

----------------
IN: 
0x0000000000400668:  97ffffde      bl #-0x88 (addr 0x4005e0)

----------------
IN: 
0x00000000004005e0:  90000540      adrp x0, #+0xa8000 (addr 0x4a8000)
0x00000000004005e4:  91252000      add x0, x0, #0x948 (2376)
0x00000000004005e8:  90000541      adrp x1, #+0xa8000 (addr 0x4a8000)
0x00000000004005ec:  91252021      add x1, x1, #0x948 (2376)
0x00000000004005f0:  eb00003f      cmp x1, x0
0x00000000004005f4:  540000c0      b.eq #+0x18 (addr 0x40060c)

----------------
IN: 
0x000000000040060c:  d65f03c0      ret

----------------
IN: 
0x000000000040066c:  f0000340      adrp x0, #+0x6b000 (addr 0x46b000)
0x0000000000400670:  f9438400      ldr x0, [x0, #1800]
0x0000000000400674:  b4000080      cbz x0, #+0x10 (addr 0x400684)

----------------
IN: 
0x0000000000400678:  d0000420      adrp x0, #+0x86000 (addr 0x486000)
0x000000000040067c:  911f4000      add x0, x0, #0x7d0 (2000)
0x0000000000400680:  9401a6f9      bl #+0x69be4 (addr 0x46a264)

----------------
IN: __deregister_frame_info
0x000000000046a264:  17ffffb3      b #-0x134 (addr 0x46a130)

----------------
IN: __deregister_frame_info_bases
0x000000000046a130:  a9bd7bfd      stp x29, x30, [sp, #-48]!
0x000000000046a134:  910003fd      mov x29, sp
0x000000000046a138:  a90153f3      stp x19, x20, [sp, #16]
0x000000000046a13c:  b4000660      cbz x0, #+0xcc (addr 0x46a208)

----------------
IN: __deregister_frame_info_bases
0x000000000046a140:  aa0003f4      mov x20, x0
0x000000000046a144:  b9400000      ldr w0, [x0]
0x000000000046a148:  34000600      cbz w0, #+0xc0 (addr 0x46a208)

----------------
IN: __deregister_frame_info_bases
0x000000000046a14c:  a9025bf5      stp x21, x22, [sp, #32]
0x000000000046a150:  900001f5      adrp x21, #+0x3c000 (addr 0x4a6000)
0x000000000046a154:  90000236      adrp x22, #+0x44000 (addr 0x4ae000)
0x000000000046a158:  f94606a0      ldr x0, [x21, #3080]
0x000000000046a15c:  b4000080      cbz x0, #+0x10 (addr 0x46a16c)

----------------
IN: __deregister_frame_info_bases
0x000000000046a16c:  911622c2      add x2, x22, #0x588 (1416)
0x000000000046a170:  f940e441      ldr x1, [x2, #456]
0x000000000046a174:  b4000241      cbz x1, #+0x48 (addr 0x46a1bc)

----------------
IN: __deregister_frame_info_bases
0x000000000046a178:  91072042      add x2, x2, #0x1c8 (456)
0x000000000046a17c:  14000003      b #+0xc (addr 0x46a188)

----------------
IN: __deregister_frame_info_bases
0x000000000046a188:  f9400c20      ldr x0, [x1, #24]
0x000000000046a18c:  aa0103f3      mov x19, x1
0x000000000046a190:  f9401421      ldr x1, [x1, #40]
0x000000000046a194:  eb00029f      cmp x20, x0
0x000000000046a198:  54ffff41      b.ne #-0x18 (addr 0x46a180)

----------------
IN: __deregister_frame_info_bases
0x000000000046a19c:  f9000041      str x1, [x2]
0x000000000046a1a0:  f94606b5      ldr x21, [x21, #3080]
0x000000000046a1a4:  b50003d5      cbnz x21, #+0x78 (addr 0x46a21c)

----------------
IN: __deregister_frame_info_bases
0x000000000046a1a8:  aa1303e0      mov x0, x19
0x000000000046a1ac:  a94153f3      ldp x19, x20, [sp, #16]
0x000000000046a1b0:  a9425bf5      ldp x21, x22, [sp, #32]
0x000000000046a1b4:  a8c37bfd      ldp x29, x30, [sp], #48
0x000000000046a1b8:  d65f03c0      ret

----------------
IN: 
0x0000000000400684:  52800020      mov w0, #0x1
0x0000000000400688:  39034260      strb w0, [x19, #208]
0x000000000040068c:  f9400bf3      ldr x19, [sp, #16]
0x0000000000400690:  a8c27bfd      ldp x29, x30, [sp], #32
0x0000000000400694:  d65f03c0      ret

----------------
IN: call_fini
0x0000000000404538:  f1000673      subs x19, x19, #0x1 (1)
0x000000000040453c:  54ffffa1      b.ne #-0xc (addr 0x404530)

----------------
IN: call_fini
0x0000000000404540:  a94153f3      ldp x19, x20, [sp, #16]
0x0000000000404544:  a8c27bfd      ldp x29, x30, [sp], #32
0x0000000000404548:  14019c63      b #+0x6718c (addr 0x46b6d4)

----------------
IN: 
0x000000000046b6d4:  d503201f      nop
0x000000000046b6d8:  a9bf7bfd      stp x29, x30, [sp, #-16]!
0x000000000046b6dc:  910003fd      mov x29, sp
0x000000000046b6e0:  a8c17bfd      ldp x29, x30, [sp], #16
0x000000000046b6e4:  d65f03c0      ret

----------------
IN: __run_exit_handlers
0x0000000000409c40:  17ffffe9      b #-0x5c (addr 0x409be4)

----------------
IN: __run_exit_handlers
0x0000000000409be4:  f9466a82      ldr x2, [x20, #3280]
0x0000000000409be8:  52800021      mov w1, #0x1
0x0000000000409bec:  52800000      mov w0, #0x0
0x0000000000409bf0:  940169ac      bl #+0x5a6b0 (addr 0x4642a0)

----------------
IN: __run_exit_handlers
0x0000000000409bf4:  34fffc60      cbz w0, #-0x74 (addr 0x409b80)

----------------
IN: __run_exit_handlers
0x0000000000409b80:  f9400662      ldr x2, [x19, #8]
0x0000000000409b84:  b40007e2      cbz x2, #+0xfc (addr 0x409c80)

----------------
IN: __run_exit_handlers
0x0000000000409c80:  f9400260      ldr x0, [x19]
0x0000000000409c84:  f9000320      str x0, [x25]
0x0000000000409c88:  b5000420      cbnz x0, #+0x84 (addr 0x409d0c)

----------------
IN: __run_exit_handlers
0x0000000000409c8c:  f9466a93      ldr x19, [x20, #3280]
0x0000000000409c90:  90000502      adrp x2, #+0xa0000 (addr 0x4a9000)
0x0000000000409c94:  52800023      mov w3, #0x1
0x0000000000409c98:  52800000      mov w0, #0x0
0x0000000000409c9c:  aa1303e1      mov x1, x19
0x0000000000409ca0:  392b4043      strb w3, [x2, #2768]
0x0000000000409ca4:  94016a13      bl #+0x5a84c (addr 0x4644f0)

----------------
IN: __run_exit_handlers
0x0000000000409ca8:  7100041f      cmp w0, #0x1 (1)
0x0000000000409cac:  540003ac      b.gt #+0x74 (addr 0x409d20)

----------------
IN: __run_exit_handlers
0x0000000000409cb0:  b9406fe0      ldr w0, [sp, #108]
0x0000000000409cb4:  340001c0      cbz w0, #+0x38 (addr 0x409cec)

----------------
IN: __run_exit_handlers
0x0000000000409cb8:  f946aa95      ldr x21, [x20, #3408]
0x0000000000409cbc:  f946e694      ldr x20, [x20, #3528]
0x0000000000409cc0:  eb1402bf      cmp x21, x20
0x0000000000409cc4:  54000142      b.hs #+0x28 (addr 0x409cec)

----------------
IN: __run_exit_handlers
0x0000000000409cc8:  d1000693      sub x19, x20, #0x1 (1)
0x0000000000409ccc:  d2800014      mov x20, #0x0
0x0000000000409cd0:  cb150273      sub x19, x19, x21
0x0000000000409cd4:  d343fe73      lsr x19, x19, #3
0x0000000000409cd8:  f8747aa0      ldr x0, [x21, x20, lsl #3]
0x0000000000409cdc:  d63f0000      blr x0

----------------
IN: _IO_cleanup
0x0000000000422330:  a9b67bfd      stp x29, x30, [sp, #-160]!
0x0000000000422334:  52800000      mov w0, #0x0
0x0000000000422338:  910003fd      mov x29, sp
0x000000000042233c:  a9025bf5      stp x21, x22, [sp, #32]
0x0000000000422340:  90000435      adrp x21, #+0x84000 (addr 0x4a6000)
0x0000000000422344:  d53bd056      mrs x22, (unknown)
0x0000000000422348:  f945dea2      ldr x2, [x21, #3000]
0x000000000042234c:  a90153f3      stp x19, x20, [sp, #16]
0x0000000000422350:  f0000434      adrp x20, #+0x87000 (addr 0x4a9000)
0x0000000000422354:  a90363f7      stp x23, x24, [sp, #48]
0x0000000000422358:  d11f02d6      sub x22, x22, #0x7c0 (1984)
0x000000000042235c:  a9046bf9      stp x25, x26, [sp, #64]
0x0000000000422360:  9101e3fa      add x26, sp, #0x78 (120)
0x0000000000422364:  f9400041      ldr x1, [x2]
0x0000000000422368:  f9004fe1      str x1, [sp, #152]
0x000000000042236c:  d2800001      mov x1, #0x0
0x0000000000422370:  97ffff59      bl #-0x29c (addr 0x4220d4)

----------------
IN: _IO_flush_all_lockp
0x00000000004220d4:  a9b77bfd      stp x29, x30, [sp, #-144]!
0x00000000004220d8:  d0ffffe1      adrp x1, #-0x2000 (addr 0x420000)
0x00000000004220dc:  912e0021      add x1, x1, #0xb80 (2944)
0x00000000004220e0:  910003fd      mov x29, sp
0x00000000004220e4:  a9046bf9      stp x25, x26, [sp, #64]
0x00000000004220e8:  90000439      adrp x25, #+0x84000 (addr 0x4a6000)
0x00000000004220ec:  9101a3fa      add x26, sp, #0x68 (104)
0x00000000004220f0:  f945df22      ldr x2, [x25, #3000]
0x00000000004220f4:  a90153f3      stp x19, x20, [sp, #16]
0x00000000004220f8:  f0000434      adrp x20, #+0x87000 (addr 0x4a9000)
0x00000000004220fc:  a9025bf5      stp x21, x22, [sp, #32]
0x0000000000422100:  2a0003f5      mov w21, w0
0x0000000000422104:  aa1a03e0      mov x0, x26
0x0000000000422108:  a90363f7      stp x23, x24, [sp, #48]
0x000000000042210c:  d53bd057      mrs x23, (unknown)
0x0000000000422110:  d11f02f7      sub x23, x23, #0x7c0 (1984)
0x0000000000422114:  f9400043      ldr x3, [x2]
0x0000000000422118:  f90047e3      str x3, [sp, #136]
0x000000000042211c:  d2800003      mov x3, #0x0
0x0000000000422120:  a906ffe1      stp x1, xzr, [sp, #104]
0x0000000000422124:  9400051f      bl #+0x147c (addr 0x4235a0)

----------------
IN: _IO_flush_all_lockp
0x0000000000422128:  913be282      add x2, x20, #0xef8 (3832)
0x000000000042212c:  f9400840      ldr x0, [x2, #16]
0x0000000000422130:  eb17001f      cmp x0, x23
0x0000000000422134:  54000120      b.eq #+0x24 (addr 0x422158)

----------------
IN: _IO_flush_all_lockp
0x0000000000422138:  91002053      add x19, x2, #0x8 (8)
0x000000000042213c:  52800021      mov w1, #0x1
0x0000000000422140:  aa1303e2      mov x2, x19
0x0000000000422144:  52800000      mov w0, #0x0
0x0000000000422148:  94010856      bl #+0x42158 (addr 0x4642a0)

----------------
IN: _IO_flush_all_lockp
0x000000000042214c:  35000e60      cbnz w0, #+0x1cc (addr 0x422318)

----------------
IN: _IO_flush_all_lockp
0x0000000000422150:  913be280      add x0, x20, #0xef8 (3832)
0x0000000000422154:  f9000817      str x23, [x0, #16]
0x0000000000422158:  913be281      add x1, x20, #0xef8 (3832)
0x000000000042215c:  b0000420      adrp x0, #+0x85000 (addr 0x4a7000)
0x0000000000422160:  f9403013      ldr x19, [x0, #96]
0x0000000000422164:  b9400c20      ldr w0, [x1, #12]
0x0000000000422168:  11000402      add w2, w0, #0x1 (1)
0x000000000042216c:  b9000c22      str w2, [x1, #12]
0x0000000000422170:  b4000d13      cbz x19, #+0x1a0 (addr 0x422310)

----------------
IN: _IO_flush_all_lockp
0x0000000000422174:  f9465338      ldr x24, [x25, #3232]
0x0000000000422178:  a90573fb      stp x27, x28, [sp, #80]
0x000000000042217c:  52800016      mov w22, #0x0
0x0000000000422180:  f947033b      ldr x27, [x25, #3584]
0x0000000000422184:  cb1b0318      sub x24, x24, x27
0x0000000000422188:  f9077e93      str x19, [x20, #3832]
0x000000000042218c:  34000235      cbz w21, #+0x44 (addr 0x4221d0)

----------------
IN: _IO_flush_all_lockp
0x00000000004221d0:  b940c260      ldr w0, [x19, #192]
0x00000000004221d4:  7100001f      cmp w0, #0x0 (0)
0x00000000004221d8:  5400062d      b.le #+0xc4 (addr 0x42229c)

----------------
IN: _IO_flush_all_lockp
0x000000000042229c:  a9420660      ldp x0, x1, [x19, #32]
0x00000000004222a0:  eb00003f      cmp x1, x0
0x00000000004222a4:  54fffb89      b.ls #-0x90 (addr 0x422214)

----------------
IN: _IO_flush_all_lockp
0x0000000000422214:  34000135      cbz w21, #+0x24 (addr 0x422238)

----------------
IN: _IO_flush_all_lockp
0x0000000000422238:  f9403673      ldr x19, [x19, #104]
0x000000000042223c:  f9077e9f      str xzr, [x20, #3832]
0x0000000000422240:  913be280      add x0, x20, #0xef8 (3832)
0x0000000000422244:  b5fffa33      cbnz x19, #-0xbc (addr 0x422188)

----------------
IN: _IO_flush_all_lockp
0x0000000000422188:  f9077e93      str x19, [x20, #3832]
0x000000000042218c:  34000235      cbz w21, #+0x44 (addr 0x4221d0)

----------------
IN: _IO_flush_all_lockp
0x00000000004222a8:  f9406e7c      ldr x28, [x19, #216]
0x00000000004222ac:  cb1b0380      sub x0, x28, x27
0x00000000004222b0:  eb00031f      cmp x24, x0
0x00000000004222b4:  54fffa48      b.hi #-0xb8 (addr 0x4221fc)

----------------
IN: _IO_flush_all_lockp
0x00000000004221fc:  f9400f82      ldr x2, [x28, #24]
0x0000000000422200:  aa1303e0      mov x0, x19
0x0000000000422204:  12800001      mov w1, #0xffffffff
0x0000000000422208:  d63f0040      blr x2

----------------
IN: _IO_file_overflow
0x00000000004208d4:  b40009e1      cbz x1, #+0x13c (addr 0x420a10)

----------------
IN: _IO_file_overflow
0x00000000004208d8:  f9401662      ldr x2, [x19, #40]
0x00000000004208dc:  3100069f      cmn w20, #0x1 (1)
0x00000000004208e0:  540004a0      b.eq #+0x94 (addr 0x420974)


----------------
IN: _IO_flush_all_lockp
0x000000000042220c:  3100041f      cmn w0, #0x1 (1)
0x0000000000422210:  5a9f12d6      csinv w22, w22, wzr, ne
0x0000000000422214:  34000135      cbz w21, #+0x24 (addr 0x422238)

----------------
IN: _IO_flush_all_lockp
0x0000000000422248:  a94573fb      ldp x27, x28, [sp, #80]
0x000000000042224c:  b9400c00      ldr w0, [x0, #12]
0x0000000000422250:  51000400      sub w0, w0, #0x1 (1)
0x0000000000422254:  913be294      add x20, x20, #0xef8 (3832)
0x0000000000422258:  b9000e80      str w0, [x20, #12]
0x000000000042225c:  34000420      cbz w0, #+0x84 (addr 0x4222e0)

----------------
IN: _IO_flush_all_lockp
0x00000000004222e0:  91002293      add x19, x20, #0x8 (8)
0x00000000004222e4:  f9000a9f      str xzr, [x20, #16]
0x00000000004222e8:  aa1303e1      mov x1, x19
0x00000000004222ec:  94010881      bl #+0x42204 (addr 0x4644f0)

----------------
IN: _IO_flush_all_lockp
0x00000000004222f0:  7100041f      cmp w0, #0x1 (1)
0x00000000004222f4:  54fffb6d      b.le #-0x94 (addr 0x422260)

----------------
IN: _IO_flush_all_lockp
0x0000000000422260:  aa1a03e0      mov x0, x26
0x0000000000422264:  940004d8      bl #+0x1360 (addr 0x4235c4)

----------------
IN: _IO_flush_all_lockp
0x0000000000422268:  f945df39      ldr x25, [x25, #3000]
0x000000000042226c:  f94047e0      ldr x0, [sp, #136]
0x0000000000422270:  f9400321      ldr x1, [x25]
0x0000000000422274:  eb010000      subs x0, x0, x1
0x0000000000422278:  d2800001      mov x1, #0x0
0x000000000042227c:  54000541      b.ne #+0xa8 (addr 0x422324)

----------------
IN: _IO_flush_all_lockp
0x0000000000422280:  2a1603e0      mov w0, w22
0x0000000000422284:  a94153f3      ldp x19, x20, [sp, #16]
0x0000000000422288:  a9425bf5      ldp x21, x22, [sp, #32]
0x000000000042228c:  a94363f7      ldp x23, x24, [sp, #48]
0x0000000000422290:  a9446bf9      ldp x25, x26, [sp, #64]
0x0000000000422294:  a8c97bfd      ldp x29, x30, [sp], #144
0x0000000000422298:  d65f03c0      ret

----------------
IN: _IO_cleanup
0x0000000000422374:  2a0003f9      mov w25, w0
0x0000000000422378:  d0ffffe1      adrp x1, #-0x2000 (addr 0x420000)
0x000000000042237c:  912e0021      add x1, x1, #0xb80 (2944)
0x0000000000422380:  aa1a03e0      mov x0, x26
0x0000000000422384:  a907ffe1      stp x1, xzr, [sp, #120]
0x0000000000422388:  94000486      bl #+0x1218 (addr 0x4235a0)

----------------
IN: _IO_cleanup
0x000000000042238c:  913be282      add x2, x20, #0xef8 (3832)
0x0000000000422390:  f9400840      ldr x0, [x2, #16]
0x0000000000422394:  eb0002df      cmp x22, x0
0x0000000000422398:  54000120      b.eq #+0x24 (addr 0x4223bc)

----------------
IN: _IO_cleanup
0x000000000042239c:  91002053      add x19, x2, #0x8 (8)
0x00000000004223a0:  52800021      mov w1, #0x1
0x00000000004223a4:  aa1303e2      mov x2, x19
0x00000000004223a8:  52800000      mov w0, #0x0
0x00000000004223ac:  940107bd      bl #+0x41ef4 (addr 0x4642a0)

----------------
IN: _IO_cleanup
0x00000000004223b0:  350010a0      cbnz w0, #+0x214 (addr 0x4225c4)

----------------
IN: _IO_cleanup
0x00000000004223b4:  913be280      add x0, x20, #0xef8 (3832)
0x00000000004223b8:  f9000816      str x22, [x0, #16]
0x00000000004223bc:  913be298      add x24, x20, #0xef8 (3832)
0x00000000004223c0:  b0000420      adrp x0, #+0x85000 (addr 0x4a7000)
0x00000000004223c4:  f9403013      ldr x19, [x0, #96]
0x00000000004223c8:  b9400f00      ldr w0, [x24, #12]
0x00000000004223cc:  11000401      add w1, w0, #0x1 (1)
0x00000000004223d0:  b9000f01      str w1, [x24, #12]
0x00000000004223d4:  b40008b3      cbz x19, #+0x114 (addr 0x4224e8)

----------------
IN: _IO_cleanup
0x00000000004223d8:  f94652b7      ldr x23, [x21, #3232]
0x00000000004223dc:  a90573fb      stp x27, x28, [sp, #80]
0x00000000004223e0:  f94702bb      ldr x27, [x21, #3584]
0x00000000004223e4:  cb1b02f7      sub x23, x23, x27
0x00000000004223e8:  14000005      b #+0x14 (addr 0x4223fc)

----------------
IN: _IO_cleanup
0x00000000004223fc:  b9400261      ldr w1, [x19]
0x0000000000422400:  121f003c      and w28, w1, #0x2
0x0000000000422404:  370fff41      tbnz w1, #1, #-0x18 (addr 0x4223ec)

----------------
IN: _IO_cleanup
0x00000000004223ec:  12800000      mov w0, #0xffffffff
0x00000000004223f0:  b900c260      str w0, [x19, #192]
0x00000000004223f4:  f9403673      ldr x19, [x19, #104]
0x00000000004223f8:  b4000713      cbz x19, #+0xe0 (addr 0x4224d8)

----------------
IN: _IO_cleanup
0x0000000000422408:  b940c260      ldr w0, [x19, #192]
0x000000000042240c:  34ffff00      cbz w0, #-0x20 (addr 0x4223ec)

----------------
IN: _IO_cleanup
0x0000000000422410:  f9404662      ldr x2, [x19, #136]
0x0000000000422414:  b4000182      cbz x2, #+0x30 (addr 0x422444)

----------------
IN: _IO_cleanup
0x0000000000422418:  f9400440      ldr x0, [x2, #8]
0x000000000042241c:  eb0002df      cmp x22, x0
0x0000000000422420:  54000da0      b.eq #+0x1b4 (addr 0x4225d4)

----------------
IN: _IO_cleanup
0x0000000000422424:  52800021      mov w1, #0x1
0x0000000000422428:  52800000      mov w0, #0x0
0x000000000042242c:  9401079d      bl #+0x41e74 (addr 0x4642a0)

----------------
IN: _IO_cleanup
0x0000000000422430:  350009c0      cbnz w0, #+0x138 (addr 0x422568)

----------------
IN: _IO_cleanup
0x0000000000422434:  f9404660      ldr x0, [x19, #136]
0x0000000000422438:  52800021      mov w1, #0x1
0x000000000042243c:  b9000401      str w1, [x0, #4]
0x0000000000422440:  f9000416      str x22, [x0, #8]
0x0000000000422444:  39406300      ldrb w0, [x24, #24]
0x0000000000422448:  35000060      cbnz w0, #+0xc (addr 0x422454)

----------------
IN: _IO_cleanup
0x000000000042244c:  b9400260      ldr w0, [x19]
0x0000000000422450:  36000700      tbz w0, #0, #+0xe0 (addr 0x422530)

----------------
IN: _IO_cleanup
0x0000000000422530:  32000000      orr w0, w0, #0x1
0x0000000000422534:  b9000260      str w0, [x19]
0x0000000000422538:  f9406e60      ldr x0, [x19, #216]
0x000000000042253c:  f9401302      ldr x2, [x24, #32]
0x0000000000422540:  f9001313      str x19, [x24, #32]
0x0000000000422544:  f9401e61      ldr x1, [x19, #56]
0x0000000000422548:  a90a8662      stp x2, x1, [x19, #168]
0x000000000042254c:  cb1b0001      sub x1, x0, x27
0x0000000000422550:  eb0102ff      cmp x23, x1
0x0000000000422554:  54fff888      b.hi #-0xf0 (addr 0x422464)

----------------
IN: _IO_cleanup
0x0000000000422464:  f9402c03      ldr x3, [x0, #88]
0x0000000000422468:  d2800002      mov x2, #0x0
0x000000000042246c:  aa1303e0      mov x0, x19
0x0000000000422470:  d2800001      mov x1, #0x0
0x0000000000422474:  d63f0060      blr x3

----------------
IN: _IO_new_file_setbuf
0x000000000041e880:  a9be7bfd      stp x29, x30, [sp, #-32]!
0x000000000041e884:  910003fd      mov x29, sp
0x000000000041e888:  f9000bf3      str x19, [sp, #16]
0x000000000041e88c:  aa0003f3      mov x19, x0
0x000000000041e890:  94000ca5      bl #+0x3294 (addr 0x421b24)

----------------
IN: _IO_default_setbuf
0x0000000000421b24:  a9bd7bfd      stp x29, x30, [sp, #-48]!
0x0000000000421b28:  b0000423      adrp x3, #+0x85000 (addr 0x4a6000)
0x0000000000421b2c:  910003fd      mov x29, sp
0x0000000000421b30:  a90153f3      stp x19, x20, [sp, #16]
0x0000000000421b34:  aa0003f3      mov x19, x0
0x0000000000421b38:  aa0103f4      mov x20, x1
0x0000000000421b3c:  f9470060      ldr x0, [x3, #3584]
0x0000000000421b40:  a9025bf5      stp x21, x22, [sp, #32]
0x0000000000421b44:  aa0203f5      mov x21, x2
0x0000000000421b48:  f9465063      ldr x3, [x3, #3232]
0x0000000000421b4c:  f9406e76      ldr x22, [x19, #216]
0x0000000000421b50:  cb000063      sub x3, x3, x0
0x0000000000421b54:  cb0002c0      sub x0, x22, x0
0x0000000000421b58:  eb00007f      cmp x3, x0
0x0000000000421b5c:  54000489      b.ls #+0x90 (addr 0x421bec)

----------------
IN: _IO_default_setbuf
0x0000000000421b60:  f94032c1      ldr x1, [x22, #96]
0x0000000000421b64:  aa1303e0      mov x0, x19
0x0000000000421b68:  d63f0020      blr x1

----------------
IN: _IO_default_setbuf
0x0000000000421b6c:  3100041f      cmn w0, #0x1 (1)
0x0000000000421b70:  54000420      b.eq #+0x84 (addr 0x421bf4)

----------------
IN: _IO_default_setbuf
0x0000000000421b74:  f100029f      cmp x20, #0x0 (0)
0x0000000000421b78:  b9400262      ldr w2, [x19]
0x0000000000421b7c:  fa401aa4      ccmp x21, #0, #nZcv, ne
0x0000000000421b80:  f9401e60      ldr x0, [x19, #56]
0x0000000000421b84:  54000241      b.ne #+0x48 (addr 0x421bcc)

----------------
IN: _IO_default_setbuf
0x0000000000421b88:  aa1303f4      mov x20, x19
0x0000000000421b8c:  321f0041      orr w1, w2, #0x2
0x0000000000421b90:  91021275      add x21, x19, #0x84 (132)
0x0000000000421b94:  b8083681      str w1, [x20], #131
0x0000000000421b98:  b4000040      cbz x0, #+0x8 (addr 0x421ba0)

----------------
IN: _IO_default_setbuf
0x0000000000421b9c:  36000222      tbz w2, #0, #+0x44 (addr 0x421be0)

----------------
IN: _IO_default_setbuf
0x0000000000421ba0:  aa1303e0      mov x0, x19
0x0000000000421ba4:  32000021      orr w1, w1, #0x1
0x0000000000421ba8:  b9000261      str w1, [x19]
0x0000000000421bac:  a900fe7f      stp xzr, xzr, [x19, #8]
0x0000000000421bb0:  a901fe7f      stp xzr, xzr, [x19, #24]
0x0000000000421bb4:  a902fe7f      stp xzr, xzr, [x19, #40]
0x0000000000421bb8:  a903d674      stp x20, x21, [x19, #56]
0x0000000000421bbc:  a94153f3      ldp x19, x20, [sp, #16]
0x0000000000421bc0:  a9425bf5      ldp x21, x22, [sp, #32]
0x0000000000421bc4:  a8c37bfd      ldp x29, x30, [sp], #48
0x0000000000421bc8:  d65f03c0      ret

----------------
IN: _IO_new_file_setbuf
0x000000000041e894:  b40000c0      cbz x0, #+0x18 (addr 0x41e8ac)

----------------
IN: _IO_new_file_setbuf
0x000000000041e898:  aa1303e0      mov x0, x19
0x000000000041e89c:  f9401e61      ldr x1, [x19, #56]
0x000000000041e8a0:  a9008661      stp x1, x1, [x19, #8]
0x000000000041e8a4:  a9018661      stp x1, x1, [x19, #24]
0x000000000041e8a8:  a9028661      stp x1, x1, [x19, #40]
0x000000000041e8ac:  f9400bf3      ldr x19, [sp, #16]
0x000000000041e8b0:  a8c27bfd      ldp x29, x30, [sp], #32
0x000000000041e8b4:  d65f03c0      ret

----------------
IN: _IO_cleanup
0x0000000000422478:  b940c260      ldr w0, [x19, #192]
0x000000000042247c:  7100001f      cmp w0, #0x0 (0)
0x0000000000422480:  540000cd      b.le #+0x18 (addr 0x422498)

----------------
IN: _IO_cleanup
0x0000000000422498:  71000b9f      cmp w28, #0x2 (2)
0x000000000042249c:  54fffa80      b.eq #-0xb0 (addr 0x4223ec)

----------------
IN: _IO_cleanup
0x00000000004224a0:  f940467c      ldr x28, [x19, #136]
0x00000000004224a4:  b4fffa5c      cbz x28, #-0xb8 (addr 0x4223ec)

----------------
IN: _IO_cleanup
0x00000000004224a8:  b9400780      ldr w0, [x28, #4]
0x00000000004224ac:  51000400      sub w0, w0, #0x1 (1)
0x00000000004224b0:  b9000780      str w0, [x28, #4]
0x00000000004224b4:  35fff9c0      cbnz w0, #-0xc8 (addr 0x4223ec)

----------------
IN: _IO_cleanup
0x00000000004224b8:  f900079f      str xzr, [x28, #8]
0x00000000004224bc:  aa1c03e1      mov x1, x28
0x00000000004224c0:  9401080c      bl #+0x42030 (addr 0x4644f0)

----------------
IN: _IO_cleanup
0x00000000004224c4:  7100041f      cmp w0, #0x1 (1)
0x00000000004224c8:  54fff92d      b.le #-0xdc (addr 0x4223ec)

----------------
IN: _IO_cleanup
0x00000000004224d8:  913be280      add x0, x20, #0xef8 (3832)
0x00000000004224dc:  a94573fb      ldp x27, x28, [sp, #80]
0x00000000004224e0:  b9400c00      ldr w0, [x0, #12]
0x00000000004224e4:  51000400      sub w0, w0, #0x1 (1)
0x00000000004224e8:  913be294      add x20, x20, #0xef8 (3832)
0x00000000004224ec:  b9000e80      str w0, [x20, #12]
0x00000000004224f0:  34000580      cbz w0, #+0xb0 (addr 0x4225a0)

----------------
IN: _IO_cleanup
0x00000000004225a0:  91002293      add x19, x20, #0x8 (8)
0x00000000004225a4:  f9000a9f      str xzr, [x20, #16]
0x00000000004225a8:  aa1303e1      mov x1, x19
0x00000000004225ac:  940107d1      bl #+0x41f44 (addr 0x4644f0)

----------------
IN: _IO_cleanup
0x00000000004225b0:  7100041f      cmp w0, #0x1 (1)
0x00000000004225b4:  54fffa0d      b.le #-0xc0 (addr 0x4224f4)

----------------
IN: _IO_cleanup
0x00000000004224f4:  aa1a03e0      mov x0, x26
0x00000000004224f8:  94000433      bl #+0x10cc (addr 0x4235c4)

----------------
IN: _IO_cleanup
0x00000000004224fc:  f945deb5      ldr x21, [x21, #3000]
0x0000000000422500:  f9404fe0      ldr x0, [sp, #152]
0x0000000000422504:  f94002a1      ldr x1, [x21]
0x0000000000422508:  eb010000      subs x0, x0, x1
0x000000000042250c:  d2800001      mov x1, #0x0
0x0000000000422510:  540006e1      b.ne #+0xdc (addr 0x4225ec)

----------------
IN: _IO_cleanup
0x0000000000422514:  2a1903e0      mov w0, w25
0x0000000000422518:  a94153f3      ldp x19, x20, [sp, #16]
0x000000000042251c:  a9425bf5      ldp x21, x22, [sp, #32]
0x0000000000422520:  a94363f7      ldp x23, x24, [sp, #48]
0x0000000000422524:  a9446bf9      ldp x25, x26, [sp, #64]
0x0000000000422528:  a8ca7bfd      ldp x29, x30, [sp], #160
0x000000000042252c:  d65f03c0      ret

----------------
IN: __run_exit_handlers
0x0000000000409ce0:  eb13029f      cmp x20, x19
0x0000000000409ce4:  91000694      add x20, x20, #0x1 (1)
0x0000000000409ce8:  54ffff81      b.ne #-0x10 (addr 0x409cd8)

----------------
IN: __run_exit_handlers
0x0000000000409cec:  2a1703e0      mov w0, w23
0x0000000000409cf0:  94009430      bl #+0x250c0 (addr 0x42edb0)

----------------
IN: _exit
0x000000000042edb0:  93407c02      sxtw x2, w0
0x000000000042edb4:  900003c4      adrp x4, #+0x78000 (addr 0x4a6000)
0x000000000042edb8:  f946e884      ldr x4, [x4, #3536]
0x000000000042edbc:  d53bd043      mrs x3, (unknown)
0x000000000042edc0:  aa0203e0      mov x0, x2
0x000000000042edc4:  d2800bc8      mov x8, #0x5e
0x000000000042edc8:  d4000001      svc #0x0

